Certificate:
    Data:
        Version: 3 (0x2)
        Serial Number:
            01:09:8b:f3:e9:81:ae:53:f0:c8:a5:66:bc:14:3d:54:4e:86:8a:2f
        Signature Algorithm: sha256WithRSAEncryption
        Issuer: C=NO, O=Nitpicksy, OU=Nitpicksy Certificate Authority, CN=Nitpicksy TLS CA
        Validity
            Not Before: Dec  6 21:37:48 2020 GMT
            Not After : Dec  6 21:37:48 2022 GMT
        Subject: C=NO, O=Nitpicksy, OU=Nitpicksy Certificate Authority, CN=Eureka
        Subject Public Key Info:
            Public Key Algorithm: rsaEncryption
                RSA Public-Key: (4096 bit)
                Modulus:
                    00:ac:f1:06:94:46:1d:6c:b1:d9:f3:69:28:79:a1:
                    6d:89:7a:fd:f6:63:52:e5:5c:22:98:90:83:e4:72:
                    92:51:54:a5:cc:28:c2:65:36:f2:4a:a0:0d:ce:82:
                    11:0d:ed:50:c1:28:d1:1b:6b:12:b9:3d:08:0f:1c:
                    e6:3a:dd:56:a2:c3:08:aa:db:c9:b2:00:f5:8b:01:
                    dc:f0:ed:25:bc:32:ea:67:ba:ee:4b:4a:8a:dd:aa:
                    c5:7c:58:e0:9a:12:87:d2:a2:a6:1b:11:cc:51:a3:
                    4a:f5:87:0b:33:37:34:97:0b:80:ae:67:16:57:97:
                    4e:24:d5:94:89:0d:14:6a:0d:1b:2e:f4:3a:55:60:
                    a3:3c:31:0f:f6:a3:9d:2a:7f:f0:54:50:cc:59:3c:
                    92:c8:28:2a:79:e0:34:c1:35:52:2f:96:de:14:a9:
                    d5:6e:85:27:0a:23:95:60:80:14:c4:c5:02:4b:f2:
                    52:8a:11:aa:48:d4:f8:7e:95:c5:09:99:be:67:53:
                    ba:53:c1:29:ba:e0:81:c0:95:28:57:e4:f3:3a:ae:
                    0a:85:8c:3d:cd:d3:a5:0e:53:e4:f8:7c:f6:ee:2a:
                    9c:30:01:7b:b9:3d:6f:b6:96:d9:c7:78:71:14:f5:
                    59:a4:4b:89:98:d9:7b:4c:0e:4d:b9:e7:4b:ce:09:
                    7d:8f:64:34:cc:05:02:c6:44:72:b9:78:58:41:1c:
                    2a:92:57:d1:3b:58:e6:1a:d6:6f:d5:0f:07:19:b0:
                    33:a0:d1:ae:4b:73:c0:cc:2a:1d:0f:ec:75:b4:da:
                    3f:18:35:cb:e9:41:6c:0e:7f:d6:1e:e3:ca:d6:cd:
                    f3:ff:10:a4:44:d7:ef:61:db:4c:fd:cf:de:1c:fb:
                    a9:c6:c5:59:5d:ee:21:0a:03:87:e0:3c:f2:6c:c2:
                    3c:e2:b3:0e:52:b6:5e:87:d0:3b:73:43:0d:97:89:
                    6a:32:6b:de:fd:6c:57:a8:ba:48:a0:18:34:61:c2:
                    f4:a7:cc:f9:3a:28:a1:5d:d5:d2:87:d5:d7:12:41:
                    d9:a1:a9:e6:76:01:2f:a3:6b:8c:79:94:06:c7:97:
                    e1:23:17:28:fc:bb:73:00:ca:71:ba:9d:d0:cb:c0:
                    bb:a8:eb:1f:aa:53:35:9f:e4:83:8c:46:f4:98:8b:
                    aa:bc:fe:8d:68:c3:34:b1:58:c3:1d:4f:93:9b:06:
                    af:c2:05:e7:0b:cb:ed:7c:fe:26:3b:ed:d6:c4:12:
                    70:0d:26:a0:93:1d:08:0c:1f:76:ef:06:7d:ac:72:
                    d9:4b:6a:06:95:eb:1e:b0:2a:23:de:17:d3:6f:00:
                    a0:1e:f9:d9:89:8e:10:42:e8:66:d6:84:ec:85:5c:
                    4d:de:b5
                Exponent: 65537 (0x10001)
        X509v3 extensions:
            X509v3 Key Usage: critical
                Digital Signature, Key Encipherment
            X509v3 Basic Constraints: 
                CA:FALSE
            X509v3 Extended Key Usage: 
                TLS Web Server Authentication, TLS Web Client Authentication
            X509v3 Subject Key Identifier: 
                7F:4F:47:B6:0A:45:EA:26:73:B6:F3:4F:65:05:4D:B4:01:F7:8C:25
            X509v3 Authority Key Identifier: 
                keyid:13:C7:9F:5E:B9:43:55:A8:78:A1:8C:2B:C2:F3:BE:BF:4D:3B:7C:FF

            Authority Information Access: 
                CA Issuers - URI:http://nitpicksy.no/ca/tls-ca.cer

            X509v3 CRL Distribution Points: 

                Full Name:
                  URI:http://nitpicksy.no/ca/tls-ca.crl

            X509v3 Subject Alternative Name: 
                DNS:nitpicksy.no, DNS:www.nitpicksy.no, DNS:localhost
    Signature Algorithm: sha256WithRSAEncryption
         35:e8:eb:de:97:cc:65:ec:45:74:0f:a4:ba:3f:d9:d2:a3:96:
         33:77:e6:a6:90:7c:02:3c:64:27:a2:f2:ba:1e:47:52:02:32:
         a2:c6:47:93:7b:62:48:35:eb:d3:5a:82:fd:fb:bd:c1:2a:a0:
         ff:40:7b:a6:c3:f0:29:0b:e1:3a:45:e0:95:73:20:20:ba:73:
         1b:b1:66:d2:f9:a7:62:58:5b:1e:e9:3b:61:ec:4e:57:3f:56:
         36:4a:07:c9:f5:4d:fe:3e:b3:ee:0b:48:6b:8e:54:e5:a3:cf:
         6e:84:9f:a3:50:bc:56:0f:91:54:6e:00:07:3c:6d:8b:24:a4:
         ce:ec:9a:ca:4b:d3:49:2c:00:7b:bd:71:82:45:15:3e:6c:d2:
         ce:61:49:98:79:17:3f:de:b2:ee:b2:c7:49:d1:f7:37:6e:a8:
         d4:40:a8:a1:fb:30:34:11:40:7d:51:9f:49:ae:6f:af:9d:61:
         6f:b9:20:3c:70:be:99:6c:0b:75:3b:21:55:a2:f1:51:85:78:
         9f:0f:4a:32:06:73:48:79:9e:95:f8:3f:cf:b1:05:7f:dc:b3:
         c8:62:1c:93:38:66:03:c2:d3:d8:4e:d5:08:ab:e4:0f:88:6e:
         5e:88:07:fe:99:88:ca:78:14:56:7f:9d:a3:7a:4a:37:52:de:
         7a:6f:14:9b:28:72:c6:fb:cb:42:6d:eb:78:14:93:10:5e:be:
         a9:23:99:16:65:23:7b:a4:1c:65:92:63:d3:2d:c4:35:9f:7b:
         bc:ee:55:03:2d:fb:a4:cf:37:5d:69:1d:c8:54:fe:21:f9:6c:
         12:ba:e8:49:48:ed:37:2c:64:f6:1f:ef:2a:e1:e2:cf:0f:37:
         b2:d4:36:93:e7:c1:ec:a5:a8:c5:b9:51:0a:e6:18:1f:9f:de:
         16:1b:e2:2d:e3:47:2b:ba:58:83:01:93:37:9c:f7:41:41:0d:
         56:25:ee:d6:87:e6:c6:20:61:39:be:32:a3:94:95:24:91:d8:
         96:d5:7f:9e:7c:60:a0:8a:15:67:b3:7f:14:57:d2:10:50:41:
         ad:65:a7:25:5b:22:3f:ca:ff:d0:27:24:f4:2e:fc:ee:d5:d2:
         73:37:64:82:fc:45:f0:42:ce:45:42:5f:ec:5a:4b:29:29:4e:
         ea:36:fa:94:21:e9:9a:c8:28:ec:21:d1:cd:b6:4b:9f:24:05:
         a9:fc:1f:36:20:2c:a8:74:d8:52:ac:61:ea:c6:67:06:3e:08:
         2a:c8:a7:d9:ca:7c:79:12:56:7d:cd:de:ce:11:96:59:51:9f:
         b5:66:6d:66:d2:3f:c7:de:d1:d7:94:9c:55:41:28:76:d1:3c:
         a2:6b:bc:e8:c5:69:62:53
-----BEGIN CERTIFICATE-----
MIIGeTCCBGGgAwIBAgIUAQmL8+mBrlPwyKVmvBQ9VE6Gii8wDQYJKoZIhvcNAQEL
BQAwZjELMAkGA1UEBhMCTk8xEjAQBgNVBAoMCU5pdHBpY2tzeTEoMCYGA1UECwwf
Tml0cGlja3N5IENlcnRpZmljYXRlIEF1dGhvcml0eTEZMBcGA1UEAwwQTml0cGlj
a3N5IFRMUyBDQTAeFw0yMDEyMDYyMTM3NDhaFw0yMjEyMDYyMTM3NDhaMFwxCzAJ
BgNVBAYTAk5PMRIwEAYDVQQKDAlOaXRwaWNrc3kxKDAmBgNVBAsMH05pdHBpY2tz
eSBDZXJ0aWZpY2F0ZSBBdXRob3JpdHkxDzANBgNVBAMMBkV1cmVrYTCCAiIwDQYJ
KoZIhvcNAQEBBQADggIPADCCAgoCggIBAKzxBpRGHWyx2fNpKHmhbYl6/fZjUuVc
IpiQg+RyklFUpcwowmU28kqgDc6CEQ3tUMEo0RtrErk9CA8c5jrdVqLDCKrbybIA
9YsB3PDtJbwy6me67ktKit2qxXxY4JoSh9KiphsRzFGjSvWHCzM3NJcLgK5nFleX
TiTVlIkNFGoNGy70OlVgozwxD/ajnSp/8FRQzFk8ksgoKnngNME1Ui+W3hSp1W6F
JwojlWCAFMTFAkvyUooRqkjU+H6VxQmZvmdTulPBKbrggcCVKFfk8zquCoWMPc3T
pQ5T5Ph89u4qnDABe7k9b7aW2cd4cRT1WaRLiZjZe0wOTbnnS84JfY9kNMwFAsZE
crl4WEEcKpJX0TtY5hrWb9UPBxmwM6DRrktzwMwqHQ/sdbTaPxg1y+lBbA5/1h7j
ytbN8/8QpETX72HbTP3P3hz7qcbFWV3uIQoDh+A88mzCPOKzDlK2XofQO3NDDZeJ
ajJr3v1sV6i6SKAYNGHC9KfM+ToooV3V0ofV1xJB2aGp5nYBL6NrjHmUBseX4SMX
KPy7cwDKcbqd0MvAu6jrH6pTNZ/kg4xG9JiLqrz+jWjDNLFYwx1Pk5sGr8IF5wvL
7Xz+Jjvt1sQScA0moJMdCAwfdu8Gfaxy2UtqBpXrHrAqI94X028AoB752YmOEELo
ZtaE7IVcTd61AgMBAAGjggEnMIIBIzAOBgNVHQ8BAf8EBAMCBaAwCQYDVR0TBAIw
ADAdBgNVHSUEFjAUBggrBgEFBQcDAQYIKwYBBQUHAwIwHQYDVR0OBBYEFH9PR7YK
Reomc7bzT2UFTbQB94wlMB8GA1UdIwQYMBaAFBPHn165Q1WoeKGMK8Lzvr9NO3z/
MD0GCCsGAQUFBwEBBDEwLzAtBggrBgEFBQcwAoYhaHR0cDovL25pdHBpY2tzeS5u
by9jYS90bHMtY2EuY2VyMDIGA1UdHwQrMCkwJ6AloCOGIWh0dHA6Ly9uaXRwaWNr
c3kubm8vY2EvdGxzLWNhLmNybDA0BgNVHREELTArggxuaXRwaWNrc3kubm+CEHd3
dy5uaXRwaWNrc3kubm+CCWxvY2FsaG9zdDANBgkqhkiG9w0BAQsFAAOCAgEANejr
3pfMZexFdA+kuj/Z0qOWM3fmppB8AjxkJ6Lyuh5HUgIyosZHk3tiSDXr01qC/fu9
wSqg/0B7psPwKQvhOkXglXMgILpzG7Fm0vmnYlhbHuk7YexOVz9WNkoHyfVN/j6z
7gtIa45U5aPPboSfo1C8Vg+RVG4ABzxtiySkzuyaykvTSSwAe71xgkUVPmzSzmFJ
mHkXP96y7rLHSdH3N26o1ECoofswNBFAfVGfSa5vr51hb7kgPHC+mWwLdTshVaLx
UYV4nw9KMgZzSHmelfg/z7EFf9yzyGIckzhmA8LT2E7VCKvkD4huXogH/pmIyngU
Vn+do3pKN1Leem8UmyhyxvvLQm3reBSTEF6+qSOZFmUje6QcZZJj0y3ENZ97vO5V
Ay37pM83XWkdyFT+IflsErroSUjtNyxk9h/vKuHizw83stQ2k+fB7KWoxblRCuYY
H5/eFhviLeNHK7pYgwGTN5z3QUENViXu1ofmxiBhOb4yo5SVJJHYltV/nnxgoIoV
Z7N/FFfSEFBBrWWnJVsiP8r/0Cck9C787tXSczdkgvxF8ELORUJf7FpLKSlO6jb6
lCHpmsgo7CHRzbZLnyQFqfwfNiAsqHTYUqxh6sZnBj4IKsin2cp8eRJWfc3ezhGW
WVGftWZtZtI/x97R15ScVUEodtE8omu86MVpYlM=
-----END CERTIFICATE-----
