Certificate:
    Data:
        Version: 3 (0x2)
        Serial Number:
            01:9f:bd:b6:e5:67:f1:e6:29:ca:d0:01:63:c9:b9:51:e0:08:67:68
        Signature Algorithm: sha256WithRSAEncryption
        Issuer: C=NO, O=Nitpicksy, OU=Nitpicksy Certificate Authority, CN=Nitpicksy TLS CA
        Validity
            Not Before: Dec  6 21:59:50 2020 GMT
            Not After : Dec  6 21:59:50 2022 GMT
        Subject: C=NO, O=Nitpicksy, OU=Nitpicksy Certificate Authority, CN=Cloud
        Subject Public Key Info:
            Public Key Algorithm: rsaEncryption
                RSA Public-Key: (4096 bit)
                Modulus:
                    00:df:f7:05:f8:62:fe:10:7b:f2:e2:7f:da:10:f9:
                    9b:70:9c:a4:14:71:31:4d:86:3a:1a:ad:71:97:0e:
                    a9:58:3b:23:b1:3c:1f:cd:44:fa:9a:9a:65:6f:81:
                    4f:8e:ba:06:92:95:74:65:12:8a:be:f0:3f:26:48:
                    2c:b7:9d:7b:9d:2d:99:eb:6d:c0:ee:4f:8e:a4:c0:
                    65:c1:28:c6:d2:f7:36:d5:1f:88:61:a3:30:18:01:
                    36:64:b5:37:d4:48:4a:05:c4:cc:87:35:df:56:3a:
                    ed:01:c1:67:69:2e:47:bd:99:39:9b:85:b6:8e:d4:
                    46:91:08:4d:4f:8d:da:2e:f3:0b:15:c7:68:b6:71:
                    4f:c8:f0:03:0f:a3:b4:9e:5c:a7:29:97:77:ca:63:
                    e4:2b:55:23:4d:d8:ea:2b:5a:9a:c1:85:6a:d4:de:
                    ae:02:af:9b:42:63:f5:65:e1:a3:0d:75:5a:39:50:
                    df:36:57:94:9a:20:91:dc:36:f8:79:27:a0:46:98:
                    9e:72:42:50:c7:81:12:5c:70:af:2d:1e:bc:d4:e6:
                    27:8c:b2:25:e5:ca:c1:02:ff:79:47:90:dc:f7:fa:
                    db:d3:59:a9:e7:73:5b:b1:e2:24:c1:c4:06:0e:bb:
                    9d:aa:f8:d0:62:82:b4:12:38:4e:9f:97:8f:e5:95:
                    9b:97:5d:8c:3d:26:1a:2e:f1:61:38:3e:3e:79:d6:
                    91:cf:1f:87:a5:39:70:86:60:e2:ae:d5:05:35:00:
                    e4:c3:d3:06:c5:26:f8:4d:27:64:83:40:68:1d:c8:
                    3d:ce:a5:62:6d:72:2b:b6:66:e3:3d:5d:ca:38:e7:
                    9d:e6:a6:95:4b:b9:ad:64:64:03:00:5d:ee:4b:b0:
                    17:a4:46:e8:ba:2e:46:05:b5:f7:f2:5c:7d:81:da:
                    33:c5:d1:a8:d4:ed:9c:a4:a6:1e:04:e2:3e:e6:fc:
                    d6:d7:a0:06:2a:64:04:f5:cc:18:b1:72:4c:01:31:
                    05:f1:9d:16:f1:e9:88:11:ec:f1:36:90:f5:cf:d0:
                    08:99:d8:fd:d0:34:67:63:28:e0:b5:4e:4b:7e:78:
                    5d:fa:a9:0d:6a:f2:fe:92:22:c7:ff:d0:03:17:ff:
                    63:54:2e:96:81:bd:18:82:47:7d:da:10:c9:0a:62:
                    bc:df:a4:95:f7:a1:38:1a:80:03:41:de:fc:7e:ef:
                    d0:96:75:a4:11:04:31:80:0b:b7:31:a5:d5:d5:86:
                    4f:ea:04:ef:11:d7:03:11:31:b0:5d:70:fd:e1:ce:
                    e0:dd:82:ba:ec:7c:49:f6:f5:fa:52:7a:c1:3a:32:
                    2a:72:fe:53:86:6b:c8:97:ae:ca:23:01:b2:be:5a:
                    bb:f6:db
                Exponent: 65537 (0x10001)
        X509v3 extensions:
            X509v3 Key Usage: critical
                Digital Signature, Key Encipherment
            X509v3 Basic Constraints: 
                CA:FALSE
            X509v3 Extended Key Usage: 
                TLS Web Server Authentication, TLS Web Client Authentication
            X509v3 Subject Key Identifier: 
                0A:C6:15:68:18:AC:4D:68:A1:0D:3F:B6:53:14:B0:0C:4A:08:7F:79
            X509v3 Authority Key Identifier: 
                keyid:F8:9E:02:FC:4A:0D:42:21:E6:18:5C:50:21:68:5A:34:79:23:14:65

            Authority Information Access: 
                CA Issuers - URI:http://nitpicksy.no/ca/tls-ca.cer

            X509v3 CRL Distribution Points: 

                Full Name:
                  URI:http://nitpicksy.no/ca/tls-ca.crl

            X509v3 Subject Alternative Name: 
                DNS:nitpicksy.no, DNS:www.nitpicksy.no, DNS:localhost
    Signature Algorithm: sha256WithRSAEncryption
         6d:b5:00:67:fb:41:25:d2:03:f1:e9:a2:1d:3c:2b:fb:36:e6:
         01:f9:d9:3f:2a:7b:b6:cd:8e:50:80:08:23:97:ee:da:a3:b4:
         6c:6b:92:09:1d:8e:f1:aa:24:f4:82:62:b3:8b:94:a5:1d:ca:
         f9:e6:80:3b:df:73:81:35:46:ad:20:41:a5:67:66:b7:b9:4d:
         34:ff:3d:9c:e6:cc:57:30:a3:7a:d7:a4:77:65:94:18:d1:78:
         32:f9:3a:0c:ad:a1:87:88:1b:1b:5d:f8:90:bf:77:03:af:29:
         0a:93:af:47:3e:42:08:51:70:51:f1:f3:4b:e9:15:89:cb:9b:
         44:1f:a4:e7:ce:2b:27:9b:ee:ea:6f:d1:fb:c1:aa:b5:15:b2:
         96:a9:7c:df:fb:84:92:d3:68:8d:30:a1:49:54:e5:66:34:38:
         89:4b:ce:0f:95:85:9e:55:aa:6e:b3:5f:47:a6:c6:05:54:7b:
         f5:b7:08:87:46:90:48:0d:41:c0:e4:75:c5:c4:e3:93:8b:bd:
         63:51:e8:bd:d4:ec:c4:1f:83:3f:58:da:af:3e:7a:4d:5c:1b:
         34:35:05:78:d7:e3:1a:d2:9b:5b:75:49:68:5f:e9:a4:fb:8b:
         56:f6:1b:19:2c:f3:64:06:2a:09:d1:3a:91:7b:d7:7b:85:d5:
         ed:8b:2a:9b:e5:0d:fa:e6:44:8f:c6:f1:eb:0f:0a:16:b5:aa:
         08:00:89:cf:c1:c9:fa:84:ba:67:65:e0:4d:e3:47:46:08:68:
         18:cb:33:1e:fd:e7:7a:62:fc:2f:a2:b2:5a:33:63:35:6f:5a:
         57:4c:5a:4d:a8:68:34:3e:d2:5f:00:51:c2:89:1c:d8:5a:c7:
         19:b4:62:da:73:95:98:bb:49:fa:21:ab:c9:9e:18:c8:c3:d9:
         49:62:22:84:3f:b4:9b:82:50:af:35:40:08:bc:1e:53:3a:3c:
         cc:f4:b2:cf:51:15:22:35:39:34:3d:8a:aa:6e:23:71:44:1b:
         89:e2:d1:4d:8a:e1:e0:f1:99:ca:0d:aa:89:50:2f:47:5b:6a:
         1f:cb:81:55:dc:8b:27:c0:10:b4:56:69:33:e5:9c:94:ee:07:
         f2:48:b1:2f:78:e7:b3:b7:d4:99:86:40:64:6f:53:5c:d9:54:
         8f:1e:52:54:30:2a:97:0e:2b:1f:31:4f:7a:43:05:ea:22:00:
         09:e1:2c:eb:c8:4e:9c:46:63:3d:66:ae:13:29:4e:d0:25:88:
         ef:a9:f2:63:72:58:46:b9:42:63:a0:00:05:30:e0:e7:12:39:
         2e:88:50:8d:cd:6b:42:c7:d6:cd:e0:9d:11:e9:5f:19:b9:1b:
         e8:90:5a:bf:7a:e4:4e:08
-----BEGIN CERTIFICATE-----
MIIGeDCCBGCgAwIBAgIUAZ+9tuVn8eYpytABY8m5UeAIZ2gwDQYJKoZIhvcNAQEL
BQAwZjELMAkGA1UEBhMCTk8xEjAQBgNVBAoMCU5pdHBpY2tzeTEoMCYGA1UECwwf
Tml0cGlja3N5IENlcnRpZmljYXRlIEF1dGhvcml0eTEZMBcGA1UEAwwQTml0cGlj
a3N5IFRMUyBDQTAeFw0yMDEyMDYyMTU5NTBaFw0yMjEyMDYyMTU5NTBaMFsxCzAJ
BgNVBAYTAk5PMRIwEAYDVQQKDAlOaXRwaWNrc3kxKDAmBgNVBAsMH05pdHBpY2tz
eSBDZXJ0aWZpY2F0ZSBBdXRob3JpdHkxDjAMBgNVBAMMBUNsb3VkMIICIjANBgkq
hkiG9w0BAQEFAAOCAg8AMIICCgKCAgEA3/cF+GL+EHvy4n/aEPmbcJykFHExTYY6
Gq1xlw6pWDsjsTwfzUT6mpplb4FPjroGkpV0ZRKKvvA/Jkgst517nS2Z623A7k+O
pMBlwSjG0vc21R+IYaMwGAE2ZLU31EhKBcTMhzXfVjrtAcFnaS5HvZk5m4W2jtRG
kQhNT43aLvMLFcdotnFPyPADD6O0nlynKZd3ymPkK1UjTdjqK1qawYVq1N6uAq+b
QmP1ZeGjDXVaOVDfNleUmiCR3Db4eSegRpieckJQx4ESXHCvLR681OYnjLIl5crB
Av95R5Dc9/rb01mp53NbseIkwcQGDrudqvjQYoK0EjhOn5eP5ZWbl12MPSYaLvFh
OD4+edaRzx+HpTlwhmDirtUFNQDkw9MGxSb4TSdkg0BoHcg9zqVibXIrtmbjPV3K
OOed5qaVS7mtZGQDAF3uS7AXpEboui5GBbX38lx9gdozxdGo1O2cpKYeBOI+5vzW
16AGKmQE9cwYsXJMATEF8Z0W8emIEezxNpD1z9AImdj90DRnYyjgtU5Lfnhd+qkN
avL+kiLH/9ADF/9jVC6Wgb0Ygkd92hDJCmK836SV96E4GoADQd78fu/QlnWkEQQx
gAu3MaXV1YZP6gTvEdcDETGwXXD94c7g3YK67HxJ9vX6UnrBOjIqcv5ThmvIl67K
IwGyvlq79tsCAwEAAaOCAScwggEjMA4GA1UdDwEB/wQEAwIFoDAJBgNVHRMEAjAA
MB0GA1UdJQQWMBQGCCsGAQUFBwMBBggrBgEFBQcDAjAdBgNVHQ4EFgQUCsYVaBis
TWihDT+2UxSwDEoIf3kwHwYDVR0jBBgwFoAU+J4C/EoNQiHmGFxQIWhaNHkjFGUw
PQYIKwYBBQUHAQEEMTAvMC0GCCsGAQUFBzAChiFodHRwOi8vbml0cGlja3N5Lm5v
L2NhL3Rscy1jYS5jZXIwMgYDVR0fBCswKTAnoCWgI4YhaHR0cDovL25pdHBpY2tz
eS5uby9jYS90bHMtY2EuY3JsMDQGA1UdEQQtMCuCDG5pdHBpY2tzeS5ub4IQd3d3
Lm5pdHBpY2tzeS5ub4IJbG9jYWxob3N0MA0GCSqGSIb3DQEBCwUAA4ICAQBttQBn
+0El0gPx6aIdPCv7NuYB+dk/Knu2zY5QgAgjl+7ao7Rsa5IJHY7xqiT0gmKzi5Sl
Hcr55oA733OBNUatIEGlZ2a3uU00/z2c5sxXMKN616R3ZZQY0Xgy+ToMraGHiBsb
XfiQv3cDrykKk69HPkIIUXBR8fNL6RWJy5tEH6Tnzisnm+7qb9H7waq1FbKWqXzf
+4SS02iNMKFJVOVmNDiJS84PlYWeVapus19HpsYFVHv1twiHRpBIDUHA5HXFxOOT
i71jUei91OzEH4M/WNqvPnpNXBs0NQV41+Ma0ptbdUloX+mk+4tW9hsZLPNkBioJ
0TqRe9d7hdXtiyqb5Q365kSPxvHrDwoWtaoIAInPwcn6hLpnZeBN40dGCGgYyzMe
/ed6YvwvorJaM2M1b1pXTFpNqGg0PtJfAFHCiRzYWscZtGLac5WYu0n6IavJnhjI
w9lJYiKEP7SbglCvNUAIvB5TOjzM9LLPURUiNTk0PYqqbiNxRBuJ4tFNiuHg8ZnK
DaqJUC9HW2ofy4FV3IsnwBC0Vmkz5ZyU7gfySLEveOezt9SZhkBkb1Nc2VSPHlJU
MCqXDisfMU96QwXqIgAJ4SzryE6cRmM9Zq4TKU7QJYjvqfJjclhGuUJjoAAFMODn
EjkuiFCNzWtCx9bN4J0R6V8ZuRvokFq/euROCA==
-----END CERTIFICATE-----
