Certificate:
    Data:
        Version: 3 (0x2)
        Serial Number:
            03:51:55:5b:7e:6b:9a:96:ed:22:2b:17:3e:b6:b7:15:34:b4:36:14
        Signature Algorithm: sha256WithRSAEncryption
        Issuer: C=NO, O=Nitpicksy, OU=Nitpicksy Certificate Authority, CN=Nitpicksy TLS CA
        Validity
            Not Before: Dec  6 22:08:24 2020 GMT
            Not After : Dec  6 22:08:24 2022 GMT
        Subject: C=NO, O=Nitpicksy, OU=Nitpicksy Certificate Authority, CN=Bitcoin
        Subject Public Key Info:
            Public Key Algorithm: rsaEncryption
                RSA Public-Key: (4096 bit)
                Modulus:
                    00:a6:85:be:16:69:4f:58:87:01:da:f6:31:10:cf:
                    f4:e6:10:1f:b3:cf:aa:da:d4:01:b3:a8:0a:f8:08:
                    e3:20:12:f9:d5:a1:dc:03:de:61:39:ad:c2:67:c5:
                    10:b8:5d:3f:02:ea:43:5c:89:09:60:10:2e:13:62:
                    85:04:21:15:b1:27:7f:3c:cc:c6:8f:cb:d2:d2:ca:
                    17:38:42:30:75:22:f8:aa:f4:e1:4f:f1:4c:a3:3e:
                    47:d9:a9:d5:c0:4c:2e:6b:9c:e2:70:cf:6a:81:0a:
                    86:f9:08:a6:64:8e:4b:b2:4e:52:63:75:6e:6b:b0:
                    1b:6c:d2:8e:66:2b:12:7c:df:74:20:6f:ce:ac:ad:
                    14:5a:8e:0c:71:71:07:f1:e4:1b:13:c3:d0:c0:e8:
                    35:27:34:72:ea:78:29:4d:47:e8:58:07:34:f6:c1:
                    e4:31:ad:88:65:f5:d0:b4:f9:7c:98:d1:71:da:5a:
                    d2:fd:8a:92:79:ef:b0:6d:11:51:eb:cc:ca:09:ae:
                    a7:13:ca:3a:fa:00:b6:45:fc:62:ef:fd:2e:0c:2d:
                    1c:f6:d5:fa:46:9f:ea:36:00:2d:e5:a0:5f:e6:b8:
                    c6:f4:e8:4e:d9:c9:18:6b:c2:8b:1c:3a:52:67:d5:
                    96:c8:61:43:30:4c:1e:63:71:e9:4f:f3:7c:b7:e7:
                    53:09:7f:2e:7d:a6:1c:16:89:95:e1:f8:25:4a:28:
                    f8:b4:35:49:54:d6:a5:13:6c:aa:64:aa:d5:58:9f:
                    9a:f6:61:77:8b:bf:dc:65:40:df:c5:3c:1f:32:f1:
                    10:c0:b2:a8:ff:43:e4:80:37:84:00:5e:66:ea:c4:
                    df:44:08:fe:2d:b8:2e:f0:00:d1:a8:1a:46:fd:a5:
                    6a:81:fc:55:f6:dc:85:84:f1:36:20:bb:31:83:cf:
                    f5:3e:02:66:53:d7:03:92:d2:ec:81:2a:5d:03:d9:
                    62:b9:da:ae:c9:fb:66:c5:ad:0f:35:28:82:ca:77:
                    b1:d6:1e:dd:51:fc:96:36:59:79:d2:91:1c:9c:9c:
                    79:fa:57:47:ca:5c:38:e9:07:03:b9:f4:96:40:db:
                    71:b7:45:e2:99:b2:e9:aa:c8:c5:8c:9d:85:92:70:
                    d7:84:2e:94:db:b6:6e:b5:b6:e5:4a:33:f1:da:17:
                    71:a9:6b:b1:6f:07:30:83:af:4b:73:c2:4d:53:0c:
                    8f:df:5b:87:3f:da:81:1d:92:67:d0:f2:08:fc:6c:
                    1b:8f:fb:73:3a:05:42:12:eb:d8:44:14:57:d6:c1:
                    c1:0c:5d:93:87:14:7b:6b:7d:9b:4b:f3:88:a1:15:
                    49:df:91:98:cf:f0:7a:08:24:28:75:be:58:c4:46:
                    13:33:59
                Exponent: 65537 (0x10001)
        X509v3 extensions:
            X509v3 Key Usage: critical
                Digital Signature, Key Encipherment
            X509v3 Basic Constraints: 
                CA:FALSE
            X509v3 Extended Key Usage: 
                TLS Web Server Authentication, TLS Web Client Authentication
            X509v3 Subject Key Identifier: 
                99:A4:DC:C2:63:38:E3:57:1F:05:EE:29:5E:35:8B:D7:EE:A0:1B:46
            X509v3 Authority Key Identifier: 
                keyid:46:AE:F3:C6:AD:8C:3E:45:58:86:70:79:96:25:17:E1:6C:F7:16:A8

            Authority Information Access: 
                CA Issuers - URI:http://nitpicksy.no/ca/tls-ca.cer

            X509v3 CRL Distribution Points: 

                Full Name:
                  URI:http://nitpicksy.no/ca/tls-ca.crl

            X509v3 Subject Alternative Name: 
                DNS:nitpicksy.no, DNS:www.nitpicksy.no, DNS:localhost
    Signature Algorithm: sha256WithRSAEncryption
         b1:cd:bc:3c:28:02:34:79:81:f3:0a:e8:bb:f9:d7:38:ca:1f:
         2b:2e:20:fb:97:c3:4b:40:f0:9c:67:9d:2b:43:18:9d:b8:f4:
         21:7a:1c:c0:a1:a4:ec:e9:8c:6f:0c:87:df:66:be:1c:27:51:
         ce:05:1d:63:87:55:25:1f:8f:b7:e8:d8:df:a3:d6:67:b6:25:
         ca:80:82:aa:51:9f:be:e9:dc:7f:d6:3f:81:4d:31:85:2f:3b:
         01:1f:b2:f4:c4:1d:8b:27:5d:b8:cf:26:cc:a9:fd:f4:40:bf:
         48:e9:5c:3f:ad:ca:5f:7e:6f:d9:74:ea:97:1e:b0:ca:2c:32:
         5c:d4:cb:04:29:ba:0b:0b:d2:64:d6:c0:5c:b4:8c:03:e6:21:
         b1:77:b4:62:0a:45:09:89:5d:57:7b:78:82:4e:d5:b8:69:7c:
         2e:3d:f1:f5:88:a0:14:f0:88:fc:c1:15:94:31:5b:54:d3:14:
         43:25:fb:89:91:0a:a4:12:7c:e3:63:ea:19:7e:65:be:43:ec:
         7a:b2:d9:35:ac:df:5d:5d:a3:f6:6c:62:8e:c4:b2:de:f5:69:
         88:13:70:32:18:76:f9:62:a7:86:73:6f:dd:2e:49:8d:96:ae:
         1c:2e:c0:01:b3:9b:b1:5a:d8:8f:ff:ca:33:ab:9e:9e:ad:c0:
         07:00:40:70:e5:8a:62:df:19:40:99:cd:bc:cd:8b:12:84:b9:
         85:ab:4c:0d:2f:6d:e2:3a:c6:72:50:7b:82:fc:d7:e4:7d:61:
         09:d3:dc:30:fc:fa:4a:cb:dc:11:2f:76:07:b8:74:9a:c7:c4:
         5e:43:31:f2:69:59:73:e8:95:00:ed:9e:8d:c2:09:45:9b:5c:
         b4:fa:a4:91:97:7d:49:a6:ff:02:15:a3:e1:ba:3e:f9:11:24:
         c4:c6:37:80:50:29:99:3a:5a:42:3c:c9:f1:88:7c:ae:3e:82:
         a7:cb:a0:59:d1:6c:9c:21:72:46:03:7b:32:47:73:7b:f6:5c:
         24:3c:d5:49:a4:26:30:01:a6:3a:58:b4:1f:5b:29:68:7d:05:
         20:b6:8e:35:ec:c3:ad:4c:eb:91:10:8f:7b:ad:39:c0:23:c3:
         45:33:43:e3:17:7a:7f:cd:39:43:6a:85:7f:2c:5d:2c:90:77:
         1e:4a:de:48:33:d8:9a:f9:6f:48:0f:c0:ca:88:50:49:64:9e:
         44:6c:da:0c:46:e8:95:86:73:1c:33:c8:fe:b5:08:00:3f:d2:
         3c:b8:73:cd:42:64:17:db:56:7d:6f:1e:98:72:f8:83:67:35:
         cb:a2:9a:69:8a:c3:ea:00:1e:66:7e:6b:d2:3a:79:6f:54:69:
         d0:b0:f4:16:a1:94:f0:32
-----BEGIN CERTIFICATE-----
MIIGejCCBGKgAwIBAgIUA1FVW35rmpbtIisXPra3FTS0NhQwDQYJKoZIhvcNAQEL
BQAwZjELMAkGA1UEBhMCTk8xEjAQBgNVBAoMCU5pdHBpY2tzeTEoMCYGA1UECwwf
Tml0cGlja3N5IENlcnRpZmljYXRlIEF1dGhvcml0eTEZMBcGA1UEAwwQTml0cGlj
a3N5IFRMUyBDQTAeFw0yMDEyMDYyMjA4MjRaFw0yMjEyMDYyMjA4MjRaMF0xCzAJ
BgNVBAYTAk5PMRIwEAYDVQQKDAlOaXRwaWNrc3kxKDAmBgNVBAsMH05pdHBpY2tz
eSBDZXJ0aWZpY2F0ZSBBdXRob3JpdHkxEDAOBgNVBAMMB0JpdGNvaW4wggIiMA0G
CSqGSIb3DQEBAQUAA4ICDwAwggIKAoICAQCmhb4WaU9YhwHa9jEQz/TmEB+zz6ra
1AGzqAr4COMgEvnVodwD3mE5rcJnxRC4XT8C6kNciQlgEC4TYoUEIRWxJ388zMaP
y9LSyhc4QjB1Iviq9OFP8UyjPkfZqdXATC5rnOJwz2qBCob5CKZkjkuyTlJjdW5r
sBts0o5mKxJ833Qgb86srRRajgxxcQfx5BsTw9DA6DUnNHLqeClNR+hYBzT2weQx
rYhl9dC0+XyY0XHaWtL9ipJ577BtEVHrzMoJrqcTyjr6ALZF/GLv/S4MLRz21fpG
n+o2AC3loF/muMb06E7ZyRhrwoscOlJn1ZbIYUMwTB5jcelP83y351MJfy59phwW
iZXh+CVKKPi0NUlU1qUTbKpkqtVYn5r2YXeLv9xlQN/FPB8y8RDAsqj/Q+SAN4QA
XmbqxN9ECP4tuC7wANGoGkb9pWqB/FX23IWE8TYguzGDz/U+AmZT1wOS0uyBKl0D
2WK52q7J+2bFrQ81KILKd7HWHt1R/JY2WXnSkRycnHn6V0fKXDjpBwO59JZA23G3
ReKZsumqyMWMnYWScNeELpTbtm61tuVKM/HaF3Gpa7FvBzCDr0tzwk1TDI/fW4c/
2oEdkmfQ8gj8bBuP+3M6BUIS69hEFFfWwcEMXZOHFHtrfZtL84ihFUnfkZjP8HoI
JCh1vljERhMzWQIDAQABo4IBJzCCASMwDgYDVR0PAQH/BAQDAgWgMAkGA1UdEwQC
MAAwHQYDVR0lBBYwFAYIKwYBBQUHAwEGCCsGAQUFBwMCMB0GA1UdDgQWBBSZpNzC
YzjjVx8F7ileNYvX7qAbRjAfBgNVHSMEGDAWgBRGrvPGrYw+RViGcHmWJRfhbPcW
qDA9BggrBgEFBQcBAQQxMC8wLQYIKwYBBQUHMAKGIWh0dHA6Ly9uaXRwaWNrc3ku
bm8vY2EvdGxzLWNhLmNlcjAyBgNVHR8EKzApMCegJaAjhiFodHRwOi8vbml0cGlj
a3N5Lm5vL2NhL3Rscy1jYS5jcmwwNAYDVR0RBC0wK4IMbml0cGlja3N5Lm5vghB3
d3cubml0cGlja3N5Lm5vgglsb2NhbGhvc3QwDQYJKoZIhvcNAQELBQADggIBALHN
vDwoAjR5gfMK6Lv51zjKHysuIPuXw0tA8JxnnStDGJ249CF6HMChpOzpjG8Mh99m
vhwnUc4FHWOHVSUfj7fo2N+j1me2JcqAgqpRn77p3H/WP4FNMYUvOwEfsvTEHYsn
XbjPJsyp/fRAv0jpXD+tyl9+b9l06pcesMosMlzUywQpugsL0mTWwFy0jAPmIbF3
tGIKRQmJXVd7eIJO1bhpfC498fWIoBTwiPzBFZQxW1TTFEMl+4mRCqQSfONj6hl+
Zb5D7Hqy2TWs311do/ZsYo7Est71aYgTcDIYdvlip4Zzb90uSY2WrhwuwAGzm7Fa
2I//yjOrnp6twAcAQHDlimLfGUCZzbzNixKEuYWrTA0vbeI6xnJQe4L81+R9YQnT
3DD8+krL3BEvdge4dJrHxF5DMfJpWXPolQDtno3CCUWbXLT6pJGXfUmm/wIVo+G6
PvkRJMTGN4BQKZk6WkI8yfGIfK4+gqfLoFnRbJwhckYDezJHc3v2XCQ81UmkJjAB
pjpYtB9bKWh9BSC2jjXsw61M65EQj3utOcAjw0UzQ+MXen/NOUNqhX8sXSyQdx5K
3kgz2Jr5b0gPwMqIUElknkRs2gxG6JWGcxwzyP61CAA/0jy4c81CZBfbVn1vHphy
+INnNcuimmmKw+oAHmZ+a9I6eW9UadCw9BahlPAy
-----END CERTIFICATE-----
