Certificate:
    Data:
        Version: 3 (0x2)
        Serial Number:
            0a:0c:b8:34:0f:6a:56:3e:57:2b:0e:f0:a0:92:c5:65:43:48:ac:d5
        Signature Algorithm: sha256WithRSAEncryption
        Issuer: C=NO, O=Nitpicksy, OU=Nitpicksy Certificate Authority, CN=Nitpicksy TLS CA
        Validity
            Not Before: Dec  6 21:52:31 2020 GMT
            Not After : Dec  6 21:52:31 2022 GMT
        Subject: C=NO, O=Nitpicksy, OU=Nitpicksy Certificate Authority, CN=Cloud
        Subject Public Key Info:
            Public Key Algorithm: rsaEncryption
                RSA Public-Key: (4096 bit)
                Modulus:
                    00:c3:07:aa:70:64:8d:ae:4e:b2:27:95:09:a3:a4:
                    dc:c1:88:0f:5b:b0:4e:d2:b6:57:65:dd:48:97:4c:
                    c8:77:4f:1e:97:7e:83:6c:b6:3e:b9:0b:4d:8d:00:
                    1c:ff:ed:e3:8e:5e:51:9b:7e:67:2a:5c:f2:a0:c8:
                    be:d3:9a:bb:55:73:2a:2d:77:dd:28:2d:b8:b2:60:
                    f5:8d:79:7f:41:ab:25:b8:83:f1:21:38:71:95:d8:
                    c3:8d:c5:dd:72:c5:29:7e:ab:dd:2b:0a:fa:5b:c3:
                    f3:e4:24:1a:5e:4a:93:a1:14:ae:ca:f2:0a:2e:b3:
                    e5:a2:f3:b2:86:17:15:75:44:61:d9:17:9f:e9:2f:
                    60:0f:7c:5c:e5:40:39:91:90:e2:9a:d0:bb:10:98:
                    12:0c:23:b2:e6:54:22:d6:e8:0d:ad:61:1e:cc:4e:
                    14:ce:f2:79:a6:71:14:7b:40:8d:0e:21:e9:d0:18:
                    ee:96:f3:19:3c:7e:8a:7e:c0:52:54:f3:08:bb:56:
                    a6:be:26:3d:a2:fd:c5:5f:a6:5c:ad:a0:11:a0:46:
                    1b:5f:f6:2c:0b:bb:fe:02:37:9e:ab:06:08:19:1f:
                    c8:2f:36:b8:f8:0f:fb:bb:81:71:6a:b6:97:e8:08:
                    0b:83:33:c4:52:79:51:d8:b6:52:ba:7e:73:18:27:
                    b6:eb:6c:52:6b:f2:58:a8:b2:78:5e:17:94:65:4b:
                    ad:86:87:4c:6a:cd:11:b5:99:e0:53:3b:6f:aa:4f:
                    53:21:ce:7b:17:82:1d:fb:0d:83:eb:cd:a1:93:1d:
                    88:6e:19:c6:9c:d1:4c:39:b7:b9:43:63:d6:eb:0f:
                    50:c2:45:68:f2:7c:17:bb:20:20:08:53:5d:e1:17:
                    12:2c:70:7c:b0:5b:22:a9:5a:43:2a:1c:0f:fb:dd:
                    31:c3:a8:86:16:5a:40:c6:00:23:bf:33:62:4b:1b:
                    90:c2:17:7f:62:2a:ca:b7:20:f8:60:94:b1:bb:85:
                    f8:1e:67:c6:f5:5a:a4:6e:a5:7c:03:e6:65:dd:96:
                    e2:45:8d:06:2a:c2:54:a2:3a:62:18:8a:83:5e:c8:
                    b7:3d:99:a3:bf:d8:b1:f8:b6:f2:57:17:15:d8:d1:
                    54:7f:ad:46:ff:e2:2a:5c:ea:03:63:64:18:6d:b7:
                    3f:90:8f:da:11:42:41:8f:57:6b:59:e2:25:b3:5b:
                    88:18:8c:7a:ad:9a:a1:3f:35:95:45:35:48:60:93:
                    14:dd:a2:73:d1:30:e4:64:b8:10:f2:0c:7e:90:d0:
                    53:c1:51:10:15:49:a3:23:2e:c3:23:4a:9a:d1:99:
                    b0:36:fb:7c:20:7c:d6:e2:73:33:67:5a:43:45:e6:
                    58:1a:29
                Exponent: 65537 (0x10001)
        X509v3 extensions:
            X509v3 Key Usage: critical
                Digital Signature, Key Encipherment
            X509v3 Basic Constraints: 
                CA:FALSE
            X509v3 Extended Key Usage: 
                TLS Web Server Authentication, TLS Web Client Authentication
            X509v3 Subject Key Identifier: 
                3F:5A:14:56:C5:10:D8:D7:8E:A3:FF:A4:AF:25:6E:A6:55:EB:8E:96
            X509v3 Authority Key Identifier: 
                keyid:D7:D7:89:7B:D0:D8:5C:D5:C9:27:4E:98:7C:EE:76:73:F6:EB:7E:DB

            Authority Information Access: 
                CA Issuers - URI:http://nitpicksy.no/ca/tls-ca.cer

            X509v3 CRL Distribution Points: 

                Full Name:
                  URI:http://nitpicksy.no/ca/tls-ca.crl

            X509v3 Subject Alternative Name: 
                DNS:nitpicksy.no, DNS:www.nitpicksy.no, DNS:localhost
    Signature Algorithm: sha256WithRSAEncryption
         32:d6:21:80:e0:b4:37:2f:ab:2d:16:7d:03:d6:94:fe:d9:3d:
         be:64:9e:ed:6c:e7:f9:0f:31:f8:a7:6b:a4:2a:49:82:40:c1:
         77:75:bd:91:af:26:ae:99:18:b4:9c:04:75:3b:8b:be:81:c4:
         58:26:7c:29:ca:00:8a:ed:59:8a:2d:52:bd:2f:49:50:b9:92:
         b1:6c:bd:0f:d1:c5:40:12:a8:3c:7a:68:c7:7d:3d:bc:2b:c9:
         9d:26:12:c1:6b:f0:8c:65:85:fb:01:a5:53:80:8a:63:88:74:
         1f:d9:db:77:3f:a3:4b:7c:66:45:4c:56:3d:aa:c2:13:98:30:
         97:cc:50:56:c8:d8:be:22:19:87:b9:44:2b:15:0b:27:db:69:
         7f:c6:fb:c1:4b:06:0a:12:a6:a7:b5:e3:4e:f4:1a:5f:cd:b6:
         c4:e6:3d:aa:0f:b7:39:5f:68:81:b6:0c:5b:38:98:33:ad:7d:
         32:bb:32:49:ae:f2:52:3c:69:f5:40:8b:15:2a:a9:78:c1:5a:
         e0:95:a5:46:9a:e6:e5:70:29:95:e0:7f:ef:35:3e:94:15:e1:
         1d:ee:c1:86:1b:3e:3d:d5:04:de:cd:b8:55:7e:30:c4:6f:88:
         94:9f:67:59:cc:86:5c:21:4b:c9:c6:fb:1a:cb:55:fe:48:8c:
         47:01:ac:e5:eb:53:55:5f:63:66:bf:cd:1e:8f:78:c1:0a:fe:
         fc:2f:c1:35:49:ee:38:8b:74:04:d3:d5:44:75:8c:d6:e9:44:
         89:11:e1:07:54:26:86:d4:47:9d:b0:f4:5b:04:87:69:ad:ff:
         47:b5:ba:9e:88:fd:6e:37:95:de:c7:b8:16:ad:89:b5:b2:83:
         1f:d3:87:6a:92:3d:21:2c:e0:1d:15:40:0b:84:04:8c:4b:04:
         ba:03:e2:56:fd:d0:5e:8b:ea:ff:ca:61:3b:a9:02:a7:97:2d:
         34:6b:6a:ca:9c:90:9d:23:c1:d1:9a:ba:63:34:1e:33:87:a2:
         08:f8:b9:98:4c:ee:f1:91:e4:87:58:45:3f:1d:2a:a2:ab:64:
         23:63:64:c9:df:a8:b8:0d:20:3f:62:11:e2:12:3a:02:f1:94:
         75:5e:2d:70:e5:df:78:ee:6d:56:f0:8e:05:96:a9:5f:e5:05:
         36:2e:65:56:16:d4:72:66:0d:6f:5c:78:20:c8:0c:e5:4e:23:
         02:51:ec:6f:c3:69:f6:2f:ea:1c:a7:3b:8d:cf:8d:26:2c:e2:
         10:73:75:7a:fe:5e:36:5b:98:53:b5:ed:0c:b1:bf:f7:5a:b1:
         88:75:40:a6:51:12:96:96:eb:c9:49:87:88:a3:29:91:a1:67:
         b3:b2:73:26:e6:7e:76:da
-----BEGIN CERTIFICATE-----
MIIGeDCCBGCgAwIBAgIUCgy4NA9qVj5XKw7woJLFZUNIrNUwDQYJKoZIhvcNAQEL
BQAwZjELMAkGA1UEBhMCTk8xEjAQBgNVBAoMCU5pdHBpY2tzeTEoMCYGA1UECwwf
Tml0cGlja3N5IENlcnRpZmljYXRlIEF1dGhvcml0eTEZMBcGA1UEAwwQTml0cGlj
a3N5IFRMUyBDQTAeFw0yMDEyMDYyMTUyMzFaFw0yMjEyMDYyMTUyMzFaMFsxCzAJ
BgNVBAYTAk5PMRIwEAYDVQQKDAlOaXRwaWNrc3kxKDAmBgNVBAsMH05pdHBpY2tz
eSBDZXJ0aWZpY2F0ZSBBdXRob3JpdHkxDjAMBgNVBAMMBUNsb3VkMIICIjANBgkq
hkiG9w0BAQEFAAOCAg8AMIICCgKCAgEAwweqcGSNrk6yJ5UJo6TcwYgPW7BO0rZX
Zd1Il0zId08el36DbLY+uQtNjQAc/+3jjl5Rm35nKlzyoMi+05q7VXMqLXfdKC24
smD1jXl/QasluIPxIThxldjDjcXdcsUpfqvdKwr6W8Pz5CQaXkqToRSuyvIKLrPl
ovOyhhcVdURh2Ref6S9gD3xc5UA5kZDimtC7EJgSDCOy5lQi1ugNrWEezE4UzvJ5
pnEUe0CNDiHp0BjulvMZPH6KfsBSVPMIu1amviY9ov3FX6ZcraARoEYbX/YsC7v+
AjeeqwYIGR/ILza4+A/7u4FxaraX6AgLgzPEUnlR2LZSun5zGCe262xSa/JYqLJ4
XheUZUuthodMas0RtZngUztvqk9TIc57F4Id+w2D682hkx2IbhnGnNFMObe5Q2PW
6w9QwkVo8nwXuyAgCFNd4RcSLHB8sFsiqVpDKhwP+90xw6iGFlpAxgAjvzNiSxuQ
whd/YirKtyD4YJSxu4X4HmfG9VqkbqV8A+Zl3ZbiRY0GKsJUojpiGIqDXsi3PZmj
v9ix+LbyVxcV2NFUf61G/+IqXOoDY2QYbbc/kI/aEUJBj1drWeIls1uIGIx6rZqh
PzWVRTVIYJMU3aJz0TDkZLgQ8gx+kNBTwVEQFUmjIy7DI0qa0ZmwNvt8IHzW4nMz
Z1pDReZYGikCAwEAAaOCAScwggEjMA4GA1UdDwEB/wQEAwIFoDAJBgNVHRMEAjAA
MB0GA1UdJQQWMBQGCCsGAQUFBwMBBggrBgEFBQcDAjAdBgNVHQ4EFgQUP1oUVsUQ
2NeOo/+kryVuplXrjpYwHwYDVR0jBBgwFoAU19eJe9DYXNXJJ06YfO52c/brftsw
PQYIKwYBBQUHAQEEMTAvMC0GCCsGAQUFBzAChiFodHRwOi8vbml0cGlja3N5Lm5v
L2NhL3Rscy1jYS5jZXIwMgYDVR0fBCswKTAnoCWgI4YhaHR0cDovL25pdHBpY2tz
eS5uby9jYS90bHMtY2EuY3JsMDQGA1UdEQQtMCuCDG5pdHBpY2tzeS5ub4IQd3d3
Lm5pdHBpY2tzeS5ub4IJbG9jYWxob3N0MA0GCSqGSIb3DQEBCwUAA4ICAQAy1iGA
4LQ3L6stFn0D1pT+2T2+ZJ7tbOf5DzH4p2ukKkmCQMF3db2RryaumRi0nAR1O4u+
gcRYJnwpygCK7VmKLVK9L0lQuZKxbL0P0cVAEqg8emjHfT28K8mdJhLBa/CMZYX7
AaVTgIpjiHQf2dt3P6NLfGZFTFY9qsITmDCXzFBWyNi+IhmHuUQrFQsn22l/xvvB
SwYKEqanteNO9BpfzbbE5j2qD7c5X2iBtgxbOJgzrX0yuzJJrvJSPGn1QIsVKql4
wVrglaVGmublcCmV4H/vNT6UFeEd7sGGGz491QTezbhVfjDEb4iUn2dZzIZcIUvJ
xvsay1X+SIxHAazl61NVX2Nmv80ej3jBCv78L8E1Se44i3QE09VEdYzW6USJEeEH
VCaG1EedsPRbBIdprf9HtbqeiP1uN5Xex7gWrYm1soMf04dqkj0hLOAdFUALhASM
SwS6A+JW/dBei+r/ymE7qQKnly00a2rKnJCdI8HRmrpjNB4zh6II+LmYTO7xkeSH
WEU/HSqiq2QjY2TJ36i4DSA/YhHiEjoC8ZR1Xi1w5d947m1W8I4Flqlf5QU2LmVW
FtRyZg1vXHggyAzlTiMCUexvw2n2L+ocpzuNz40mLOIQc3V6/l42W5hTte0Msb/3
WrGIdUCmURKWluvJSYeIoymRoWezsnMm5n522g==
-----END CERTIFICATE-----
