Certificate:
    Data:
        Version: 3 (0x2)
        Serial Number:
            0a:e9:4f:aa:22:7d:97:f8:48:95:6f:72:94:25:c3:0e:38:4a:57:ba
        Signature Algorithm: sha256WithRSAEncryption
        Issuer: C=NO, O=Nitpicksy, OU=Nitpicksy Certificate Authority, CN=Nitpicksy TLS CA
        Validity
            Not Before: Dec  6 22:20:06 2020 GMT
            Not After : Dec  6 22:20:06 2022 GMT
        Subject: C=NO, O=Nitpicksy, OU=Nitpicksy Certificate Authority, CN=Bank
        Subject Public Key Info:
            Public Key Algorithm: rsaEncryption
                RSA Public-Key: (4096 bit)
                Modulus:
                    00:e1:3f:3c:c3:33:b7:8f:99:b8:3f:41:7f:8b:55:
                    9d:5d:81:e6:78:2f:93:05:10:9a:fc:3f:97:a7:cd:
                    3a:cb:05:33:cb:f2:1c:c4:8b:b4:29:95:e5:9f:df:
                    c0:9d:5d:79:7e:5c:0a:af:5a:a3:74:c3:aa:f7:86:
                    e1:7e:b0:9c:fe:b6:3a:29:2d:a3:82:c5:29:9a:b0:
                    86:ae:5f:88:20:8a:77:dd:d7:ed:7d:df:57:90:02:
                    72:b4:16:e5:ca:5f:e6:df:87:ec:27:ab:ff:7e:41:
                    8a:48:27:45:fa:4a:1c:c5:c9:28:eb:bb:e9:91:be:
                    a2:a4:1e:cd:a8:31:2e:71:85:77:aa:7d:53:6b:3f:
                    e5:70:4c:ba:1c:00:de:9c:fd:16:32:1f:0f:be:27:
                    1c:fc:b1:b0:22:7e:12:f9:85:01:3a:1a:23:a3:60:
                    4f:f4:d4:8f:1e:d4:7c:72:fb:f0:75:31:d2:6b:9c:
                    a6:03:01:0c:3f:ba:1a:30:17:c5:54:ab:8c:ff:9e:
                    b5:7d:4a:11:47:59:8b:bb:0b:9c:a5:e8:da:22:4b:
                    e8:90:c8:3b:71:7e:88:0c:8c:57:14:58:cc:e0:12:
                    7e:aa:2e:6a:45:d5:df:f3:8a:63:01:7a:c1:a2:e9:
                    44:e9:6d:a0:3a:23:c7:81:1e:a0:b6:c1:95:58:88:
                    66:03:8c:85:23:f1:38:ab:4f:19:41:6b:5e:85:fe:
                    e8:05:41:bf:67:3b:de:91:5d:52:1d:2e:9c:42:1e:
                    db:05:13:b3:3c:cd:04:00:1a:b2:54:4a:4b:99:4b:
                    37:04:d1:81:b9:16:ad:a4:7c:21:c9:24:4c:64:f6:
                    e2:c8:46:95:00:ea:be:b0:e8:cc:71:8b:61:9e:6f:
                    d9:ec:58:3c:8b:bc:e4:eb:bf:00:68:af:4f:48:ed:
                    14:33:80:ce:9c:7a:83:fd:4a:b3:56:42:25:c7:32:
                    70:d0:7d:8c:23:06:cf:f0:4a:25:7c:38:b6:23:42:
                    1c:57:39:19:9b:23:89:41:b9:71:e7:68:90:79:58:
                    f8:51:b8:37:aa:f4:65:cf:f2:92:77:87:ea:d2:d8:
                    61:2e:e6:6e:52:0a:29:c6:cd:de:c8:a3:b6:45:8d:
                    7c:7e:92:47:17:8f:db:f4:ce:a1:68:b2:2f:c2:0a:
                    cf:8e:13:95:72:67:d9:cc:35:49:32:4f:0e:dc:b7:
                    d1:e1:78:50:16:2e:83:e7:71:74:40:3a:f6:93:6b:
                    39:b4:9a:f6:05:70:67:68:78:64:ac:f2:bf:82:6b:
                    24:d4:d2:4b:e2:67:5c:fd:fc:32:f6:7e:9a:3b:e5:
                    e7:ba:c9:a4:79:cf:56:a1:bc:fe:b9:6a:46:94:ff:
                    0b:06:3f
                Exponent: 65537 (0x10001)
        X509v3 extensions:
            X509v3 Key Usage: critical
                Digital Signature, Key Encipherment
            X509v3 Basic Constraints: 
                CA:FALSE
            X509v3 Extended Key Usage: 
                TLS Web Server Authentication, TLS Web Client Authentication
            X509v3 Subject Key Identifier: 
                FA:B3:D6:E1:E3:0C:8C:9C:6B:59:A6:62:5E:0E:A3:A8:99:E6:61:3A
            X509v3 Authority Key Identifier: 
                keyid:52:53:5F:DA:76:E1:0A:7D:73:AE:D0:12:45:72:13:C1:30:4F:4E:39

            Authority Information Access: 
                CA Issuers - URI:http://nitpicksy.no/ca/tls-ca.cer

            X509v3 CRL Distribution Points: 

                Full Name:
                  URI:http://nitpicksy.no/ca/tls-ca.crl

            X509v3 Subject Alternative Name: 
                DNS:nitpicksy.no, DNS:www.nitpicksy.no, DNS:localhost
    Signature Algorithm: sha256WithRSAEncryption
         6f:89:46:38:6b:56:b7:9f:ef:fe:bd:a9:5e:a9:c2:f4:0b:62:
         64:9c:fa:fc:aa:fe:5e:09:25:98:27:46:88:33:7e:15:de:5e:
         80:79:d6:30:cb:46:84:b5:08:48:b9:e0:d5:55:88:86:ab:c0:
         27:15:83:c9:ff:5c:b0:0b:6e:75:64:a7:a4:c4:c9:ed:cc:c4:
         af:d2:35:66:3c:b3:60:f6:48:5e:25:1b:8c:61:64:27:80:23:
         d5:40:60:c9:b0:21:01:26:ac:e9:30:49:7a:f8:75:1d:1e:4d:
         32:a8:c1:a4:28:40:af:77:c8:7c:55:cf:5f:96:11:7c:f1:83:
         92:dd:c7:5f:d0:23:5a:a2:28:23:aa:0c:ed:13:ec:53:4d:41:
         bd:95:15:49:2b:92:f1:b2:ac:b5:84:a5:05:96:2e:a4:b4:98:
         31:c8:57:d6:76:45:c2:1b:ac:c2:f3:ba:4b:fa:b7:06:6e:b0:
         c7:bb:7d:36:b1:3b:ba:db:84:43:47:7b:67:01:67:5f:34:1b:
         13:6f:ae:ae:72:df:45:65:12:9d:57:89:bb:a3:46:fc:4e:f4:
         06:77:a6:4f:c1:7d:dd:e8:ae:76:b4:a5:eb:13:8e:db:29:21:
         f9:f0:fc:67:1e:2c:74:ce:a2:bb:a0:96:75:17:6f:0b:ea:41:
         0c:70:26:c1:15:6c:11:c4:7b:10:54:76:e7:1c:6f:d7:7f:41:
         4e:26:57:4b:80:e5:4d:a0:35:87:2b:04:55:dd:37:5b:a9:22:
         a9:36:ee:f6:7c:55:25:67:fd:de:88:2a:4a:f4:47:9e:75:e9:
         8f:e0:80:d1:cd:d2:f5:47:19:4b:08:91:11:ba:6c:bc:64:64:
         5a:8e:d6:da:ff:cf:dc:f8:7d:0d:d9:5f:34:1b:71:42:3b:8f:
         ed:68:d8:eb:8a:d5:61:ac:ce:e6:ed:8c:9b:89:fe:13:b1:4a:
         62:c4:bc:1c:bf:59:40:4f:19:1a:39:65:a8:bc:85:c5:46:fb:
         bf:49:eb:3d:c8:b6:d5:0a:de:e1:1e:2b:e6:ed:90:54:21:c4:
         80:57:82:45:fc:26:b8:96:c4:cf:7a:4a:2a:38:be:6e:1a:76:
         53:29:51:c6:a5:91:00:12:28:37:b1:57:4d:7f:58:90:27:6e:
         6e:64:94:74:a9:0f:8a:43:c7:64:90:8a:08:8f:81:46:22:24:
         1c:ad:c0:b2:5f:d9:be:5c:69:2d:87:a3:3d:01:68:ba:b4:a5:
         19:4b:60:01:1e:34:d5:80:74:9d:b9:69:9d:16:15:f9:f8:cf:
         8c:7b:e9:b8:f5:e0:f1:7c:da:f0:1d:39:15:8e:51:6f:6a:0b:
         61:c2:db:f0:02:5a:47:78
-----BEGIN CERTIFICATE-----
MIIGdzCCBF+gAwIBAgIUCulPqiJ9l/hIlW9ylCXDDjhKV7owDQYJKoZIhvcNAQEL
BQAwZjELMAkGA1UEBhMCTk8xEjAQBgNVBAoMCU5pdHBpY2tzeTEoMCYGA1UECwwf
Tml0cGlja3N5IENlcnRpZmljYXRlIEF1dGhvcml0eTEZMBcGA1UEAwwQTml0cGlj
a3N5IFRMUyBDQTAeFw0yMDEyMDYyMjIwMDZaFw0yMjEyMDYyMjIwMDZaMFoxCzAJ
BgNVBAYTAk5PMRIwEAYDVQQKDAlOaXRwaWNrc3kxKDAmBgNVBAsMH05pdHBpY2tz
eSBDZXJ0aWZpY2F0ZSBBdXRob3JpdHkxDTALBgNVBAMMBEJhbmswggIiMA0GCSqG
SIb3DQEBAQUAA4ICDwAwggIKAoICAQDhPzzDM7ePmbg/QX+LVZ1dgeZ4L5MFEJr8
P5enzTrLBTPL8hzEi7QpleWf38CdXXl+XAqvWqN0w6r3huF+sJz+tjopLaOCxSma
sIauX4gginfd1+1931eQAnK0FuXKX+bfh+wnq/9+QYpIJ0X6ShzFySjru+mRvqKk
Hs2oMS5xhXeqfVNrP+VwTLocAN6c/RYyHw++Jxz8sbAifhL5hQE6GiOjYE/01I8e
1Hxy+/B1MdJrnKYDAQw/uhowF8VUq4z/nrV9ShFHWYu7C5yl6NoiS+iQyDtxfogM
jFcUWMzgEn6qLmpF1d/zimMBesGi6UTpbaA6I8eBHqC2wZVYiGYDjIUj8TirTxlB
a16F/ugFQb9nO96RXVIdLpxCHtsFE7M8zQQAGrJUSkuZSzcE0YG5Fq2kfCHJJExk
9uLIRpUA6r6w6Mxxi2Geb9nsWDyLvOTrvwBor09I7RQzgM6ceoP9SrNWQiXHMnDQ
fYwjBs/wSiV8OLYjQhxXORmbI4lBuXHnaJB5WPhRuDeq9GXP8pJ3h+rS2GEu5m5S
CinGzd7Io7ZFjXx+kkcXj9v0zqFosi/CCs+OE5VyZ9nMNUkyTw7ct9HheFAWLoPn
cXRAOvaTazm0mvYFcGdoeGSs8r+CayTU0kviZ1z9/DL2fpo75ee6yaR5z1ahvP65
akaU/wsGPwIDAQABo4IBJzCCASMwDgYDVR0PAQH/BAQDAgWgMAkGA1UdEwQCMAAw
HQYDVR0lBBYwFAYIKwYBBQUHAwEGCCsGAQUFBwMCMB0GA1UdDgQWBBT6s9bh4wyM
nGtZpmJeDqOomeZhOjAfBgNVHSMEGDAWgBRSU1/aduEKfXOu0BJFchPBME9OOTA9
BggrBgEFBQcBAQQxMC8wLQYIKwYBBQUHMAKGIWh0dHA6Ly9uaXRwaWNrc3kubm8v
Y2EvdGxzLWNhLmNlcjAyBgNVHR8EKzApMCegJaAjhiFodHRwOi8vbml0cGlja3N5
Lm5vL2NhL3Rscy1jYS5jcmwwNAYDVR0RBC0wK4IMbml0cGlja3N5Lm5vghB3d3cu
bml0cGlja3N5Lm5vgglsb2NhbGhvc3QwDQYJKoZIhvcNAQELBQADggIBAG+JRjhr
Vref7/69qV6pwvQLYmSc+vyq/l4JJZgnRogzfhXeXoB51jDLRoS1CEi54NVViIar
wCcVg8n/XLALbnVkp6TEye3MxK/SNWY8s2D2SF4lG4xhZCeAI9VAYMmwIQEmrOkw
SXr4dR0eTTKowaQoQK93yHxVz1+WEXzxg5Ldx1/QI1qiKCOqDO0T7FNNQb2VFUkr
kvGyrLWEpQWWLqS0mDHIV9Z2RcIbrMLzukv6twZusMe7fTaxO7rbhENHe2cBZ180
GxNvrq5y30VlEp1XibujRvxO9AZ3pk/Bfd3orna0pesTjtspIfnw/GceLHTOorug
lnUXbwvqQQxwJsEVbBHEexBUduccb9d/QU4mV0uA5U2gNYcrBFXdN1upIqk27vZ8
VSVn/d6IKkr0R5516Y/ggNHN0vVHGUsIkRG6bLxkZFqO1tr/z9z4fQ3ZXzQbcUI7
j+1o2OuK1WGszubtjJuJ/hOxSmLEvBy/WUBPGRo5Zai8hcVG+79J6z3IttUK3uEe
K+btkFQhxIBXgkX8JriWxM96Sio4vm4adlMpUcalkQASKDexV01/WJAnbm5klHSp
D4pDx2SQigiPgUYiJBytwLJf2b5caS2Hoz0BaLq0pRlLYAEeNNWAdJ25aZ0WFfn4
z4x76bj14PF82vAdORWOUW9qC2HC2/ACWkd4
-----END CERTIFICATE-----
