Certificate:
    Data:
        Version: 3 (0x2)
        Serial Number:
            0b:46:12:e4:ae:96:ca:e3:cd:eb:89:ea:dc:6b:03:85:86:58:d6:50
        Signature Algorithm: sha256WithRSAEncryption
        Issuer: C=NO, O=Nitpicksy, OU=Nitpicksy Certificate Authority, CN=Nitpicksy TLS CA
        Validity
            Not Before: Dec  6 21:52:31 2020 GMT
            Not After : Dec  6 21:52:31 2022 GMT
        Subject: C=NO, O=Nitpicksy Client AS, OU=Nitpicksy Certificate Authority, CN=Nitpicksy Client
        Subject Public Key Info:
            Public Key Algorithm: rsaEncryption
                RSA Public-Key: (4096 bit)
                Modulus:
                    00:d7:6b:21:5b:0b:e2:ea:40:e2:0c:ca:30:38:e7:
                    d4:e0:fe:f9:1b:0f:d0:41:e8:26:e2:b6:0f:19:f1:
                    c6:09:f9:b1:0a:0f:4a:ce:3f:d6:cf:dd:f2:6b:f3:
                    a2:be:e2:ea:1d:d9:13:b9:ff:47:d4:17:15:5e:ac:
                    af:72:c4:b8:63:30:78:ed:a0:7c:96:bf:91:80:8c:
                    20:0a:14:02:9d:4b:bb:8b:ae:07:a7:87:d5:2b:11:
                    41:21:1a:28:ab:29:09:95:77:54:4b:4b:c5:af:52:
                    69:43:4d:e7:1f:f1:c7:6a:01:b9:67:5d:cd:0c:d1:
                    b4:d7:bf:5b:95:83:52:2d:12:6e:87:17:07:7e:bd:
                    d8:99:0c:ba:15:a1:7b:97:5d:b2:06:10:f3:59:9a:
                    b2:5a:6f:dc:88:ed:38:4c:7e:ae:e6:4a:aa:a4:84:
                    d3:fb:92:e0:d9:31:c5:c8:90:59:e6:34:c7:50:03:
                    40:99:09:3e:cd:15:4e:d2:5e:11:9d:8e:df:1a:f1:
                    08:4d:91:e8:1e:45:08:a6:c0:a3:42:2f:ac:9f:e6:
                    2a:be:36:77:28:6a:14:77:6d:94:08:a9:dc:ba:54:
                    cd:11:be:97:16:aa:77:70:ff:ab:f0:e1:ef:f1:75:
                    51:a9:7e:4c:54:7e:87:da:08:c8:06:a4:e6:f9:c3:
                    c8:ef:1b:25:86:74:b3:99:4f:9f:83:6b:fe:25:83:
                    15:6a:aa:73:4e:98:77:4b:a8:1a:9f:a4:c6:de:a3:
                    bc:e7:a0:aa:a3:37:85:c0:e9:3e:17:e4:83:e9:28:
                    df:ad:5b:af:75:cc:aa:dd:b3:31:f3:96:0a:54:38:
                    a0:bd:63:b1:a8:11:2e:12:c9:ef:b5:39:7c:d9:09:
                    35:9e:c4:f8:20:67:06:aa:00:91:93:a5:16:df:78:
                    b2:9b:00:cd:59:f0:42:1c:b6:d4:f2:4c:15:28:63:
                    72:3f:c3:a6:71:5c:ec:1e:47:e3:b9:b1:e6:fa:f7:
                    ae:1f:cc:e1:91:a0:e7:19:e4:75:b1:ba:5a:63:c1:
                    e6:61:a4:15:2f:5c:99:84:55:b8:62:3c:40:c1:5e:
                    c1:ff:8e:95:0e:a1:b4:00:58:ec:84:b1:1b:76:a6:
                    45:14:af:9a:c5:15:e7:09:65:a5:b0:10:8d:e8:7e:
                    f6:e9:9c:a5:d2:ce:fd:29:c3:fd:71:cc:28:eb:a8:
                    ef:6a:b9:b2:71:68:20:b9:d6:a5:94:95:63:e9:22:
                    40:09:7a:26:f9:9c:c9:0b:54:4c:14:a8:2a:61:b7:
                    87:f9:cf:1d:20:fd:02:d9:1f:76:a9:8c:95:11:97:
                    c4:24:4f:3f:46:52:02:90:71:1c:44:4a:d7:64:7b:
                    71:17:99
                Exponent: 65537 (0x10001)
        X509v3 extensions:
            X509v3 Key Usage: critical
                Digital Signature
            X509v3 Basic Constraints: 
                CA:FALSE
            X509v3 Extended Key Usage: 
                TLS Web Client Authentication
            X509v3 Subject Key Identifier: 
                05:6A:C9:04:23:51:B6:A0:F5:B9:87:88:1F:12:6B:12:92:57:7C:75
            X509v3 Authority Key Identifier: 
                keyid:D7:D7:89:7B:D0:D8:5C:D5:C9:27:4E:98:7C:EE:76:73:F6:EB:7E:DB

            Authority Information Access: 
                CA Issuers - URI:http://nitpicksy.no/ca/tls-ca.cer

            X509v3 CRL Distribution Points: 

                Full Name:
                  URI:http://nitpicksy.no/ca/tls-ca.crl

    Signature Algorithm: sha256WithRSAEncryption
         77:97:73:31:a5:71:c0:30:c3:6e:76:b6:82:36:94:2d:56:c2:
         4d:ad:9d:ef:fd:c7:ba:d8:2d:40:cd:d0:cf:c0:fd:eb:0d:22:
         09:d5:35:15:5b:dc:64:97:1e:97:af:8e:ab:69:9a:ee:e4:0b:
         89:5b:ed:8f:4f:af:32:c5:a8:9c:29:7d:d1:20:1f:fa:cf:b0:
         36:26:9d:36:45:7c:e4:db:63:54:3f:52:64:91:e6:25:2a:d1:
         60:3c:25:0d:3f:62:90:3d:51:6c:1e:1a:91:87:da:be:ab:0b:
         72:4a:d2:fe:6d:2a:9f:24:9f:7e:d1:3f:b3:81:bc:25:5c:21:
         1a:0b:d4:6e:e1:ad:f5:a7:26:d4:1b:f4:e7:6a:58:97:e6:e9:
         48:b0:9a:25:6b:c7:f8:7b:b2:c9:a3:8c:bb:cc:63:db:8b:6d:
         ab:3c:e3:6a:cd:e2:42:57:d9:f6:12:9d:80:23:aa:0e:74:a4:
         df:c0:5d:c7:ae:b0:44:6d:5e:35:e0:8d:e3:b6:eb:bf:65:11:
         67:ce:68:12:30:13:78:d1:36:44:38:13:e9:fe:f5:2e:ee:e9:
         9d:c0:ba:8c:23:0c:c0:80:19:74:86:13:66:92:60:da:2b:0b:
         5e:8d:48:f4:8a:94:fb:70:c5:be:60:b0:62:68:d3:8e:d3:c0:
         25:22:db:6d:c6:c1:c6:03:57:eb:ee:06:7a:76:2b:9a:1e:74:
         20:55:0d:4b:fe:80:4f:2e:be:fc:95:c8:f4:ae:b9:71:ec:75:
         28:e4:75:b5:16:68:b5:da:07:c3:62:3d:ac:70:36:49:59:18:
         64:64:7a:3f:d3:38:58:79:f6:80:8c:9d:0d:ac:c4:f2:ef:61:
         b4:ae:1f:28:4a:b2:2d:06:5a:45:5b:d4:98:9a:ba:23:b3:c7:
         51:dd:d1:7c:0d:47:b4:27:07:ff:78:e7:5a:e6:22:b3:40:57:
         f5:33:a9:14:85:f5:16:83:1a:8d:45:4a:7b:96:09:e1:97:31:
         6e:6d:19:f9:44:ae:a6:84:f0:ed:f8:b6:10:4d:e3:3d:18:52:
         6d:a2:1a:39:90:29:e1:78:61:86:fe:29:16:26:2d:65:47:cc:
         53:98:e9:d6:9a:6a:1e:6a:73:6f:86:27:1b:61:5a:40:88:31:
         1e:dd:a6:cd:6d:57:c4:b3:b6:76:3b:71:77:ee:b3:af:84:ac:
         92:51:d2:35:fd:98:b8:e1:77:7b:6a:dc:3e:4f:1c:cf:23:d8:
         7a:44:5d:6e:82:77:d3:5d:57:c4:06:d1:f2:5b:58:5a:59:1b:
         4e:4c:94:a5:67:e1:be:c3:a6:8f:2c:e2:8b:3d:84:75:31:16:
         57:eb:ec:4e:9a:90:f5:45
-----BEGIN CERTIFICATE-----
MIIGSzCCBDOgAwIBAgIUC0YS5K6WyuPN64nq3GsDhYZY1lAwDQYJKoZIhvcNAQEL
BQAwZjELMAkGA1UEBhMCTk8xEjAQBgNVBAoMCU5pdHBpY2tzeTEoMCYGA1UECwwf
Tml0cGlja3N5IENlcnRpZmljYXRlIEF1dGhvcml0eTEZMBcGA1UEAwwQTml0cGlj
a3N5IFRMUyBDQTAeFw0yMDEyMDYyMTUyMzFaFw0yMjEyMDYyMTUyMzFaMHAxCzAJ
BgNVBAYTAk5PMRwwGgYDVQQKDBNOaXRwaWNrc3kgQ2xpZW50IEFTMSgwJgYDVQQL
DB9OaXRwaWNrc3kgQ2VydGlmaWNhdGUgQXV0aG9yaXR5MRkwFwYDVQQDDBBOaXRw
aWNrc3kgQ2xpZW50MIICIjANBgkqhkiG9w0BAQEFAAOCAg8AMIICCgKCAgEA12sh
Wwvi6kDiDMowOOfU4P75Gw/QQegm4rYPGfHGCfmxCg9Kzj/Wz93ya/OivuLqHdkT
uf9H1BcVXqyvcsS4YzB47aB8lr+RgIwgChQCnUu7i64Hp4fVKxFBIRooqykJlXdU
S0vFr1JpQ03nH/HHagG5Z13NDNG0179blYNSLRJuhxcHfr3YmQy6FaF7l12yBhDz
WZqyWm/ciO04TH6u5kqqpITT+5Lg2THFyJBZ5jTHUANAmQk+zRVO0l4RnY7fGvEI
TZHoHkUIpsCjQi+sn+YqvjZ3KGoUd22UCKnculTNEb6XFqp3cP+r8OHv8XVRqX5M
VH6H2gjIBqTm+cPI7xslhnSzmU+fg2v+JYMVaqpzTph3S6gan6TG3qO856CqozeF
wOk+F+SD6SjfrVuvdcyq3bMx85YKVDigvWOxqBEuEsnvtTl82Qk1nsT4IGcGqgCR
k6UW33iymwDNWfBCHLbU8kwVKGNyP8OmcVzsHkfjubHm+veuH8zhkaDnGeR1sbpa
Y8HmYaQVL1yZhFW4YjxAwV7B/46VDqG0AFjshLEbdqZFFK+axRXnCWWlsBCN6H72
6Zyl0s79KcP9ccwo66jvarmycWggudallJVj6SJACXom+ZzJC1RMFKgqYbeH+c8d
IP0C2R92qYyVEZfEJE8/RlICkHEcRErXZHtxF5kCAwEAAaOB5jCB4zAOBgNVHQ8B
Af8EBAMCB4AwCQYDVR0TBAIwADATBgNVHSUEDDAKBggrBgEFBQcDAjAdBgNVHQ4E
FgQUBWrJBCNRtqD1uYeIHxJrEpJXfHUwHwYDVR0jBBgwFoAU19eJe9DYXNXJJ06Y
fO52c/brftswPQYIKwYBBQUHAQEEMTAvMC0GCCsGAQUFBzAChiFodHRwOi8vbml0
cGlja3N5Lm5vL2NhL3Rscy1jYS5jZXIwMgYDVR0fBCswKTAnoCWgI4YhaHR0cDov
L25pdHBpY2tzeS5uby9jYS90bHMtY2EuY3JsMA0GCSqGSIb3DQEBCwUAA4ICAQB3
l3MxpXHAMMNudraCNpQtVsJNrZ3v/ce62C1AzdDPwP3rDSIJ1TUVW9xklx6Xr46r
aZru5AuJW+2PT68yxaicKX3RIB/6z7A2Jp02RXzk22NUP1JkkeYlKtFgPCUNP2KQ
PVFsHhqRh9q+qwtyStL+bSqfJJ9+0T+zgbwlXCEaC9Ru4a31pybUG/TnaliX5ulI
sJola8f4e7LJo4y7zGPbi22rPONqzeJCV9n2Ep2AI6oOdKTfwF3HrrBEbV414I3j
tuu/ZRFnzmgSMBN40TZEOBPp/vUu7umdwLqMIwzAgBl0hhNmkmDaKwtejUj0ipT7
cMW+YLBiaNOO08AlItttxsHGA1fr7gZ6diuaHnQgVQ1L/oBPLr78lcj0rrlx7HUo
5HW1Fmi12gfDYj2scDZJWRhkZHo/0zhYefaAjJ0NrMTy72G0rh8oSrItBlpFW9SY
mrojs8dR3dF8DUe0Jwf/eOda5iKzQFf1M6kUhfUWgxqNRUp7lgnhlzFubRn5RK6m
hPDt+LYQTeM9GFJtoho5kCnheGGG/ikWJi1lR8xTmOnWmmoeanNvhicbYVpAiDEe
3abNbVfEs7Z2O3F37rOvhKySUdI1/Zi44Xd7atw+TxzPI9h6RF1ugnfTXVfEBtHy
W1haWRtOTJSlZ+G+w6aPLOKLPYR1MRZX6+xOmpD1RQ==
-----END CERTIFICATE-----
