Certificate:
    Data:
        Version: 3 (0x2)
        Serial Number:
            0b:ea:2b:72:b8:19:ec:21:6e:a8:a8:7c:6b:c6:38:41:ad:2d:a9:41
        Signature Algorithm: sha256WithRSAEncryption
        Issuer: C=NO, O=Nitpicksy, OU=Nitpicksy Certificate Authority, CN=Nitpicksy TLS CA
        Validity
            Not Before: Dec  6 22:08:19 2020 GMT
            Not After : Dec  6 22:08:19 2022 GMT
        Subject: C=NO, O=Nitpicksy Client AS, OU=Nitpicksy Certificate Authority, CN=Nitpicksy Client
        Subject Public Key Info:
            Public Key Algorithm: rsaEncryption
                RSA Public-Key: (4096 bit)
                Modulus:
                    00:bd:0c:16:17:90:26:1c:e4:7d:d4:c7:49:37:cf:
                    14:28:93:5a:fe:6d:1c:50:8c:34:07:d2:8f:0e:41:
                    47:df:bf:97:c6:8b:a5:f4:ab:38:e4:a6:2c:bc:0b:
                    65:a2:30:ea:d5:f7:3d:ff:86:bd:42:34:61:da:24:
                    38:6a:43:4e:32:5d:58:1c:79:71:98:64:ec:31:1e:
                    88:91:b5:a5:c8:81:69:f6:09:be:4a:a7:42:d6:1e:
                    3b:17:06:77:af:6e:a7:55:4b:05:0d:d5:7b:b0:4b:
                    5d:0a:3c:0f:8a:4f:a9:03:37:35:4f:ae:cd:6f:48:
                    92:08:95:52:b9:c4:f7:2c:d4:25:67:bc:f6:9e:f3:
                    cf:41:48:aa:be:a2:71:00:8f:18:ce:16:7e:1e:71:
                    02:23:d3:5b:b2:79:56:ec:30:6e:b2:0a:07:9b:c5:
                    9b:16:99:68:23:d1:2f:6b:c4:13:27:ac:fb:42:8d:
                    80:01:1c:78:b2:b5:5f:4d:e2:51:b7:39:58:a6:15:
                    24:f0:31:b4:66:62:01:95:ea:11:55:01:d9:a7:f9:
                    74:22:98:a5:a7:cf:c4:ed:c2:9e:25:e1:03:2a:66:
                    da:18:99:c3:40:90:7c:a4:de:7c:25:72:cc:c7:c1:
                    ec:ae:36:ab:d8:78:78:d8:54:a1:f9:e5:9e:fc:d8:
                    db:57:ae:96:4a:87:8a:3d:04:44:21:86:d4:48:78:
                    b2:ba:32:43:d9:39:7a:d1:61:28:da:ee:b5:95:80:
                    73:b1:d7:5f:12:9a:06:9e:19:a0:0c:e9:fc:d6:79:
                    c5:92:05:df:78:cc:9f:75:02:20:69:0a:8f:86:a6:
                    ef:6b:55:cd:c8:5c:fd:9c:ee:df:ef:5e:f1:e8:c5:
                    9f:b5:b4:56:10:f7:d0:fd:1a:f3:8c:e7:34:ba:a5:
                    14:c2:15:88:8e:57:3c:3c:8f:c4:f0:44:df:13:1e:
                    42:58:4d:1a:05:95:59:3d:d6:b9:f8:76:bd:d8:94:
                    65:f1:4e:85:d9:95:2d:be:ee:06:a3:01:11:dd:b4:
                    a7:c9:0e:96:50:96:20:ea:13:d5:d9:18:4d:c4:8b:
                    52:83:3f:3e:57:09:e2:ff:4f:4a:be:bb:47:77:c5:
                    b1:ad:33:2d:ae:6c:4b:6a:94:17:ed:be:0c:c7:f3:
                    0a:e3:c2:f5:1c:23:64:28:71:17:49:c3:db:a9:43:
                    ef:ba:45:dc:0c:b9:c3:2e:2b:83:db:a3:65:cd:b2:
                    09:31:d9:d3:0d:f2:f5:b2:d4:9d:66:25:d8:9d:ae:
                    20:c6:60:07:20:f9:22:89:91:06:e3:2f:17:bc:9c:
                    f2:f2:05:3a:76:54:03:d9:77:dc:e2:84:e2:a6:40:
                    38:4e:75
                Exponent: 65537 (0x10001)
        X509v3 extensions:
            X509v3 Key Usage: critical
                Digital Signature
            X509v3 Basic Constraints: 
                CA:FALSE
            X509v3 Extended Key Usage: 
                TLS Web Client Authentication
            X509v3 Subject Key Identifier: 
                58:79:3B:02:9D:81:16:84:84:05:FF:0B:C2:57:C0:DC:1F:5C:53:F4
            X509v3 Authority Key Identifier: 
                keyid:46:AE:F3:C6:AD:8C:3E:45:58:86:70:79:96:25:17:E1:6C:F7:16:A8

            Authority Information Access: 
                CA Issuers - URI:http://nitpicksy.no/ca/tls-ca.cer

            X509v3 CRL Distribution Points: 

                Full Name:
                  URI:http://nitpicksy.no/ca/tls-ca.crl

    Signature Algorithm: sha256WithRSAEncryption
         ad:7f:99:07:94:18:0d:98:a6:f3:b2:01:62:73:df:ca:5c:53:
         06:ea:80:7e:15:12:54:c7:6a:dc:e7:09:d2:4d:0e:58:8a:99:
         67:8b:64:a4:c2:4f:eb:6b:33:18:bf:51:53:38:07:59:6e:f5:
         84:77:ed:74:1d:e9:f7:c3:7e:1c:bf:00:a2:ed:8f:29:76:32:
         03:44:83:bc:73:25:bf:ee:be:d1:49:2c:a8:83:e3:27:2a:8a:
         11:66:7a:9d:11:51:bb:be:08:7f:94:ff:79:31:61:3a:67:53:
         ad:03:d8:68:c6:3e:40:56:dd:ce:6d:ef:3e:a5:2c:d7:90:51:
         57:7c:58:73:33:8c:28:d3:50:32:68:13:4c:02:a9:30:17:44:
         5f:04:8a:56:18:da:27:e8:a7:d1:da:f6:62:79:cb:cb:1a:48:
         ac:39:3f:8e:41:a2:d1:ca:ec:32:14:dd:5e:52:2c:57:18:24:
         b7:36:6c:f3:7b:5b:b6:0d:2c:b5:59:a9:40:b9:fa:39:29:15:
         de:e7:57:5a:6d:51:11:3f:24:3b:cf:af:51:7a:d6:36:c3:b7:
         89:02:f2:f4:18:e7:ae:70:6a:81:19:b2:1e:5c:d6:ab:d7:7a:
         96:b8:63:85:64:8f:62:48:13:e2:32:76:3a:23:f8:f6:8e:ce:
         3b:0b:b3:d5:ca:42:98:a0:bb:40:b3:60:11:ee:af:1d:ea:49:
         7e:66:f9:14:f0:c5:e9:2d:99:16:a1:6b:0a:37:a4:19:bb:b6:
         fd:3a:8d:a3:63:07:b9:06:79:df:41:35:44:92:0d:b2:f8:bd:
         bd:2a:59:2f:57:3b:9e:12:58:61:2f:48:ee:d6:ed:49:b5:e7:
         4b:8e:16:0c:66:d3:1e:24:95:0f:c3:e1:a3:f0:07:e1:23:0a:
         5e:22:85:6d:a4:4d:1f:ae:16:b6:f3:b6:f9:e1:66:27:ba:9c:
         67:a6:b4:ba:63:60:fd:86:94:fa:14:1e:1b:90:a2:1d:eb:cb:
         92:9f:48:14:45:c1:5f:92:4d:8c:f3:05:39:ff:3c:a3:93:0d:
         23:d2:d2:17:3f:56:b8:02:81:19:cb:55:d1:19:ab:45:93:c1:
         e1:2c:15:a4:e4:5c:39:3d:78:61:4b:2d:f5:fd:a1:a7:e1:cc:
         00:68:b1:b4:48:32:52:37:78:dc:7f:e3:01:75:ce:ab:bf:2c:
         f3:1c:5e:40:5f:43:72:89:0e:8a:85:b6:2e:c8:59:66:75:0e:
         34:9b:e6:9d:51:ae:da:46:ca:cc:15:93:49:03:e3:f0:34:04:
         05:03:69:73:b4:25:49:27:af:3d:5c:ef:17:a1:e2:2b:87:82:
         c3:b0:77:af:b2:f7:cd:f3
-----BEGIN CERTIFICATE-----
MIIGSzCCBDOgAwIBAgIUC+orcrgZ7CFuqKh8a8Y4Qa0tqUEwDQYJKoZIhvcNAQEL
BQAwZjELMAkGA1UEBhMCTk8xEjAQBgNVBAoMCU5pdHBpY2tzeTEoMCYGA1UECwwf
Tml0cGlja3N5IENlcnRpZmljYXRlIEF1dGhvcml0eTEZMBcGA1UEAwwQTml0cGlj
a3N5IFRMUyBDQTAeFw0yMDEyMDYyMjA4MTlaFw0yMjEyMDYyMjA4MTlaMHAxCzAJ
BgNVBAYTAk5PMRwwGgYDVQQKDBNOaXRwaWNrc3kgQ2xpZW50IEFTMSgwJgYDVQQL
DB9OaXRwaWNrc3kgQ2VydGlmaWNhdGUgQXV0aG9yaXR5MRkwFwYDVQQDDBBOaXRw
aWNrc3kgQ2xpZW50MIICIjANBgkqhkiG9w0BAQEFAAOCAg8AMIICCgKCAgEAvQwW
F5AmHOR91MdJN88UKJNa/m0cUIw0B9KPDkFH37+Xxoul9Ks45KYsvAtlojDq1fc9
/4a9QjRh2iQ4akNOMl1YHHlxmGTsMR6IkbWlyIFp9gm+SqdC1h47FwZ3r26nVUsF
DdV7sEtdCjwPik+pAzc1T67Nb0iSCJVSucT3LNQlZ7z2nvPPQUiqvqJxAI8YzhZ+
HnECI9NbsnlW7DBusgoHm8WbFploI9Eva8QTJ6z7Qo2AARx4srVfTeJRtzlYphUk
8DG0ZmIBleoRVQHZp/l0Ipilp8/E7cKeJeEDKmbaGJnDQJB8pN58JXLMx8Hsrjar
2Hh42FSh+eWe/NjbV66WSoeKPQREIYbUSHiyujJD2Tl60WEo2u61lYBzsddfEpoG
nhmgDOn81nnFkgXfeMyfdQIgaQqPhqbva1XNyFz9nO7f717x6MWftbRWEPfQ/Rrz
jOc0uqUUwhWIjlc8PI/E8ETfEx5CWE0aBZVZPda5+Ha92JRl8U6F2ZUtvu4GowER
3bSnyQ6WUJYg6hPV2RhNxItSgz8+Vwni/09KvrtHd8WxrTMtrmxLapQX7b4Mx/MK
48L1HCNkKHEXScPbqUPvukXcDLnDLiuD26NlzbIJMdnTDfL1stSdZiXYna4gxmAH
IPkiiZEG4y8XvJzy8gU6dlQD2Xfc4oTipkA4TnUCAwEAAaOB5jCB4zAOBgNVHQ8B
Af8EBAMCB4AwCQYDVR0TBAIwADATBgNVHSUEDDAKBggrBgEFBQcDAjAdBgNVHQ4E
FgQUWHk7Ap2BFoSEBf8LwlfA3B9cU/QwHwYDVR0jBBgwFoAURq7zxq2MPkVYhnB5
liUX4Wz3FqgwPQYIKwYBBQUHAQEEMTAvMC0GCCsGAQUFBzAChiFodHRwOi8vbml0
cGlja3N5Lm5vL2NhL3Rscy1jYS5jZXIwMgYDVR0fBCswKTAnoCWgI4YhaHR0cDov
L25pdHBpY2tzeS5uby9jYS90bHMtY2EuY3JsMA0GCSqGSIb3DQEBCwUAA4ICAQCt
f5kHlBgNmKbzsgFic9/KXFMG6oB+FRJUx2rc5wnSTQ5Yiplni2Skwk/razMYv1FT
OAdZbvWEd+10Hen3w34cvwCi7Y8pdjIDRIO8cyW/7r7RSSyog+MnKooRZnqdEVG7
vgh/lP95MWE6Z1OtA9hoxj5AVt3Obe8+pSzXkFFXfFhzM4wo01AyaBNMAqkwF0Rf
BIpWGNon6KfR2vZiecvLGkisOT+OQaLRyuwyFN1eUixXGCS3Nmzze1u2DSy1WalA
ufo5KRXe51dabVERPyQ7z69RetY2w7eJAvL0GOeucGqBGbIeXNar13qWuGOFZI9i
SBPiMnY6I/j2js47C7PVykKYoLtAs2AR7q8d6kl+ZvkU8MXpLZkWoWsKN6QZu7b9
Oo2jYwe5BnnfQTVEkg2y+L29KlkvVzueElhhL0ju1u1JtedLjhYMZtMeJJUPw+Gj
8AfhIwpeIoVtpE0frha287b54WYnupxnprS6Y2D9hpT6FB4bkKId68uSn0gURcFf
kk2M8wU5/zyjkw0j0tIXP1a4AoEZy1XRGatFk8HhLBWk5Fw5PXhhSy31/aGn4cwA
aLG0SDJSN3jcf+MBdc6rvyzzHF5AX0NyiQ6KhbYuyFlmdQ40m+adUa7aRsrMFZNJ
A+PwNAQFA2lztCVJJ689XO8XoeIrh4LDsHevsvfN8w==
-----END CERTIFICATE-----
