Certificate:
    Data:
        Version: 3 (0x2)
        Serial Number:
            0c:e5:9e:2f:bf:71:8d:d9:6d:ed:c9:45:de:cf:b4:00:f8:bf:68:01
        Signature Algorithm: sha256WithRSAEncryption
        Issuer: C=NO, O=Nitpicksy, OU=Nitpicksy Certificate Authority, CN=Nitpicksy TLS CA
        Validity
            Not Before: Dec  6 22:20:01 2020 GMT
            Not After : Dec  6 22:20:01 2022 GMT
        Subject: C=NO, O=Nitpicksy, OU=Nitpicksy Certificate Authority, CN=Eureka
        Subject Public Key Info:
            Public Key Algorithm: rsaEncryption
                RSA Public-Key: (4096 bit)
                Modulus:
                    00:d9:a1:cb:dc:b5:be:3a:c1:8c:73:47:24:8e:ea:
                    6a:b5:97:8c:78:87:c3:94:19:87:dc:e1:b0:1d:dc:
                    c2:f6:bc:43:a1:51:4b:da:14:3a:4f:c4:be:25:35:
                    10:d9:28:87:6c:79:69:3a:93:8a:3a:df:eb:0c:03:
                    83:c9:b4:19:b4:02:71:da:9b:f0:02:54:66:3b:15:
                    7e:15:95:a2:12:53:d9:e4:7f:3c:a2:13:31:bb:a3:
                    76:e2:cf:36:14:30:a9:5f:5f:06:f6:4c:82:00:83:
                    78:8f:ee:99:18:77:cd:d6:77:38:d8:50:20:f9:04:
                    7e:3c:be:bc:6a:65:52:65:9f:63:b5:df:30:fa:e4:
                    25:d3:1c:ec:7c:c7:68:1e:40:68:3c:55:64:90:da:
                    8b:b4:b4:ee:82:19:b4:61:85:33:bb:2f:3d:1a:76:
                    cc:30:23:cb:3a:74:01:4d:f1:3e:61:8e:e9:ae:29:
                    a4:62:29:81:09:4e:8e:44:41:09:57:29:8e:c4:e4:
                    d8:53:d6:bc:a4:bb:6a:4d:7f:c0:ad:93:a0:8b:12:
                    83:f5:8a:07:35:25:c0:22:a1:9c:b8:a0:33:50:ee:
                    07:8f:b8:9f:30:e6:e9:ac:ca:f1:73:a5:59:be:66:
                    40:02:88:a8:82:a7:9f:8d:41:6b:1e:9b:65:19:25:
                    b2:c2:b2:d7:bf:b0:8b:ea:50:cd:66:d6:30:09:f6:
                    96:1b:4f:f8:95:0d:46:75:4f:db:48:80:ad:e5:9c:
                    8d:f8:7e:d1:10:7e:b5:eb:be:8d:ea:9e:3d:1c:03:
                    6e:96:f3:ed:e9:1b:2d:a6:f8:f0:b3:b1:5f:68:56:
                    56:a8:ae:aa:f7:65:39:10:dd:ca:bb:31:c4:b1:3f:
                    f1:ee:bd:c4:fd:92:4c:a5:76:b1:16:cb:37:78:d3:
                    9a:75:47:96:fb:6e:a0:b4:ab:a1:3d:e0:e1:3c:00:
                    bb:db:c2:5d:92:8b:50:c6:ed:03:52:e0:f7:72:7d:
                    5a:73:7d:74:35:92:60:fa:ec:65:b4:ca:e5:ff:e9:
                    cf:c1:8e:aa:e0:05:51:83:60:0b:8f:ec:6e:f3:c5:
                    af:58:db:08:21:ae:fd:e3:7e:b7:74:9e:43:18:ca:
                    54:e5:cb:c3:01:17:8b:c2:7a:41:04:59:3c:32:2f:
                    27:fa:8f:1e:ec:af:fe:61:e4:c9:4f:8d:0f:61:8a:
                    78:67:fb:d3:e5:78:f6:54:ac:62:dd:84:d6:e0:f8:
                    a1:e8:d9:25:2c:bd:30:34:4c:33:41:4d:1c:2b:ca:
                    b7:9f:f4:13:bb:24:4c:d1:15:06:87:78:54:08:ff:
                    17:9d:15:53:54:cc:a7:f0:c3:85:1c:3d:d2:e6:15:
                    ab:ef:8f
                Exponent: 65537 (0x10001)
        X509v3 extensions:
            X509v3 Key Usage: critical
                Digital Signature, Key Encipherment
            X509v3 Basic Constraints: 
                CA:FALSE
            X509v3 Extended Key Usage: 
                TLS Web Server Authentication, TLS Web Client Authentication
            X509v3 Subject Key Identifier: 
                C8:8C:14:AB:2C:5B:1E:F0:A7:D8:C8:B0:57:DC:96:7C:32:93:25:6B
            X509v3 Authority Key Identifier: 
                keyid:52:53:5F:DA:76:E1:0A:7D:73:AE:D0:12:45:72:13:C1:30:4F:4E:39

            Authority Information Access: 
                CA Issuers - URI:http://nitpicksy.no/ca/tls-ca.cer

            X509v3 CRL Distribution Points: 

                Full Name:
                  URI:http://nitpicksy.no/ca/tls-ca.crl

            X509v3 Subject Alternative Name: 
                DNS:nitpicksy.no, DNS:www.nitpicksy.no, DNS:localhost
    Signature Algorithm: sha256WithRSAEncryption
         1d:c7:87:fe:5e:6b:4b:62:e4:eb:c4:2d:22:d8:c3:47:b3:5c:
         5b:5d:02:ac:ba:20:69:e5:0d:18:f3:bc:16:e4:dd:61:94:95:
         3b:80:99:5a:06:6d:e7:6d:bc:5f:bf:92:3f:5a:51:4d:93:43:
         b5:5e:28:e8:a5:e1:9b:d1:d2:4c:c1:ef:5c:e9:2c:39:8b:a2:
         d0:cd:c9:58:4c:b2:dc:47:72:bd:ef:10:82:ad:9c:5d:b8:8e:
         34:50:fd:36:73:ea:99:30:d4:f7:fb:0a:de:bb:e8:31:7a:45:
         b8:13:0f:08:28:e6:95:4f:b5:9b:b5:fd:55:ab:32:e8:e6:2b:
         42:f3:43:7e:ba:4a:37:f6:f2:9a:62:30:a4:79:5c:be:56:fa:
         a1:13:1d:c3:70:a9:2f:d1:19:2f:41:db:ad:a7:b0:56:e5:2f:
         75:89:ec:2d:85:0a:2d:70:1e:f0:a4:ad:3f:54:6b:8b:25:cc:
         7d:cb:df:7c:0a:06:4d:3b:66:77:8b:90:cb:0f:f2:ad:84:9a:
         e2:b6:fa:ca:af:5b:4d:6b:1c:57:e1:87:b7:a5:ef:5a:28:54:
         9d:42:3a:e3:1b:70:f0:f5:2b:3b:e5:a9:a7:ae:4f:2d:c6:ab:
         34:41:f2:da:8a:75:96:b3:47:1e:6e:e0:00:14:14:a8:be:2c:
         08:35:4f:19:7f:a0:21:16:8a:25:b5:92:92:04:fb:ab:40:e8:
         9c:1d:22:02:ab:1f:f7:35:1c:ea:9c:f9:a5:82:25:43:5f:12:
         e1:1b:92:cb:2e:b6:ff:78:31:51:5a:e1:03:56:32:e3:61:d3:
         a3:72:64:6a:ff:28:15:e9:ad:d9:b9:aa:75:a6:f2:6d:f3:1e:
         9b:53:a2:71:16:17:23:ea:ef:99:74:7f:08:c6:e7:9c:18:37:
         d1:d1:c1:d3:17:10:b5:45:cf:35:ee:52:4f:d3:1d:15:87:40:
         26:7c:92:af:63:ed:87:86:d7:c0:00:3c:f4:98:13:09:c7:35:
         f4:e3:0c:88:36:c9:24:57:ae:28:ec:47:98:79:6d:9b:33:51:
         ae:86:36:44:9d:b7:e5:b4:a3:05:55:7f:79:91:b1:29:90:d4:
         eb:88:89:bf:f4:7a:5f:17:b9:cd:5c:2c:69:ca:b7:14:50:84:
         70:db:98:d1:a1:1c:e9:48:e7:11:89:bf:64:32:eb:53:df:a5:
         8c:45:b1:27:8c:40:36:38:e6:fe:f1:84:53:5f:52:7f:30:01:
         0c:59:b5:68:c7:04:c7:6c:c3:4f:5d:a9:1b:c5:df:b6:2b:7b:
         b3:ca:61:a1:f5:e9:16:a3:36:e6:15:87:10:12:70:71:73:70:
         d0:96:4a:16:f8:a2:c3:fb
-----BEGIN CERTIFICATE-----
MIIGeTCCBGGgAwIBAgIUDOWeL79xjdlt7clF3s+0APi/aAEwDQYJKoZIhvcNAQEL
BQAwZjELMAkGA1UEBhMCTk8xEjAQBgNVBAoMCU5pdHBpY2tzeTEoMCYGA1UECwwf
Tml0cGlja3N5IENlcnRpZmljYXRlIEF1dGhvcml0eTEZMBcGA1UEAwwQTml0cGlj
a3N5IFRMUyBDQTAeFw0yMDEyMDYyMjIwMDFaFw0yMjEyMDYyMjIwMDFaMFwxCzAJ
BgNVBAYTAk5PMRIwEAYDVQQKDAlOaXRwaWNrc3kxKDAmBgNVBAsMH05pdHBpY2tz
eSBDZXJ0aWZpY2F0ZSBBdXRob3JpdHkxDzANBgNVBAMMBkV1cmVrYTCCAiIwDQYJ
KoZIhvcNAQEBBQADggIPADCCAgoCggIBANmhy9y1vjrBjHNHJI7qarWXjHiHw5QZ
h9zhsB3cwva8Q6FRS9oUOk/EviU1ENkoh2x5aTqTijrf6wwDg8m0GbQCcdqb8AJU
ZjsVfhWVohJT2eR/PKITMbujduLPNhQwqV9fBvZMggCDeI/umRh3zdZ3ONhQIPkE
fjy+vGplUmWfY7XfMPrkJdMc7HzHaB5AaDxVZJDai7S07oIZtGGFM7svPRp2zDAj
yzp0AU3xPmGO6a4ppGIpgQlOjkRBCVcpjsTk2FPWvKS7ak1/wK2ToIsSg/WKBzUl
wCKhnLigM1DuB4+4nzDm6azK8XOlWb5mQAKIqIKnn41Bax6bZRklssKy17+wi+pQ
zWbWMAn2lhtP+JUNRnVP20iAreWcjfh+0RB+teu+jeqePRwDbpbz7ekbLab48LOx
X2hWVqiuqvdlORDdyrsxxLE/8e69xP2STKV2sRbLN3jTmnVHlvtuoLSroT3g4TwA
u9vCXZKLUMbtA1Lg93J9WnN9dDWSYPrsZbTK5f/pz8GOquAFUYNgC4/sbvPFr1jb
CCGu/eN+t3SeQxjKVOXLwwEXi8J6QQRZPDIvJ/qPHuyv/mHkyU+ND2GKeGf70+V4
9lSsYt2E1uD4oejZJSy9MDRMM0FNHCvKt5/0E7skTNEVBod4VAj/F50VU1TMp/DD
hRw90uYVq++PAgMBAAGjggEnMIIBIzAOBgNVHQ8BAf8EBAMCBaAwCQYDVR0TBAIw
ADAdBgNVHSUEFjAUBggrBgEFBQcDAQYIKwYBBQUHAwIwHQYDVR0OBBYEFMiMFKss
Wx7wp9jIsFfclnwykyVrMB8GA1UdIwQYMBaAFFJTX9p24Qp9c67QEkVyE8EwT045
MD0GCCsGAQUFBwEBBDEwLzAtBggrBgEFBQcwAoYhaHR0cDovL25pdHBpY2tzeS5u
by9jYS90bHMtY2EuY2VyMDIGA1UdHwQrMCkwJ6AloCOGIWh0dHA6Ly9uaXRwaWNr
c3kubm8vY2EvdGxzLWNhLmNybDA0BgNVHREELTArggxuaXRwaWNrc3kubm+CEHd3
dy5uaXRwaWNrc3kubm+CCWxvY2FsaG9zdDANBgkqhkiG9w0BAQsFAAOCAgEAHceH
/l5rS2Lk68QtItjDR7NcW10CrLogaeUNGPO8FuTdYZSVO4CZWgZt5228X7+SP1pR
TZNDtV4o6KXhm9HSTMHvXOksOYui0M3JWEyy3Edyve8Qgq2cXbiONFD9NnPqmTDU
9/sK3rvoMXpFuBMPCCjmlU+1m7X9Vasy6OYrQvNDfrpKN/bymmIwpHlcvlb6oRMd
w3CpL9EZL0HbraewVuUvdYnsLYUKLXAe8KStP1RriyXMfcvffAoGTTtmd4uQyw/y
rYSa4rb6yq9bTWscV+GHt6XvWihUnUI64xtw8PUrO+Wpp65PLcarNEHy2op1lrNH
Hm7gABQUqL4sCDVPGX+gIRaKJbWSkgT7q0DonB0iAqsf9zUc6pz5pYIlQ18S4RuS
yy62/3gxUVrhA1Yy42HTo3Jkav8oFemt2bmqdabybfMem1OicRYXI+rvmXR/CMbn
nBg30dHB0xcQtUXPNe5ST9MdFYdAJnySr2Pth4bXwAA89JgTCcc19OMMiDbJJFeu
KOxHmHltmzNRroY2RJ235bSjBVV/eZGxKZDU64iJv/R6Xxe5zVwsacq3FFCEcNuY
0aEc6UjnEYm/ZDLrU9+ljEWxJ4xANjjm/vGEU19SfzABDFm1aMcEx2zDT12pG8Xf
tit7s8phofXpFqM25hWHEBJwcXNw0JZKFviiw/s=
-----END CERTIFICATE-----
