Certificate:
    Data:
        Version: 3 (0x2)
        Serial Number:
            0d:03:48:93:76:b3:db:2b:9a:7c:e6:59:21:46:cf:0e:e1:3d:ef:e8
        Signature Algorithm: sha256WithRSAEncryption
        Issuer: C=NO, O=Nitpicksy, OU=Nitpicksy Certificate Authority, CN=Nitpicksy TLS CA
        Validity
            Not Before: Dec  6 21:39:31 2020 GMT
            Not After : Dec  6 21:39:31 2022 GMT
        Subject: C=NO, O=Nitpicksy Client AS, OU=Nitpicksy Certificate Authority, CN=Nitpicksy Client
        Subject Public Key Info:
            Public Key Algorithm: rsaEncryption
                RSA Public-Key: (4096 bit)
                Modulus:
                    00:d0:5c:42:a0:89:18:ff:c4:ce:c3:a2:9f:d9:4c:
                    bb:d8:92:7d:3c:72:90:af:af:92:9f:38:e0:66:c8:
                    3e:9b:70:71:8e:5c:a2:4e:c2:a3:6d:8f:9b:37:0c:
                    cf:6d:3f:4e:0b:79:a4:5b:97:c8:8b:77:b2:d8:bd:
                    d0:98:01:01:37:d5:54:56:9b:6e:31:f9:7d:57:9b:
                    04:d6:a5:d9:af:75:5f:a3:1f:d5:07:7e:96:9c:d3:
                    42:ef:f9:f7:3e:ba:81:a6:9b:ea:f5:ba:ea:6c:3e:
                    d1:d0:5f:a7:ff:4f:d6:c2:f9:67:0c:a5:48:aa:d5:
                    01:b7:f9:55:78:59:15:ed:12:55:30:2c:72:49:72:
                    9a:5f:57:28:84:6e:aa:82:71:b3:34:c8:c5:62:06:
                    33:37:2c:5b:32:8f:19:24:6d:78:26:1c:e8:1e:b7:
                    ff:c8:7e:ad:7c:bd:ec:38:dc:c6:f8:23:0c:76:d9:
                    67:b7:72:03:0d:5e:78:85:35:5b:ad:51:a1:d3:80:
                    b7:b3:61:57:79:0e:53:54:fa:7f:49:c7:f2:02:f6:
                    4e:e2:b5:d6:6e:a7:68:e4:dd:ed:33:8f:aa:08:a5:
                    b1:fe:78:36:3e:2f:64:f7:2d:bd:21:97:34:a9:bc:
                    56:d0:f9:b1:7a:fc:c8:16:12:08:ad:15:38:c5:c4:
                    79:a4:c1:9a:35:7f:6e:7e:83:03:70:02:32:07:fa:
                    f1:66:91:3f:85:be:0b:7d:5b:5c:91:ff:be:c2:5d:
                    ad:1d:e0:53:d8:92:4a:27:fd:ea:9a:bf:f1:10:dc:
                    5b:f2:bf:cf:8b:03:42:10:9b:fc:4b:32:e1:c1:2b:
                    f2:d9:be:6c:c3:ef:39:0c:db:08:26:05:8d:9e:1e:
                    65:5e:d5:3e:f5:9d:7b:7e:2a:c9:3c:88:a0:f7:c2:
                    2c:14:df:c7:0a:89:1f:4d:0e:e2:fc:ab:de:8c:d0:
                    10:11:5d:c9:29:6a:6d:81:35:3c:cc:cb:9d:85:79:
                    30:a1:c4:6d:2a:54:ce:1b:54:c0:1f:24:52:bf:4f:
                    fb:67:9c:c3:84:74:ce:f3:5f:60:38:85:55:88:e7:
                    c6:c1:e4:27:96:dd:83:23:be:cd:0b:6b:99:63:9a:
                    a3:c4:38:33:09:a1:a6:59:4c:ea:0a:e1:61:2b:86:
                    e9:91:b2:0d:be:49:7d:50:32:c9:ad:cd:dd:d8:de:
                    62:99:f1:27:30:9c:62:fb:37:7a:dc:b9:50:e9:93:
                    2b:1d:d3:b8:b9:38:0e:f2:9d:7e:52:32:6b:ab:ee:
                    62:4e:cb:9b:6b:ac:e0:eb:25:cb:5d:9e:b2:ac:82:
                    0b:f9:b4:a4:f9:5b:2e:a9:a4:3c:07:25:3f:40:67:
                    66:7d:13
                Exponent: 65537 (0x10001)
        X509v3 extensions:
            X509v3 Key Usage: critical
                Digital Signature
            X509v3 Basic Constraints: 
                CA:FALSE
            X509v3 Extended Key Usage: 
                TLS Web Client Authentication
            X509v3 Subject Key Identifier: 
                75:8A:EA:D1:D1:78:54:AC:9F:6E:DE:FA:A0:3D:4E:7A:43:6F:10:00
            X509v3 Authority Key Identifier: 
                keyid:73:22:F9:68:31:83:E6:3A:55:0D:D5:B0:7B:20:10:F1:2E:0B:77:9F

            Authority Information Access: 
                CA Issuers - URI:http://nitpicksy.no/ca/tls-ca.cer

            X509v3 CRL Distribution Points: 

                Full Name:
                  URI:http://nitpicksy.no/ca/tls-ca.crl

    Signature Algorithm: sha256WithRSAEncryption
         44:b3:ba:5c:a5:25:57:92:f3:4f:c7:15:08:fb:cd:10:8c:b0:
         54:28:c8:0e:fd:5c:cc:19:f2:50:8a:c6:db:7b:96:6a:d2:9c:
         d1:aa:0c:0f:75:4b:52:93:98:ba:00:90:71:94:cd:e1:50:13:
         7d:26:da:8f:ff:11:97:8d:60:bf:ea:09:f9:9e:67:1c:f1:aa:
         8a:a2:be:47:a1:ee:33:e2:09:51:bc:86:ca:b6:07:a1:3f:5d:
         b2:87:11:13:ca:b3:6b:f1:ab:94:52:ee:b0:74:82:c7:9a:84:
         e1:97:38:b8:52:ba:eb:92:e0:2e:bb:30:41:95:d7:50:9f:6b:
         fe:f4:03:d5:38:4f:d4:ad:dd:6e:69:d9:f2:ff:4f:eb:04:65:
         14:19:61:cb:aa:e9:df:51:df:cc:35:98:c6:c6:8b:50:12:4e:
         7b:94:3d:02:27:6f:96:5b:71:b6:43:da:12:3b:4f:4e:4a:86:
         81:10:4b:df:98:fd:88:7c:ac:a9:92:28:69:11:7d:47:f9:b2:
         73:c5:2f:4c:ca:c8:9b:23:82:91:ba:2f:97:58:50:b0:9d:69:
         10:2f:f0:af:ff:68:7e:a1:9d:23:ba:f3:c9:8d:8d:9e:13:5d:
         ee:b9:79:a2:7c:3d:f4:e8:e6:88:04:cf:21:b7:76:d2:4e:1f:
         cb:4c:16:cf:4c:d9:99:56:da:8a:ff:f3:e4:29:40:14:c5:2f:
         23:8f:60:c9:ba:c7:12:60:59:e1:2b:ee:ab:fd:03:ca:6e:83:
         c6:e8:3c:e4:56:a2:13:70:2e:8b:4e:f6:1d:f2:bd:eb:14:2d:
         2e:a7:65:b1:41:7f:98:47:17:dd:f0:6c:87:e4:5e:ad:bf:4f:
         22:eb:39:63:23:df:4f:4e:e1:d0:b0:31:25:c3:3e:2c:cc:63:
         fe:76:30:0e:66:0d:ad:c2:d6:3a:0f:76:c1:33:ba:2f:91:5f:
         c3:b8:42:0a:68:28:e0:e4:45:aa:35:5f:f9:e7:a4:e2:bd:93:
         eb:c1:27:4c:42:af:5b:32:db:b3:99:69:8f:db:fc:48:83:7c:
         a4:f2:97:ab:bd:da:64:5f:d9:f1:8a:f0:14:22:19:5d:2a:32:
         d7:95:53:d0:da:93:2c:8a:74:ef:42:97:47:96:94:50:92:e2:
         e5:ec:ae:5d:ef:28:1e:2f:98:c1:65:7f:d2:1f:15:e5:60:96:
         e0:45:39:cf:23:e5:86:94:8e:a2:d2:57:04:db:ac:da:12:1a:
         11:b8:fe:1d:ba:9f:4f:f2:8a:24:21:6d:8a:e9:5d:18:1d:9b:
         c7:6c:cf:27:28:18:49:4c:29:ec:a5:0b:27:b1:ba:85:62:82:
         2a:de:5f:88:49:8b:e2:50
-----BEGIN CERTIFICATE-----
MIIGSzCCBDOgAwIBAgIUDQNIk3az2yuafOZZIUbPDuE97+gwDQYJKoZIhvcNAQEL
BQAwZjELMAkGA1UEBhMCTk8xEjAQBgNVBAoMCU5pdHBpY2tzeTEoMCYGA1UECwwf
Tml0cGlja3N5IENlcnRpZmljYXRlIEF1dGhvcml0eTEZMBcGA1UEAwwQTml0cGlj
a3N5IFRMUyBDQTAeFw0yMDEyMDYyMTM5MzFaFw0yMjEyMDYyMTM5MzFaMHAxCzAJ
BgNVBAYTAk5PMRwwGgYDVQQKDBNOaXRwaWNrc3kgQ2xpZW50IEFTMSgwJgYDVQQL
DB9OaXRwaWNrc3kgQ2VydGlmaWNhdGUgQXV0aG9yaXR5MRkwFwYDVQQDDBBOaXRw
aWNrc3kgQ2xpZW50MIICIjANBgkqhkiG9w0BAQEFAAOCAg8AMIICCgKCAgEA0FxC
oIkY/8TOw6Kf2Uy72JJ9PHKQr6+SnzjgZsg+m3BxjlyiTsKjbY+bNwzPbT9OC3mk
W5fIi3ey2L3QmAEBN9VUVptuMfl9V5sE1qXZr3Vfox/VB36WnNNC7/n3PrqBppvq
9brqbD7R0F+n/0/WwvlnDKVIqtUBt/lVeFkV7RJVMCxySXKaX1cohG6qgnGzNMjF
YgYzNyxbMo8ZJG14JhzoHrf/yH6tfL3sONzG+CMMdtlnt3IDDV54hTVbrVGh04C3
s2FXeQ5TVPp/ScfyAvZO4rXWbqdo5N3tM4+qCKWx/ng2Pi9k9y29IZc0qbxW0Pmx
evzIFhIIrRU4xcR5pMGaNX9ufoMDcAIyB/rxZpE/hb4LfVtckf++wl2tHeBT2JJK
J/3qmr/xENxb8r/PiwNCEJv8SzLhwSvy2b5sw+85DNsIJgWNnh5lXtU+9Z17firJ
PIig98IsFN/HCokfTQ7i/KvejNAQEV3JKWptgTU8zMudhXkwocRtKlTOG1TAHyRS
v0/7Z5zDhHTO819gOIVViOfGweQnlt2DI77NC2uZY5qjxDgzCaGmWUzqCuFhK4bp
kbINvkl9UDLJrc3d2N5imfEnMJxi+zd63LlQ6ZMrHdO4uTgO8p1+UjJrq+5iTsub
a6zg6yXLXZ6yrIIL+bSk+VsuqaQ8ByU/QGdmfRMCAwEAAaOB5jCB4zAOBgNVHQ8B
Af8EBAMCB4AwCQYDVR0TBAIwADATBgNVHSUEDDAKBggrBgEFBQcDAjAdBgNVHQ4E
FgQUdYrq0dF4VKyfbt76oD1OekNvEAAwHwYDVR0jBBgwFoAUcyL5aDGD5jpVDdWw
eyAQ8S4Ld58wPQYIKwYBBQUHAQEEMTAvMC0GCCsGAQUFBzAChiFodHRwOi8vbml0
cGlja3N5Lm5vL2NhL3Rscy1jYS5jZXIwMgYDVR0fBCswKTAnoCWgI4YhaHR0cDov
L25pdHBpY2tzeS5uby9jYS90bHMtY2EuY3JsMA0GCSqGSIb3DQEBCwUAA4ICAQBE
s7pcpSVXkvNPxxUI+80QjLBUKMgO/VzMGfJQisbbe5Zq0pzRqgwPdUtSk5i6AJBx
lM3hUBN9JtqP/xGXjWC/6gn5nmcc8aqKor5Hoe4z4glRvIbKtgehP12yhxETyrNr
8auUUu6wdILHmoThlzi4UrrrkuAuuzBBlddQn2v+9APVOE/Urd1uadny/0/rBGUU
GWHLqunfUd/MNZjGxotQEk57lD0CJ2+WW3G2Q9oSO09OSoaBEEvfmP2IfKypkihp
EX1H+bJzxS9MysibI4KRui+XWFCwnWkQL/Cv/2h+oZ0juvPJjY2eE13uuXmifD30
6OaIBM8ht3bSTh/LTBbPTNmZVtqK//PkKUAUxS8jj2DJuscSYFnhK+6r/QPKboPG
6DzkVqITcC6LTvYd8r3rFC0up2WxQX+YRxfd8GyH5F6tv08i6zljI99PTuHQsDEl
wz4szGP+djAOZg2twtY6D3bBM7ovkV/DuEIKaCjg5EWqNV/556TivZPrwSdMQq9b
MtuzmWmP2/xIg3yk8pervdpkX9nxivAUIhldKjLXlVPQ2pMsinTvQpdHlpRQkuLl
7K5d7ygeL5jBZX/SHxXlYJbgRTnPI+WGlI6i0lcE26zaEhoRuP4dup9P8ookIW2K
6V0YHZvHbM8nKBhJTCnspQsnsbqFYoIq3l+ISYviUA==
-----END CERTIFICATE-----
