Certificate:
    Data:
        Version: 3 (0x2)
        Serial Number:
            0f:0e:46:29:6a:f7:19:60:14:11:4e:37:81:28:d8:fb:f6:9c:28:4b
        Signature Algorithm: sha256WithRSAEncryption
        Issuer: C=NO, O=Nitpicksy, OU=Nitpicksy Certificate Authority, CN=Nitpicksy TLS CA
        Validity
            Not Before: Dec  4 12:02:36 2020 GMT
            Not After : Dec  4 12:02:36 2022 GMT
        Subject: C=NO, O=Nitpicksy, OU=Nitpicksy Certificate Authority, CN=Eureka
        Subject Public Key Info:
            Public Key Algorithm: rsaEncryption
                RSA Public-Key: (4096 bit)
                Modulus:
                    00:ab:c6:af:18:b0:bf:f7:c7:22:e3:4f:6d:8b:1a:
                    c7:f4:4b:3f:4a:c1:f0:53:d6:c0:20:49:5d:8a:69:
                    5c:60:88:67:a2:39:b3:c7:2b:e9:c0:43:9b:71:8a:
                    9e:8f:7a:5a:55:dd:f4:3d:f0:61:4e:ba:10:de:77:
                    f5:4d:5a:ab:28:e9:d0:d0:6d:3f:19:f5:9c:fb:0a:
                    4b:97:81:12:6c:8e:0e:77:f0:c7:81:88:3f:01:9d:
                    99:bf:4a:4f:52:7e:95:87:4a:73:d0:07:65:41:a8:
                    ec:89:df:f2:ba:bb:28:fb:ef:f9:34:7c:47:88:dc:
                    40:96:8b:f8:03:d8:0c:f0:ca:02:e1:23:7b:54:d2:
                    eb:7a:da:b3:b3:bc:74:dc:c1:3c:b2:e9:ce:0d:1f:
                    d0:f5:5d:2c:9d:c0:5a:34:89:03:0e:d2:11:bd:78:
                    14:ac:6b:65:ee:95:89:80:70:ce:04:fd:f6:19:04:
                    9f:44:3b:89:70:44:fa:4a:1a:6d:af:0f:6d:e9:cb:
                    c4:7c:8e:53:6e:b6:fb:f9:7a:73:c7:1a:2f:09:c3:
                    84:cd:35:c9:ee:16:cd:65:c0:71:c0:40:75:1c:25:
                    20:49:23:dd:22:6b:5b:6a:0e:72:03:1f:96:91:89:
                    10:e1:d9:d3:b7:93:6e:94:e8:54:6c:c1:49:6a:f5:
                    a2:f9:2d:42:f1:58:b8:53:a2:bd:46:02:b2:db:29:
                    d0:9f:ba:fb:32:80:df:fc:59:c1:0a:ec:a6:bf:32:
                    79:e8:f7:db:4a:21:5d:7f:c7:38:36:d4:84:50:a2:
                    b9:cc:b3:b0:6e:bf:45:bc:e5:d0:b8:05:84:97:ef:
                    ad:8a:5c:ee:47:c1:b1:23:a0:fc:19:88:40:dc:9f:
                    2c:e6:73:f7:81:be:84:4e:49:d4:90:9d:35:95:a1:
                    c9:5a:06:3c:3e:7d:68:3e:e7:aa:1f:94:6b:bf:9e:
                    99:dd:58:98:fb:b0:28:99:bf:7e:28:ae:fc:e8:43:
                    c0:0f:18:55:c6:a4:e8:cd:0b:54:d1:19:ac:07:f0:
                    e6:1c:65:ce:21:19:f3:30:c7:f8:17:6e:42:84:48:
                    50:76:0d:5a:f3:26:29:0c:12:a0:f4:f3:37:5d:44:
                    da:98:47:56:ba:8e:52:54:b0:77:bc:2e:1e:f0:33:
                    9b:a9:de:da:f9:39:35:1b:60:da:03:e6:ff:69:92:
                    69:5d:17:ce:8f:f1:2f:a9:2f:7b:8e:bc:57:40:47:
                    f4:a7:2a:09:c8:ec:27:72:96:04:2a:78:cb:98:a5:
                    8d:ef:cf:2f:e0:96:05:cb:10:ea:37:42:99:b2:f7:
                    b5:f8:79:ae:dd:9d:f8:78:70:fa:96:f4:35:08:00:
                    06:5c:97
                Exponent: 65537 (0x10001)
        X509v3 extensions:
            X509v3 Key Usage: critical
                Digital Signature, Key Encipherment
            X509v3 Basic Constraints: 
                CA:FALSE
            X509v3 Extended Key Usage: 
                TLS Web Server Authentication, TLS Web Client Authentication
            X509v3 Subject Key Identifier: 
                8D:DB:6B:DB:AA:82:88:A7:D1:A1:1E:BC:9B:C5:79:91:AF:AB:8B:C0
            X509v3 Authority Key Identifier: 
                keyid:D2:53:26:CF:E6:F6:19:54:29:73:17:A2:0D:1B:AF:E6:C8:8B:AC:46

            Authority Information Access: 
                CA Issuers - URI:http://nitpicksy.no/ca/tls-ca.cer

            X509v3 CRL Distribution Points: 

                Full Name:
                  URI:http://nitpicksy.no/ca/tls-ca.crl

            X509v3 Subject Alternative Name: 
                DNS:nitpicksy.no, DNS:www.nitpicksy.no, DNS:localhost
    Signature Algorithm: sha256WithRSAEncryption
         79:5c:a2:83:a0:15:c4:47:3d:96:59:52:25:8d:f2:35:37:70:
         d2:d9:37:5e:84:0d:c1:63:d4:06:d1:be:39:7e:7d:c3:9c:fd:
         3c:01:64:80:3d:02:eb:bc:81:46:fe:9a:2b:88:b7:ff:82:b0:
         53:70:fa:4c:6b:98:0b:be:1b:c0:2c:18:99:43:94:de:c6:e6:
         4f:d9:e1:fe:4c:d0:84:41:48:85:93:54:38:c5:60:e7:66:6d:
         12:fa:22:26:dd:60:14:21:8f:f3:39:b6:02:20:d4:b1:54:6c:
         71:cd:74:f8:bf:0e:06:63:90:1a:40:89:25:ad:21:66:05:3a:
         5b:a4:d4:1e:80:ce:f4:f2:dd:5b:1d:ed:65:1e:ef:88:61:46:
         a2:30:fc:67:62:e9:21:40:98:fd:d6:1f:c7:24:11:54:69:c9:
         0e:b4:10:73:ec:30:74:be:da:c0:72:fc:d7:96:4e:1b:7f:e9:
         66:f0:78:3a:c8:15:cc:83:97:1f:a1:91:d3:e9:3a:be:e1:ef:
         f5:10:a8:b3:6f:1b:51:5f:28:ba:1c:d2:69:30:36:0d:6f:a8:
         21:a7:10:81:88:74:7b:af:9d:e9:58:5d:48:d0:a7:ad:03:76:
         a9:a8:d4:7d:ab:b4:6e:9d:2e:95:fd:f6:91:80:15:2a:c4:1d:
         79:14:16:b0:c5:15:e8:b5:25:f9:27:d7:e1:5f:66:f9:fb:b0:
         8a:33:8a:28:60:a4:ba:0c:29:18:94:8d:02:f0:dd:b9:cd:17:
         29:2a:81:52:99:41:4e:a0:dc:c0:12:03:92:d4:41:b3:bb:b9:
         7b:d6:d1:bd:b1:81:db:7a:d1:00:d8:4f:f5:c9:cb:a5:df:c0:
         8e:13:fd:59:0d:36:d9:fa:71:23:56:d0:da:61:d9:ac:17:85:
         cc:d9:54:52:bb:11:ef:e8:aa:37:f6:9c:1a:c1:01:e7:4f:7a:
         32:95:f5:b1:1a:26:b3:cc:b6:5e:48:94:f7:d0:7e:e2:5c:77:
         ea:ac:7e:a0:48:a7:5d:94:1a:33:d5:e3:4c:a5:52:b1:4f:50:
         e3:06:12:d2:0c:e7:df:03:3b:fa:c6:06:5d:cc:8b:5d:fe:c2:
         a2:23:d1:41:d5:ab:4c:d0:1a:ff:65:4e:6a:4d:a6:0f:f3:83:
         1c:9f:4a:1e:ab:d0:fd:d9:28:e1:c9:2f:27:c7:71:3c:f4:79:
         34:d1:3a:44:75:de:73:ac:b7:bc:e7:3c:f0:2f:d0:88:1c:e6:
         e4:46:da:f8:24:f3:62:d4:e1:fb:bc:4f:7a:70:4e:df:b7:d1:
         d8:fb:64:55:da:80:28:46:5f:ad:b7:3b:7e:05:4a:fd:40:6e:
         94:31:2f:1f:c4:85:4d:fc
-----BEGIN CERTIFICATE-----
MIIGeTCCBGGgAwIBAgIUDw5GKWr3GWAUEU43gSjY+/acKEswDQYJKoZIhvcNAQEL
BQAwZjELMAkGA1UEBhMCTk8xEjAQBgNVBAoMCU5pdHBpY2tzeTEoMCYGA1UECwwf
Tml0cGlja3N5IENlcnRpZmljYXRlIEF1dGhvcml0eTEZMBcGA1UEAwwQTml0cGlj
a3N5IFRMUyBDQTAeFw0yMDEyMDQxMjAyMzZaFw0yMjEyMDQxMjAyMzZaMFwxCzAJ
BgNVBAYTAk5PMRIwEAYDVQQKDAlOaXRwaWNrc3kxKDAmBgNVBAsMH05pdHBpY2tz
eSBDZXJ0aWZpY2F0ZSBBdXRob3JpdHkxDzANBgNVBAMMBkV1cmVrYTCCAiIwDQYJ
KoZIhvcNAQEBBQADggIPADCCAgoCggIBAKvGrxiwv/fHIuNPbYsax/RLP0rB8FPW
wCBJXYppXGCIZ6I5s8cr6cBDm3GKno96WlXd9D3wYU66EN539U1aqyjp0NBtPxn1
nPsKS5eBEmyODnfwx4GIPwGdmb9KT1J+lYdKc9AHZUGo7Inf8rq7KPvv+TR8R4jc
QJaL+APYDPDKAuEje1TS63ras7O8dNzBPLLpzg0f0PVdLJ3AWjSJAw7SEb14FKxr
Ze6ViYBwzgT99hkEn0Q7iXBE+koaba8PbenLxHyOU262+/l6c8caLwnDhM01ye4W
zWXAccBAdRwlIEkj3SJrW2oOcgMflpGJEOHZ07eTbpToVGzBSWr1ovktQvFYuFOi
vUYCstsp0J+6+zKA3/xZwQrspr8yeej320ohXX/HODbUhFCiucyzsG6/Rbzl0LgF
hJfvrYpc7kfBsSOg/BmIQNyfLOZz94G+hE5J1JCdNZWhyVoGPD59aD7nqh+Ua7+e
md1YmPuwKJm/fiiu/OhDwA8YVcak6M0LVNEZrAfw5hxlziEZ8zDH+BduQoRIUHYN
WvMmKQwSoPTzN11E2phHVrqOUlSwd7wuHvAzm6ne2vk5NRtg2gPm/2mSaV0Xzo/x
L6kve468V0BH9KcqCcjsJ3KWBCp4y5ilje/PL+CWBcsQ6jdCmbL3tfh5rt2d+Hhw
+pb0NQgABlyXAgMBAAGjggEnMIIBIzAOBgNVHQ8BAf8EBAMCBaAwCQYDVR0TBAIw
ADAdBgNVHSUEFjAUBggrBgEFBQcDAQYIKwYBBQUHAwIwHQYDVR0OBBYEFI3ba9uq
goin0aEevJvFeZGvq4vAMB8GA1UdIwQYMBaAFNJTJs/m9hlUKXMXog0br+bIi6xG
MD0GCCsGAQUFBwEBBDEwLzAtBggrBgEFBQcwAoYhaHR0cDovL25pdHBpY2tzeS5u
by9jYS90bHMtY2EuY2VyMDIGA1UdHwQrMCkwJ6AloCOGIWh0dHA6Ly9uaXRwaWNr
c3kubm8vY2EvdGxzLWNhLmNybDA0BgNVHREELTArggxuaXRwaWNrc3kubm+CEHd3
dy5uaXRwaWNrc3kubm+CCWxvY2FsaG9zdDANBgkqhkiG9w0BAQsFAAOCAgEAeVyi
g6AVxEc9lllSJY3yNTdw0tk3XoQNwWPUBtG+OX59w5z9PAFkgD0C67yBRv6aK4i3
/4KwU3D6TGuYC74bwCwYmUOU3sbmT9nh/kzQhEFIhZNUOMVg52ZtEvoiJt1gFCGP
8zm2AiDUsVRscc10+L8OBmOQGkCJJa0hZgU6W6TUHoDO9PLdWx3tZR7viGFGojD8
Z2LpIUCY/dYfxyQRVGnJDrQQc+wwdL7awHL815ZOG3/pZvB4OsgVzIOXH6GR0+k6
vuHv9RCos28bUV8ouhzSaTA2DW+oIacQgYh0e6+d6VhdSNCnrQN2qajUfau0bp0u
lf32kYAVKsQdeRQWsMUV6LUl+SfX4V9m+fuwijOKKGCkugwpGJSNAvDduc0XKSqB
UplBTqDcwBIDktRBs7u5e9bRvbGB23rRANhP9cnLpd/AjhP9WQ022fpxI1bQ2mHZ
rBeFzNlUUrsR7+iqN/acGsEB5096MpX1sRoms8y2XkiU99B+4lx36qx+oEinXZQa
M9XjTKVSsU9Q4wYS0gzn3wM7+sYGXcyLXf7CoiPRQdWrTNAa/2VOak2mD/ODHJ9K
HqvQ/dko4ckvJ8dxPPR5NNE6RHXec6y3vOc88C/QiBzm5Eba+CTzYtTh+7xPenBO
37fR2PtkVdqAKEZfrbc7fgVK/UBulDEvH8SFTfw=
-----END CERTIFICATE-----
