Certificate:
    Data:
        Version: 3 (0x2)
        Serial Number:
            0f:25:1b:e2:1f:5d:99:cd:d2:9a:c2:5f:35:7d:60:92:f1:56:44:e3
        Signature Algorithm: sha256WithRSAEncryption
        Issuer: C=NO, O=Nitpicksy, OU=Nitpicksy Certificate Authority, CN=Nitpicksy TLS CA
        Validity
            Not Before: Dec  6 21:37:49 2020 GMT
            Not After : Dec  6 21:37:49 2022 GMT
        Subject: C=NO, O=Nitpicksy, OU=Nitpicksy Certificate Authority, CN=Literary Society
        Subject Public Key Info:
            Public Key Algorithm: rsaEncryption
                RSA Public-Key: (4096 bit)
                Modulus:
                    00:bf:71:2c:4f:ea:56:b1:9d:63:24:bf:94:88:6f:
                    80:85:d9:de:24:3a:e4:d6:3d:b8:2f:32:cd:37:91:
                    b2:94:9a:15:08:c9:78:b6:3e:8c:4f:f3:76:77:78:
                    67:cb:da:f6:e0:f0:30:1d:cb:70:a5:46:48:fd:db:
                    f2:64:4f:04:84:31:ed:2f:09:dd:9f:c0:b2:f4:31:
                    9b:b9:f8:bb:9e:af:33:71:8e:b6:c2:e7:1f:0e:bd:
                    82:9a:28:17:54:0e:50:6b:ac:b4:da:18:48:ae:cc:
                    a7:c1:2a:80:cd:36:fd:ba:72:63:4d:94:a4:29:8e:
                    fc:e6:d9:71:04:e2:e7:8e:f1:b9:82:00:df:1c:57:
                    4b:6c:04:e9:82:fa:ae:0c:15:48:4e:cb:9b:66:65:
                    81:11:93:da:8b:5f:2d:e3:49:4b:95:52:88:c3:fa:
                    92:22:5d:d0:57:23:f9:74:f1:da:ac:39:23:69:de:
                    e6:ff:0f:1c:bd:47:51:30:a5:55:3c:da:54:23:15:
                    93:d8:3e:f5:87:dc:4d:2f:e0:97:5d:76:93:44:76:
                    9c:0d:cc:f6:b1:6f:8c:25:35:c6:e2:65:9e:59:5d:
                    84:8e:e9:95:1b:c8:22:a4:da:e9:46:aa:3e:18:c4:
                    d3:cb:c9:94:97:79:f3:c8:1b:50:2a:68:ed:eb:8d:
                    7b:73:1e:c5:da:60:de:40:c3:e6:8a:87:c3:7b:69:
                    90:86:87:75:a1:3d:56:a4:ce:1b:4a:32:4b:3d:ac:
                    be:ce:55:c9:da:71:74:34:8e:1f:a0:b2:f4:3a:ba:
                    c7:00:cc:95:f0:5f:c1:d5:29:71:8f:0b:04:9f:86:
                    0b:9e:5e:bf:14:30:3f:32:1e:a3:4e:10:77:43:c5:
                    4b:9f:fa:ad:ce:3f:10:b5:ec:28:44:44:11:7a:12:
                    c4:df:c4:d5:3c:c8:94:4f:12:a7:ef:c5:73:aa:31:
                    8d:b1:e7:cd:73:60:51:68:8a:f7:b5:f0:13:3e:85:
                    6e:11:6b:a5:b5:1a:11:41:cf:0e:e7:5b:31:c1:f1:
                    99:1c:e0:fe:80:ff:c6:64:de:ff:03:88:02:c2:80:
                    5e:7f:da:c0:86:46:42:f1:2f:c9:3b:2e:10:ed:53:
                    7a:d1:b3:4e:64:98:8b:d8:ec:c9:3e:5c:28:75:4a:
                    3b:0a:da:69:d6:2c:fa:67:25:a4:8d:b9:74:4f:4c:
                    5c:bd:2c:57:64:b7:69:a6:a9:53:ef:57:bc:3c:f9:
                    62:01:42:60:d8:91:23:2c:48:93:59:cb:e9:fc:15:
                    72:ce:33:0e:36:1c:de:2c:d4:3f:69:6c:de:65:2d:
                    3d:f2:bf:61:bd:3a:64:f4:6c:a4:18:95:e5:86:c9:
                    7e:be:27
                Exponent: 65537 (0x10001)
        X509v3 extensions:
            X509v3 Key Usage: critical
                Digital Signature, Key Encipherment
            X509v3 Basic Constraints: 
                CA:FALSE
            X509v3 Extended Key Usage: 
                TLS Web Server Authentication, TLS Web Client Authentication
            X509v3 Subject Key Identifier: 
                8C:18:91:06:21:24:AB:82:E0:FB:7C:D7:1E:3D:CE:09:58:A1:3F:CE
            X509v3 Authority Key Identifier: 
                keyid:13:C7:9F:5E:B9:43:55:A8:78:A1:8C:2B:C2:F3:BE:BF:4D:3B:7C:FF

            Authority Information Access: 
                CA Issuers - URI:http://nitpicksy.no/ca/tls-ca.cer

            X509v3 CRL Distribution Points: 

                Full Name:
                  URI:http://nitpicksy.no/ca/tls-ca.crl

            X509v3 Subject Alternative Name: 
                DNS:nitpicksy.no, DNS:www.nitpicksy.no, DNS:localhost
    Signature Algorithm: sha256WithRSAEncryption
         67:3e:a7:0d:bd:d3:a0:3f:a3:7f:6e:db:09:35:3a:16:db:f1:
         f2:79:f5:62:d2:19:94:04:c3:43:15:b0:77:e7:ee:32:e3:34:
         13:74:73:26:36:8e:09:52:9f:d1:d9:2c:de:86:63:ed:f6:09:
         74:bf:a9:43:08:54:aa:ac:b3:1f:e1:13:a7:29:c5:e1:ff:46:
         b0:ca:c9:c2:16:8e:09:aa:17:0d:d2:c6:a3:0f:e6:fd:2e:ed:
         53:05:6e:08:f2:33:59:26:9e:26:46:44:6c:e3:fb:b7:4f:fe:
         29:d4:a1:bf:4c:ae:2b:51:28:ae:88:23:82:87:16:bc:fb:8e:
         0d:ca:0e:29:e5:51:d5:5e:2d:27:2b:9a:cd:72:01:88:83:10:
         4e:b2:06:08:71:03:5a:6e:ba:10:43:bb:82:e8:fa:d6:ae:cd:
         48:79:0b:f4:3e:80:18:67:8c:41:5b:a3:1c:56:cc:03:b8:45:
         f3:e6:78:04:45:6c:91:86:7b:84:f8:cd:2d:5d:44:4e:99:ec:
         32:42:d0:4d:40:41:2c:a6:e1:d5:1c:38:fa:8c:50:df:af:2e:
         95:6f:0a:ed:0f:e3:e1:7f:b7:81:9e:ba:24:b2:c1:d5:32:7d:
         80:8d:e3:7f:9f:48:98:ac:3f:55:38:6c:6d:16:63:5a:8f:69:
         cb:35:73:f3:ad:e0:cd:5b:18:53:ae:e9:8d:7f:2e:0f:b7:0b:
         e3:f0:68:95:60:7d:e0:8a:a6:37:67:fa:44:10:3e:de:16:73:
         4f:f0:a3:86:e6:48:24:48:50:b9:26:5e:c7:e3:72:20:82:ce:
         00:7d:77:fa:c1:c5:43:9a:4b:34:32:14:be:4c:f6:53:75:b5:
         60:c5:87:8b:0c:22:52:ec:96:1e:ba:94:4a:af:28:89:15:ff:
         fb:b6:66:cd:c8:c5:bf:47:51:f8:21:43:9c:f8:4c:ed:eb:93:
         08:3a:d0:da:be:f5:44:ea:af:85:27:89:2c:c2:a7:9c:0a:be:
         9f:62:c5:25:65:9c:44:48:73:31:58:58:db:3b:02:84:7b:31:
         d3:6c:62:ce:d9:a3:44:37:96:30:51:c5:85:77:01:bf:83:c2:
         11:f6:7a:4a:c8:55:60:ec:a7:1d:40:12:1a:7e:c1:5e:8c:f3:
         ac:aa:35:fd:82:be:ec:a4:17:68:2d:b8:68:b5:bb:42:b0:66:
         5d:d2:bd:04:52:cd:67:70:94:9f:01:6b:e0:a7:c2:b2:17:3f:
         09:ab:96:a6:5e:04:21:b3:b6:73:5f:51:3b:3c:09:c3:b4:db:
         f0:24:12:6b:89:5a:70:0a:45:f5:a3:5c:0d:90:59:07:39:5b:
         bf:e0:b8:f7:7b:7b:72:3e
-----BEGIN CERTIFICATE-----
MIIGgzCCBGugAwIBAgIUDyUb4h9dmc3SmsJfNX1gkvFWROMwDQYJKoZIhvcNAQEL
BQAwZjELMAkGA1UEBhMCTk8xEjAQBgNVBAoMCU5pdHBpY2tzeTEoMCYGA1UECwwf
Tml0cGlja3N5IENlcnRpZmljYXRlIEF1dGhvcml0eTEZMBcGA1UEAwwQTml0cGlj
a3N5IFRMUyBDQTAeFw0yMDEyMDYyMTM3NDlaFw0yMjEyMDYyMTM3NDlaMGYxCzAJ
BgNVBAYTAk5PMRIwEAYDVQQKDAlOaXRwaWNrc3kxKDAmBgNVBAsMH05pdHBpY2tz
eSBDZXJ0aWZpY2F0ZSBBdXRob3JpdHkxGTAXBgNVBAMMEExpdGVyYXJ5IFNvY2ll
dHkwggIiMA0GCSqGSIb3DQEBAQUAA4ICDwAwggIKAoICAQC/cSxP6laxnWMkv5SI
b4CF2d4kOuTWPbgvMs03kbKUmhUIyXi2PoxP83Z3eGfL2vbg8DAdy3ClRkj92/Jk
TwSEMe0vCd2fwLL0MZu5+LuerzNxjrbC5x8OvYKaKBdUDlBrrLTaGEiuzKfBKoDN
Nv26cmNNlKQpjvzm2XEE4ueO8bmCAN8cV0tsBOmC+q4MFUhOy5tmZYERk9qLXy3j
SUuVUojD+pIiXdBXI/l08dqsOSNp3ub/Dxy9R1EwpVU82lQjFZPYPvWH3E0v4Jdd
dpNEdpwNzPaxb4wlNcbiZZ5ZXYSO6ZUbyCKk2ulGqj4YxNPLyZSXefPIG1AqaO3r
jXtzHsXaYN5Aw+aKh8N7aZCGh3WhPVakzhtKMks9rL7OVcnacXQ0jh+gsvQ6uscA
zJXwX8HVKXGPCwSfhgueXr8UMD8yHqNOEHdDxUuf+q3OPxC17ChERBF6EsTfxNU8
yJRPEqfvxXOqMY2x581zYFFoive18BM+hW4Ra6W1GhFBzw7nWzHB8Zkc4P6A/8Zk
3v8DiALCgF5/2sCGRkLxL8k7LhDtU3rRs05kmIvY7Mk+XCh1SjsK2mnWLPpnJaSN
uXRPTFy9LFdkt2mmqVPvV7w8+WIBQmDYkSMsSJNZy+n8FXLOMw42HN4s1D9pbN5l
LT3yv2G9OmT0bKQYleWGyX6+JwIDAQABo4IBJzCCASMwDgYDVR0PAQH/BAQDAgWg
MAkGA1UdEwQCMAAwHQYDVR0lBBYwFAYIKwYBBQUHAwEGCCsGAQUFBwMCMB0GA1Ud
DgQWBBSMGJEGISSrguD7fNcePc4JWKE/zjAfBgNVHSMEGDAWgBQTx59euUNVqHih
jCvC876/TTt8/zA9BggrBgEFBQcBAQQxMC8wLQYIKwYBBQUHMAKGIWh0dHA6Ly9u
aXRwaWNrc3kubm8vY2EvdGxzLWNhLmNlcjAyBgNVHR8EKzApMCegJaAjhiFodHRw
Oi8vbml0cGlja3N5Lm5vL2NhL3Rscy1jYS5jcmwwNAYDVR0RBC0wK4IMbml0cGlj
a3N5Lm5vghB3d3cubml0cGlja3N5Lm5vgglsb2NhbGhvc3QwDQYJKoZIhvcNAQEL
BQADggIBAGc+pw2906A/o39u2wk1Ohbb8fJ59WLSGZQEw0MVsHfn7jLjNBN0cyY2
jglSn9HZLN6GY+32CXS/qUMIVKqssx/hE6cpxeH/RrDKycIWjgmqFw3SxqMP5v0u
7VMFbgjyM1kmniZGRGzj+7dP/inUob9MritRKK6II4KHFrz7jg3KDinlUdVeLScr
ms1yAYiDEE6yBghxA1puuhBDu4Lo+tauzUh5C/Q+gBhnjEFboxxWzAO4RfPmeARF
bJGGe4T4zS1dRE6Z7DJC0E1AQSym4dUcOPqMUN+vLpVvCu0P4+F/t4GeuiSywdUy
fYCN43+fSJisP1U4bG0WY1qPacs1c/Ot4M1bGFOu6Y1/Lg+3C+PwaJVgfeCKpjdn
+kQQPt4Wc0/wo4bmSCRIULkmXsfjciCCzgB9d/rBxUOaSzQyFL5M9lN1tWDFh4sM
IlLslh66lEqvKIkV//u2Zs3Ixb9HUfghQ5z4TO3rkwg60Nq+9UTqr4UniSzCp5wK
vp9ixSVlnERIczFYWNs7AoR7MdNsYs7Zo0Q3ljBRxYV3Ab+DwhH2ekrIVWDspx1A
Ehp+wV6M86yqNf2CvuykF2gtuGi1u0KwZl3SvQRSzWdwlJ8Ba+CnwrIXPwmrlqZe
BCGztnNfUTs8CcO02/AkEmuJWnAKRfWjXA2QWQc5W7/guPd7e3I+
-----END CERTIFICATE-----
