Certificate:
    Data:
        Version: 3 (0x2)
        Serial Number:
            0f:74:90:87:a6:54:ec:0d:ad:51:e1:76:8a:09:35:be:04:73:93:e3
        Signature Algorithm: sha256WithRSAEncryption
        Issuer: C=NO, O=Nitpicksy, OU=Nitpicksy Certificate Authority, CN=Nitpicksy TLS CA
        Validity
            Not Before: Dec  4 12:02:35 2020 GMT
            Not After : Dec  4 12:02:35 2022 GMT
        Subject: C=NO, O=Nitpicksy Client AS, OU=Nitpicksy Certificate Authority, CN=Nitpicksy Client
        Subject Public Key Info:
            Public Key Algorithm: rsaEncryption
                RSA Public-Key: (4096 bit)
                Modulus:
                    00:e4:29:45:d9:aa:d5:e6:bf:0e:31:c6:d3:e2:7d:
                    57:13:be:93:4b:35:95:53:90:84:fa:e7:3b:98:12:
                    b9:7f:67:3d:a3:63:8d:94:73:ba:8e:a2:bc:c2:2f:
                    22:01:a1:7f:95:5b:29:5f:d8:eb:28:54:d5:29:57:
                    25:ea:95:6e:42:a8:81:e2:b9:32:ae:4d:74:64:5f:
                    07:eb:80:e3:26:4b:b2:a6:67:9c:c4:de:8f:95:6f:
                    ce:74:43:50:0e:27:95:bd:ed:bb:28:70:a3:b3:af:
                    e0:b5:03:f2:ab:61:c8:87:9a:9d:be:93:5f:5a:03:
                    d6:4a:33:df:24:43:3f:a9:d3:b0:ec:ca:b7:f0:98:
                    21:f4:ef:a5:e2:80:50:45:a7:f2:a0:42:d4:c1:af:
                    50:6a:ad:3e:0e:8d:ca:81:d0:f5:68:23:33:c8:12:
                    b2:5a:3a:cb:60:85:46:c9:ed:6d:4b:ff:93:24:1a:
                    8a:39:33:5d:c1:4d:57:0d:e5:54:3e:d8:65:0d:45:
                    24:68:66:a4:0d:87:e4:0f:48:e5:d4:f2:9a:c7:b9:
                    95:1d:22:ff:73:6c:dd:33:69:c3:68:bf:3b:c7:4f:
                    95:6b:c3:e5:c4:9c:ae:72:33:8a:91:09:df:fb:2e:
                    5e:6c:e5:59:29:a2:cc:ef:90:9c:3a:66:a6:fc:56:
                    f5:28:90:6a:be:a0:6b:0a:6d:c1:e4:3a:08:e2:61:
                    d8:e4:b0:a5:83:e0:c2:05:9a:bd:f2:68:2f:e6:3b:
                    23:3b:86:5e:64:b1:ff:cd:42:30:da:e9:6d:dc:e4:
                    43:d3:fb:1b:d8:fb:bb:52:29:f5:2e:1c:1c:20:24:
                    3b:90:11:49:b1:e1:10:c3:5e:8f:d3:e7:d1:cc:9d:
                    4d:12:2d:f6:06:52:62:36:01:40:43:a7:f2:4f:41:
                    24:3c:1f:93:43:03:e8:10:22:21:ef:c2:34:f6:6c:
                    c8:e1:79:31:a3:e4:70:ff:35:67:ab:c8:77:a3:2d:
                    38:13:0a:ee:02:2c:40:66:54:d7:2f:d6:bc:0d:07:
                    7b:90:b8:79:7b:71:0e:a3:2d:b6:a4:c1:e9:2c:e5:
                    a9:11:0a:4f:eb:dc:58:51:b3:bd:73:bc:2c:c9:d5:
                    c1:87:ed:75:24:18:99:8c:aa:05:9b:64:83:9d:92:
                    21:62:52:8f:a3:b0:a4:0f:80:cb:36:35:33:6e:ed:
                    44:e1:9f:63:90:5c:2b:87:81:ae:b6:03:de:58:c1:
                    54:75:74:ab:6c:2f:a2:08:f7:9c:a5:84:dd:35:0c:
                    96:0c:10:fb:99:55:c3:b7:b8:61:7d:21:e4:2d:bc:
                    8f:c0:c8:b4:5c:84:76:9d:76:55:a5:18:79:3b:95:
                    b4:b3:55
                Exponent: 65537 (0x10001)
        X509v3 extensions:
            X509v3 Key Usage: critical
                Digital Signature
            X509v3 Basic Constraints: 
                CA:FALSE
            X509v3 Extended Key Usage: 
                TLS Web Client Authentication
            X509v3 Subject Key Identifier: 
                55:0D:A0:D9:7A:73:23:B8:74:EA:BE:7C:86:8B:F7:86:11:91:D0:66
            X509v3 Authority Key Identifier: 
                keyid:D2:53:26:CF:E6:F6:19:54:29:73:17:A2:0D:1B:AF:E6:C8:8B:AC:46

            Authority Information Access: 
                CA Issuers - URI:http://nitpicksy.no/ca/tls-ca.cer

            X509v3 CRL Distribution Points: 

                Full Name:
                  URI:http://nitpicksy.no/ca/tls-ca.crl

    Signature Algorithm: sha256WithRSAEncryption
         94:0b:36:54:ae:43:b2:0b:7a:68:5a:9b:a8:75:f6:42:84:7f:
         28:b0:e9:e1:e8:68:83:d5:88:37:f6:a1:e0:64:43:07:d1:44:
         20:07:b0:0f:31:ba:08:2f:a5:e4:0f:19:6d:f4:70:cd:8b:0c:
         80:32:05:ee:68:31:33:dd:1b:f1:5f:db:6b:9c:e2:13:43:2e:
         9d:6a:ce:c4:20:8d:52:37:87:fa:37:36:32:0d:24:6f:93:f7:
         b6:4d:76:ee:7b:7d:d6:77:6a:85:1d:46:61:6f:1a:43:01:5f:
         44:80:dc:8b:56:1b:d0:af:ad:90:ff:58:cc:cf:1a:03:77:5d:
         d3:a2:e1:3c:e5:30:07:0a:88:3c:22:21:d8:e5:1a:e5:f1:d4:
         f7:94:69:92:99:bf:35:f4:a4:4d:ca:a7:c2:bf:ba:34:29:64:
         c9:f0:e3:00:2c:a8:45:59:b1:45:cb:d7:ee:af:16:94:67:dc:
         61:ac:ff:21:56:08:bc:af:be:a6:05:91:bc:07:66:98:de:74:
         d0:6e:ff:c9:9f:eb:92:f0:a2:a6:e4:45:71:ef:5e:b4:98:6e:
         ab:f1:f7:5b:cd:a5:6f:98:6d:23:c8:c9:14:c8:da:86:b3:14:
         d1:a5:a6:73:12:00:b6:1b:66:bd:c9:70:e0:92:d3:d5:14:aa:
         70:e7:52:bb:74:7c:73:b2:54:0e:6c:18:df:e0:2d:9f:fa:c0:
         1a:e6:80:10:86:f4:77:fc:91:19:47:09:c7:98:55:f5:0b:3c:
         1f:31:79:dd:00:1c:3d:2f:0a:89:b7:aa:58:f8:8d:fd:e4:b9:
         d9:c3:cc:f3:7c:12:18:ae:4c:e0:b4:d1:39:83:14:ec:ba:20:
         39:04:c8:1f:4a:6a:c6:e5:b2:59:12:8a:47:11:04:84:0f:de:
         c1:ee:70:1e:a3:fa:21:d6:b2:78:ed:2d:c4:7a:9d:f4:d9:ca:
         04:a6:2c:99:77:37:dc:c0:25:5e:c5:03:d1:61:5d:0a:2e:03:
         8a:e1:dc:2b:9b:ce:dd:26:de:44:ba:f8:13:1c:73:e7:e6:72:
         49:ee:23:8f:b5:3a:fe:3e:74:cf:1a:93:3e:95:20:4f:1f:d2:
         7a:b8:cf:e5:be:98:27:8f:94:f8:af:be:10:a3:77:f8:ce:02:
         cb:ae:b9:e4:5d:9a:cd:dc:3f:9d:52:fe:3f:ce:ac:a5:d3:65:
         e7:a1:82:9e:3d:4d:96:f6:09:68:6f:bd:4a:21:b1:f4:ef:a4:
         04:97:ba:f9:23:8d:b5:27:ca:73:82:d8:3c:2e:07:0c:45:54:
         67:34:60:a5:46:e2:97:72:d6:1d:53:54:30:de:94:0e:0a:d4:
         c8:c2:6d:1c:95:1e:4f:e3
-----BEGIN CERTIFICATE-----
MIIGSzCCBDOgAwIBAgIUD3SQh6ZU7A2tUeF2igk1vgRzk+MwDQYJKoZIhvcNAQEL
BQAwZjELMAkGA1UEBhMCTk8xEjAQBgNVBAoMCU5pdHBpY2tzeTEoMCYGA1UECwwf
Tml0cGlja3N5IENlcnRpZmljYXRlIEF1dGhvcml0eTEZMBcGA1UEAwwQTml0cGlj
a3N5IFRMUyBDQTAeFw0yMDEyMDQxMjAyMzVaFw0yMjEyMDQxMjAyMzVaMHAxCzAJ
BgNVBAYTAk5PMRwwGgYDVQQKDBNOaXRwaWNrc3kgQ2xpZW50IEFTMSgwJgYDVQQL
DB9OaXRwaWNrc3kgQ2VydGlmaWNhdGUgQXV0aG9yaXR5MRkwFwYDVQQDDBBOaXRw
aWNrc3kgQ2xpZW50MIICIjANBgkqhkiG9w0BAQEFAAOCAg8AMIICCgKCAgEA5ClF
2arV5r8OMcbT4n1XE76TSzWVU5CE+uc7mBK5f2c9o2ONlHO6jqK8wi8iAaF/lVsp
X9jrKFTVKVcl6pVuQqiB4rkyrk10ZF8H64DjJkuypmecxN6PlW/OdENQDieVve27
KHCjs6/gtQPyq2HIh5qdvpNfWgPWSjPfJEM/qdOw7Mq38Jgh9O+l4oBQRafyoELU
wa9Qaq0+Do3KgdD1aCMzyBKyWjrLYIVGye1tS/+TJBqKOTNdwU1XDeVUPthlDUUk
aGakDYfkD0jl1PKax7mVHSL/c2zdM2nDaL87x0+Va8PlxJyucjOKkQnf+y5ebOVZ
KaLM75CcOmam/Fb1KJBqvqBrCm3B5DoI4mHY5LClg+DCBZq98mgv5jsjO4ZeZLH/
zUIw2ult3ORD0/sb2Pu7Uin1LhwcICQ7kBFJseEQw16P0+fRzJ1NEi32BlJiNgFA
Q6fyT0EkPB+TQwPoECIh78I09mzI4Xkxo+Rw/zVnq8h3oy04EwruAixAZlTXL9a8
DQd7kLh5e3EOoy22pMHpLOWpEQpP69xYUbO9c7wsydXBh+11JBiZjKoFm2SDnZIh
YlKPo7CkD4DLNjUzbu1E4Z9jkFwrh4GutgPeWMFUdXSrbC+iCPecpYTdNQyWDBD7
mVXDt7hhfSHkLbyPwMi0XIR2nXZVpRh5O5W0s1UCAwEAAaOB5jCB4zAOBgNVHQ8B
Af8EBAMCB4AwCQYDVR0TBAIwADATBgNVHSUEDDAKBggrBgEFBQcDAjAdBgNVHQ4E
FgQUVQ2g2XpzI7h06r58hov3hhGR0GYwHwYDVR0jBBgwFoAU0lMmz+b2GVQpcxei
DRuv5siLrEYwPQYIKwYBBQUHAQEEMTAvMC0GCCsGAQUFBzAChiFodHRwOi8vbml0
cGlja3N5Lm5vL2NhL3Rscy1jYS5jZXIwMgYDVR0fBCswKTAnoCWgI4YhaHR0cDov
L25pdHBpY2tzeS5uby9jYS90bHMtY2EuY3JsMA0GCSqGSIb3DQEBCwUAA4ICAQCU
CzZUrkOyC3poWpuodfZChH8osOnh6GiD1Yg39qHgZEMH0UQgB7APMboIL6XkDxlt
9HDNiwyAMgXuaDEz3RvxX9trnOITQy6das7EII1SN4f6NzYyDSRvk/e2TXbue33W
d2qFHUZhbxpDAV9EgNyLVhvQr62Q/1jMzxoDd13TouE85TAHCog8IiHY5Rrl8dT3
lGmSmb819KRNyqfCv7o0KWTJ8OMALKhFWbFFy9furxaUZ9xhrP8hVgi8r76mBZG8
B2aY3nTQbv/Jn+uS8KKm5EVx7160mG6r8fdbzaVvmG0jyMkUyNqGsxTRpaZzEgC2
G2a9yXDgktPVFKpw51K7dHxzslQObBjf4C2f+sAa5oAQhvR3/JEZRwnHmFX1Czwf
MXndABw9LwqJt6pY+I395LnZw8zzfBIYrkzgtNE5gxTsuiA5BMgfSmrG5bJZEopH
EQSED97B7nAeo/oh1rJ47S3Eep302coEpiyZdzfcwCVexQPRYV0KLgOK4dwrm87d
Jt5EuvgTHHPn5nJJ7iOPtTr+PnTPGpM+lSBPH9J6uM/lvpgnj5T4r74Qo3f4zgLL
rrnkXZrN3D+dUv4/zqyl02XnoYKePU2W9glob71KIbH076QEl7r5I421J8pzgtg8
LgcMRVRnNGClRuKXctYdU1Qw3pQOCtTIwm0clR5P4w==
-----END CERTIFICATE-----
