Certificate:
    Data:
        Version: 3 (0x2)
        Serial Number:
            0f:f6:e1:e4:19:5e:a4:de:68:c5:9a:3d:1d:a1:aa:13:44:28:5f:9f
        Signature Algorithm: sha256WithRSAEncryption
        Issuer: C=NO, O=Nitpicksy, OU=Nitpicksy Certificate Authority, CN=Nitpicksy TLS CA
        Validity
            Not Before: Dec  6 21:52:33 2020 GMT
            Not After : Dec  6 21:52:33 2022 GMT
        Subject: C=NO, O=Nitpicksy, OU=Nitpicksy Certificate Authority, CN=Literary Society
        Subject Public Key Info:
            Public Key Algorithm: rsaEncryption
                RSA Public-Key: (4096 bit)
                Modulus:
                    00:dc:a3:cc:4f:58:16:04:ae:df:99:80:8b:53:6a:
                    3a:3f:70:0f:5a:67:e6:e2:9d:a5:79:6b:9d:20:7b:
                    f8:69:75:8e:78:5b:14:80:b5:34:ac:fc:a8:47:a0:
                    db:38:22:05:b8:8a:01:63:88:ef:1b:5e:48:d2:4b:
                    bf:df:c4:68:68:96:c8:71:9f:1d:b9:78:64:64:b2:
                    fb:2e:c8:3a:38:31:08:ac:ae:f7:79:94:90:fd:ea:
                    e2:ff:06:0d:04:88:78:3e:0c:30:14:2e:7e:40:09:
                    ad:5b:2e:b2:a9:e2:50:39:56:3d:7b:f2:f7:c0:0e:
                    67:14:e2:f7:32:5a:2f:07:57:2b:b8:e8:1d:21:ee:
                    ce:c9:bb:38:5f:ac:c1:03:c4:e4:ac:94:88:3c:b2:
                    6c:a3:39:f3:62:f4:b5:0b:b0:a9:60:a7:a0:ef:e2:
                    87:dd:3e:d8:2e:f9:db:22:06:8a:51:37:74:91:a4:
                    26:f2:42:c6:fd:60:7a:07:5e:1c:fe:0c:ad:60:43:
                    f1:d8:af:86:93:45:58:70:25:99:06:bc:f8:4e:be:
                    d4:f6:2a:ca:67:39:5b:ac:db:ab:ec:63:45:b6:3d:
                    9d:34:cd:b3:58:c9:f9:95:40:f6:c4:26:3f:3a:0e:
                    b5:5d:26:ce:57:cc:f5:fa:ac:3d:c5:53:36:6c:fe:
                    b1:41:88:4b:bb:84:26:3e:dc:38:ed:51:63:59:ed:
                    a8:03:37:b7:d4:1b:b4:10:f9:65:7d:d4:06:8e:da:
                    2b:bf:a9:77:e8:89:76:ed:52:bf:f7:e7:9f:7a:3e:
                    22:cd:2c:ea:8f:8c:91:8c:6b:ab:55:14:13:d1:87:
                    d0:3f:f5:30:c9:09:0f:b2:60:27:2b:33:e7:93:88:
                    52:c6:28:88:9a:c7:2b:df:8a:76:2c:d7:a8:0a:38:
                    33:45:e2:a9:b4:9b:7f:2c:ce:5c:be:c2:89:8d:28:
                    de:dc:2e:b7:5d:df:88:3a:03:49:6d:69:44:8b:30:
                    d3:da:0d:e0:f5:34:55:ab:6f:8d:7a:02:10:c5:8a:
                    c1:6c:c0:46:ce:c3:47:0e:3d:67:37:1d:9f:ea:20:
                    3f:2c:a1:2c:af:6a:94:5d:7d:b6:48:7c:79:e3:37:
                    47:02:be:05:50:bb:92:dd:8d:6a:e3:f6:e3:b7:f3:
                    d5:47:b5:7b:61:68:90:4b:0a:08:52:bf:db:4d:69:
                    ae:2e:30:1a:c0:db:31:5d:75:e9:71:8a:2b:62:e8:
                    c6:df:45:d9:d4:97:fb:6e:c2:39:3e:8e:50:c1:c7:
                    3f:c5:62:a3:4d:3d:80:e2:eb:20:eb:fd:7b:f3:a7:
                    fa:fe:70:b7:4b:54:c8:e7:e9:06:d3:0a:44:96:39:
                    d7:b4:6d
                Exponent: 65537 (0x10001)
        X509v3 extensions:
            X509v3 Key Usage: critical
                Digital Signature, Key Encipherment
            X509v3 Basic Constraints: 
                CA:FALSE
            X509v3 Extended Key Usage: 
                TLS Web Server Authentication, TLS Web Client Authentication
            X509v3 Subject Key Identifier: 
                BC:24:A7:FA:A0:34:AB:93:01:F2:3A:21:C2:DC:81:EB:38:A1:47:D0
            X509v3 Authority Key Identifier: 
                keyid:D7:D7:89:7B:D0:D8:5C:D5:C9:27:4E:98:7C:EE:76:73:F6:EB:7E:DB

            Authority Information Access: 
                CA Issuers - URI:http://nitpicksy.no/ca/tls-ca.cer

            X509v3 CRL Distribution Points: 

                Full Name:
                  URI:http://nitpicksy.no/ca/tls-ca.crl

            X509v3 Subject Alternative Name: 
                DNS:nitpicksy.no, DNS:www.nitpicksy.no, DNS:localhost
    Signature Algorithm: sha256WithRSAEncryption
         72:37:24:01:0d:7e:e7:64:2c:fd:ef:1b:cc:5a:f5:eb:fc:f8:
         38:e8:d2:bf:d4:01:8f:1e:06:17:c7:0a:b9:04:0a:1f:fb:6c:
         38:1b:66:a9:7a:c7:3d:3f:8f:7a:bf:8c:d9:57:d0:fd:d2:74:
         31:be:24:00:1a:04:94:0d:47:50:89:a4:af:c1:93:c4:5a:9e:
         86:6a:f9:0d:53:55:af:10:82:cc:01:60:ef:01:1c:83:bf:7d:
         9b:07:99:1c:38:5e:e8:ee:c6:10:d1:df:d8:af:db:46:27:95:
         5c:92:4c:83:b4:d8:e7:01:23:02:aa:8d:84:b4:62:e3:b9:fa:
         ae:29:09:3d:b1:75:0b:02:63:68:80:da:79:c4:e9:e8:f3:5c:
         0e:1e:3f:2b:5c:d5:36:81:03:8c:e7:99:d1:e1:89:35:46:a8:
         7f:6b:b8:c4:4f:02:cf:63:cf:7b:54:c5:f8:42:f1:3f:78:8f:
         39:5b:41:8d:3a:bc:39:c7:13:4a:5a:1a:f0:c1:db:6a:84:7f:
         82:46:18:87:b3:3f:6d:bc:cd:4c:4e:af:18:95:6a:70:5b:ca:
         05:d7:95:ef:30:57:e6:b0:3f:18:ea:4b:bf:9e:3d:05:b8:ba:
         52:55:1c:7e:37:1b:0b:1a:94:36:7d:72:55:95:3e:04:89:66:
         97:c1:8f:08:50:57:f3:0c:28:d3:09:f8:7b:19:91:c3:ce:93:
         cc:3b:28:6e:32:82:f6:5b:a9:17:f1:e0:65:cb:ed:85:8a:42:
         29:ea:3b:47:28:10:2f:44:c0:b3:37:f7:a9:83:7a:8c:bd:d5:
         e6:2f:f9:fc:ff:85:01:af:2c:83:be:c3:91:79:dd:df:43:d4:
         34:bd:54:8b:31:9e:d2:62:70:7e:12:74:a8:00:df:c5:65:1b:
         6f:a1:59:4a:4a:58:2c:57:c0:67:78:c2:88:85:02:0b:2d:15:
         ef:ae:77:5c:e8:2b:9c:1c:92:24:07:90:54:19:2b:5f:e1:01:
         e5:d1:4d:3c:92:0c:6b:49:d3:e3:a6:4c:31:c4:cc:4a:90:5a:
         aa:c1:3f:84:8b:a9:68:aa:d9:20:a5:c7:94:78:20:f2:6e:5d:
         df:72:a9:bb:a2:0c:cb:92:55:70:db:1d:bc:85:40:1d:31:42:
         50:5d:ec:d6:2b:5d:df:a8:3f:29:d7:c5:1d:ce:31:f0:97:2a:
         95:cd:4f:2d:ce:70:73:ca:b3:0f:02:cc:c1:29:57:53:08:d7:
         f1:6e:80:1c:52:11:85:50:b0:cd:bd:3e:f1:eb:18:84:d2:90:
         b3:d9:30:13:df:76:cc:05:53:84:a2:7f:36:df:ef:34:92:42:
         cf:16:30:f1:60:90:57:a6
-----BEGIN CERTIFICATE-----
MIIGgzCCBGugAwIBAgIUD/bh5BlepN5oxZo9HaGqE0QoX58wDQYJKoZIhvcNAQEL
BQAwZjELMAkGA1UEBhMCTk8xEjAQBgNVBAoMCU5pdHBpY2tzeTEoMCYGA1UECwwf
Tml0cGlja3N5IENlcnRpZmljYXRlIEF1dGhvcml0eTEZMBcGA1UEAwwQTml0cGlj
a3N5IFRMUyBDQTAeFw0yMDEyMDYyMTUyMzNaFw0yMjEyMDYyMTUyMzNaMGYxCzAJ
BgNVBAYTAk5PMRIwEAYDVQQKDAlOaXRwaWNrc3kxKDAmBgNVBAsMH05pdHBpY2tz
eSBDZXJ0aWZpY2F0ZSBBdXRob3JpdHkxGTAXBgNVBAMMEExpdGVyYXJ5IFNvY2ll
dHkwggIiMA0GCSqGSIb3DQEBAQUAA4ICDwAwggIKAoICAQDco8xPWBYErt+ZgItT
ajo/cA9aZ+binaV5a50ge/hpdY54WxSAtTSs/KhHoNs4IgW4igFjiO8bXkjSS7/f
xGholshxnx25eGRksvsuyDo4MQisrvd5lJD96uL/Bg0EiHg+DDAULn5ACa1bLrKp
4lA5Vj178vfADmcU4vcyWi8HVyu46B0h7s7JuzhfrMEDxOSslIg8smyjOfNi9LUL
sKlgp6Dv4ofdPtgu+dsiBopRN3SRpCbyQsb9YHoHXhz+DK1gQ/HYr4aTRVhwJZkG
vPhOvtT2KspnOVus26vsY0W2PZ00zbNYyfmVQPbEJj86DrVdJs5XzPX6rD3FUzZs
/rFBiEu7hCY+3DjtUWNZ7agDN7fUG7QQ+WV91AaO2iu/qXfoiXbtUr/35596PiLN
LOqPjJGMa6tVFBPRh9A/9TDJCQ+yYCcrM+eTiFLGKIiaxyvfinYs16gKODNF4qm0
m38szly+womNKN7cLrdd34g6A0ltaUSLMNPaDeD1NFWrb416AhDFisFswEbOw0cO
PWc3HZ/qID8soSyvapRdfbZIfHnjN0cCvgVQu5LdjWrj9uO389VHtXthaJBLCghS
v9tNaa4uMBrA2zFddelxiiti6MbfRdnUl/tuwjk+jlDBxz/FYqNNPYDi6yDr/Xvz
p/r+cLdLVMjn6QbTCkSWOde0bQIDAQABo4IBJzCCASMwDgYDVR0PAQH/BAQDAgWg
MAkGA1UdEwQCMAAwHQYDVR0lBBYwFAYIKwYBBQUHAwEGCCsGAQUFBwMCMB0GA1Ud
DgQWBBS8JKf6oDSrkwHyOiHC3IHrOKFH0DAfBgNVHSMEGDAWgBTX14l70Nhc1ckn
Tph87nZz9ut+2zA9BggrBgEFBQcBAQQxMC8wLQYIKwYBBQUHMAKGIWh0dHA6Ly9u
aXRwaWNrc3kubm8vY2EvdGxzLWNhLmNlcjAyBgNVHR8EKzApMCegJaAjhiFodHRw
Oi8vbml0cGlja3N5Lm5vL2NhL3Rscy1jYS5jcmwwNAYDVR0RBC0wK4IMbml0cGlj
a3N5Lm5vghB3d3cubml0cGlja3N5Lm5vgglsb2NhbGhvc3QwDQYJKoZIhvcNAQEL
BQADggIBAHI3JAENfudkLP3vG8xa9ev8+Djo0r/UAY8eBhfHCrkECh/7bDgbZql6
xz0/j3q/jNlX0P3SdDG+JAAaBJQNR1CJpK/Bk8RanoZq+Q1TVa8QgswBYO8BHIO/
fZsHmRw4XujuxhDR39iv20YnlVySTIO02OcBIwKqjYS0YuO5+q4pCT2xdQsCY2iA
2nnE6ejzXA4ePytc1TaBA4znmdHhiTVGqH9ruMRPAs9jz3tUxfhC8T94jzlbQY06
vDnHE0paGvDB22qEf4JGGIezP228zUxOrxiVanBbygXXle8wV+awPxjqS7+ePQW4
ulJVHH43GwsalDZ9clWVPgSJZpfBjwhQV/MMKNMJ+HsZkcPOk8w7KG4ygvZbqRfx
4GXL7YWKQinqO0coEC9EwLM396mDeoy91eYv+fz/hQGvLIO+w5F53d9D1DS9VIsx
ntJicH4SdKgA38VlG2+hWUpKWCxXwGd4woiFAgstFe+ud1zoK5wckiQHkFQZK1/h
AeXRTTySDGtJ0+OmTDHEzEqQWqrBP4SLqWiq2SClx5R4IPJuXd9yqbuiDMuSVXDb
HbyFQB0xQlBd7NYrXd+oPynXxR3OMfCXKpXNTy3OcHPKsw8CzMEpV1MI1/FugBxS
EYVQsM29PvHrGITSkLPZMBPfdswFU4Sifzbf7zSSQs8WMPFgkFem
-----END CERTIFICATE-----
