Certificate:
    Data:
        Version: 3 (0x2)
        Serial Number:
            10:56:84:93:e7:b9:4b:ea:03:03:27:fc:00:54:0b:86:52:96:a0:23
        Signature Algorithm: sha256WithRSAEncryption
        Issuer: C=NO, O=Nitpicksy, OU=Nitpicksy Certificate Authority, CN=Nitpicksy TLS CA
        Validity
            Not Before: Dec  6 22:20:07 2020 GMT
            Not After : Dec  6 22:20:07 2022 GMT
        Subject: C=NO, O=Nitpicksy, OU=Nitpicksy Certificate Authority, CN=PCC
        Subject Public Key Info:
            Public Key Algorithm: rsaEncryption
                RSA Public-Key: (4096 bit)
                Modulus:
                    00:c2:89:b1:25:cb:7c:86:87:71:8f:3c:10:1a:2c:
                    99:3d:ba:8f:9e:5e:54:58:9a:0f:95:76:bd:86:ea:
                    b2:d6:76:62:3b:23:89:1b:42:fa:38:aa:53:8e:1a:
                    71:3d:4b:5e:53:f8:4f:5a:76:3d:5f:ae:a7:ba:13:
                    3d:56:03:f7:e1:85:7b:2d:6e:81:d3:83:99:94:48:
                    65:28:f9:9a:4e:95:95:5c:37:91:47:70:81:85:4a:
                    c8:07:6d:36:0b:a3:5b:40:47:21:23:4c:fc:dc:8a:
                    7f:15:bf:f7:f7:85:1e:3a:ba:1f:05:38:e7:b5:6d:
                    d1:ad:82:e6:16:bc:61:e4:d4:0d:9e:90:a1:93:3e:
                    99:0c:05:d2:ff:59:2f:bc:ab:b2:3a:19:95:0b:a2:
                    4b:7c:37:8f:eb:d1:fe:bc:94:35:ff:7b:32:83:a9:
                    09:c6:04:ee:8b:29:e8:e6:0b:db:64:a4:7c:ff:f4:
                    96:15:3e:d5:8c:be:13:ae:62:8e:9f:dd:bb:43:0a:
                    39:3d:81:c4:5c:d0:ae:bb:28:ad:54:76:12:b8:71:
                    54:6b:16:21:35:a7:b4:1a:70:95:eb:fa:e2:8a:47:
                    2e:45:83:02:73:25:dd:9e:95:e7:eb:6f:3a:df:1a:
                    f7:09:6e:7b:af:d4:e8:5c:a4:48:ff:48:8c:83:f9:
                    e2:45:1e:9f:32:bd:8a:22:8f:d7:bf:cd:0a:c8:1d:
                    95:17:59:cc:29:fd:10:44:de:62:7d:c9:11:af:67:
                    99:d0:e7:ac:54:d5:e1:f0:01:0c:bf:3b:fb:b9:6c:
                    6e:ba:2b:00:0c:83:f0:c5:25:bd:b0:e3:15:0f:ee:
                    cc:25:ee:48:3a:2f:8e:ad:8e:cd:ba:55:01:71:e1:
                    79:ee:81:a1:dc:5e:32:5d:c3:9f:ad:47:3d:64:04:
                    82:54:37:8d:66:fc:67:70:de:b6:6c:2f:8a:b4:92:
                    0a:23:48:99:34:a8:16:d5:85:3f:a2:80:65:d3:ce:
                    1a:7f:4f:d5:45:f8:98:ca:65:11:51:be:b1:a4:76:
                    93:57:61:95:26:47:0e:a5:f5:ed:db:7e:b5:26:01:
                    a3:dd:70:38:e5:76:a4:ef:85:aa:5e:ca:f0:28:0f:
                    06:5d:ca:e5:cc:6e:fd:91:38:f7:ea:53:38:af:9b:
                    76:3d:29:71:0d:29:7a:26:51:a5:96:93:fa:2c:6c:
                    a5:56:01:a2:db:f9:af:44:34:52:2a:13:0d:76:83:
                    95:77:92:5c:46:af:81:04:84:4e:b4:5b:35:c0:e4:
                    da:17:95:7e:12:12:80:c4:ae:e6:67:6f:bd:64:fb:
                    0c:a8:ac:95:77:be:bc:38:c0:a9:7c:d0:88:87:aa:
                    91:4d:0d
                Exponent: 65537 (0x10001)
        X509v3 extensions:
            X509v3 Key Usage: critical
                Digital Signature, Key Encipherment
            X509v3 Basic Constraints: 
                CA:FALSE
            X509v3 Extended Key Usage: 
                TLS Web Server Authentication, TLS Web Client Authentication
            X509v3 Subject Key Identifier: 
                B7:84:8B:23:C1:DF:AE:DF:5F:03:B8:D0:91:3B:D8:9C:35:11:39:E8
            X509v3 Authority Key Identifier: 
                keyid:52:53:5F:DA:76:E1:0A:7D:73:AE:D0:12:45:72:13:C1:30:4F:4E:39

            Authority Information Access: 
                CA Issuers - URI:http://nitpicksy.no/ca/tls-ca.cer

            X509v3 CRL Distribution Points: 

                Full Name:
                  URI:http://nitpicksy.no/ca/tls-ca.crl

            X509v3 Subject Alternative Name: 
                DNS:nitpicksy.no, DNS:www.nitpicksy.no, DNS:localhost
    Signature Algorithm: sha256WithRSAEncryption
         61:2a:d9:fe:71:12:48:13:87:ae:d0:f5:2a:90:c4:f1:5d:7f:
         25:27:ae:20:05:07:81:14:95:ff:9b:f4:10:e2:44:ac:0c:f9:
         c7:ab:3f:5d:e0:3f:c9:27:63:49:83:de:82:2c:f8:0f:0b:64:
         38:c1:c8:84:6d:6b:c0:e4:8e:97:78:7c:42:e4:f0:24:44:f0:
         32:d4:1c:d9:59:c3:e7:f0:a5:f4:3c:58:72:ab:7f:6e:f0:8a:
         80:32:1d:30:94:08:53:9a:3e:51:09:2a:15:bd:15:98:bf:41:
         54:ec:35:3e:3e:fd:1f:20:6b:49:59:9a:40:ed:06:39:d8:52:
         07:a9:bd:81:17:30:b0:79:39:50:59:63:8e:9a:bd:10:80:7c:
         70:be:9a:27:f1:29:ba:e1:2d:95:88:28:b9:a8:7c:62:b5:26:
         9c:9f:82:96:3c:f2:3b:4e:93:7d:1e:45:55:14:f0:cb:59:2e:
         3f:a9:92:50:d7:b7:83:a4:2c:90:7e:2f:e3:f0:59:73:4b:15:
         f9:77:d3:d5:4e:bc:0b:a3:5e:b6:30:d2:58:8e:9e:43:b0:c8:
         a0:53:bb:50:0e:8f:33:4d:61:14:31:dc:85:75:0d:f7:fc:2d:
         f8:01:d8:5a:d6:79:0f:66:bc:65:6a:20:a6:fe:88:a2:9f:60:
         df:3e:b9:f4:09:a2:68:10:5e:93:8d:29:6e:f8:a4:3f:d3:3f:
         58:7b:1e:16:aa:fa:6f:cd:fb:f7:cc:d9:b1:85:c6:1a:10:1d:
         0d:f9:f1:99:6e:27:e4:38:8d:fc:79:4a:7d:ee:26:09:1c:90:
         df:45:ff:4d:88:6b:63:3d:01:ff:2b:6c:25:5b:bb:ba:37:aa:
         a3:28:c4:02:3f:39:fb:84:58:35:f4:f3:ee:ab:1e:9f:77:84:
         f4:ac:0c:4f:19:51:b9:57:03:39:a0:ec:75:ff:c4:22:0e:ee:
         ce:25:77:ba:74:10:99:30:64:57:e2:49:27:f5:4a:89:46:fc:
         41:1f:8e:5e:9e:b5:00:08:e7:37:08:b1:9b:2f:78:2d:cc:d1:
         bb:e9:24:87:a0:fe:c7:0a:02:49:7a:3a:c9:a1:08:0b:b1:77:
         fe:29:4f:f9:d1:e9:2f:85:87:f9:a3:f9:4a:50:a9:72:72:0d:
         b0:cb:01:c7:f8:e8:d9:4d:ed:e0:e1:8b:d8:1d:09:77:4e:b3:
         3b:28:68:71:1c:b3:79:65:f8:78:fc:d9:27:9a:e4:c0:0b:5a:
         d3:d0:65:89:9d:10:90:17:4e:18:e7:7f:72:5f:73:97:fc:4b:
         8b:99:55:7b:c2:d9:7e:5e:7f:5b:9c:ff:94:0c:28:21:7f:a8:
         44:fc:c4:d0:2a:3c:05:8b
-----BEGIN CERTIFICATE-----
MIIGdjCCBF6gAwIBAgIUEFaEk+e5S+oDAyf8AFQLhlKWoCMwDQYJKoZIhvcNAQEL
BQAwZjELMAkGA1UEBhMCTk8xEjAQBgNVBAoMCU5pdHBpY2tzeTEoMCYGA1UECwwf
Tml0cGlja3N5IENlcnRpZmljYXRlIEF1dGhvcml0eTEZMBcGA1UEAwwQTml0cGlj
a3N5IFRMUyBDQTAeFw0yMDEyMDYyMjIwMDdaFw0yMjEyMDYyMjIwMDdaMFkxCzAJ
BgNVBAYTAk5PMRIwEAYDVQQKDAlOaXRwaWNrc3kxKDAmBgNVBAsMH05pdHBpY2tz
eSBDZXJ0aWZpY2F0ZSBBdXRob3JpdHkxDDAKBgNVBAMMA1BDQzCCAiIwDQYJKoZI
hvcNAQEBBQADggIPADCCAgoCggIBAMKJsSXLfIaHcY88EBosmT26j55eVFiaD5V2
vYbqstZ2YjsjiRtC+jiqU44acT1LXlP4T1p2PV+up7oTPVYD9+GFey1ugdODmZRI
ZSj5mk6VlVw3kUdwgYVKyAdtNgujW0BHISNM/NyKfxW/9/eFHjq6HwU457Vt0a2C
5ha8YeTUDZ6QoZM+mQwF0v9ZL7yrsjoZlQuiS3w3j+vR/ryUNf97MoOpCcYE7osp
6OYL22SkfP/0lhU+1Yy+E65ijp/du0MKOT2BxFzQrrsorVR2ErhxVGsWITWntBpw
lev64opHLkWDAnMl3Z6V5+tvOt8a9wlue6/U6FykSP9IjIP54kUenzK9iiKP17/N
CsgdlRdZzCn9EETeYn3JEa9nmdDnrFTV4fABDL87+7lsbrorAAyD8MUlvbDjFQ/u
zCXuSDovjq2OzbpVAXHhee6BodxeMl3Dn61HPWQEglQ3jWb8Z3DetmwvirSSCiNI
mTSoFtWFP6KAZdPOGn9P1UX4mMplEVG+saR2k1dhlSZHDqX17dt+tSYBo91wOOV2
pO+Fql7K8CgPBl3K5cxu/ZE49+pTOK+bdj0pcQ0peiZRpZaT+ixspVYBotv5r0Q0
UioTDXaDlXeSXEavgQSETrRbNcDk2heVfhISgMSu5mdvvWT7DKislXe+vDjAqXzQ
iIeqkU0NAgMBAAGjggEnMIIBIzAOBgNVHQ8BAf8EBAMCBaAwCQYDVR0TBAIwADAd
BgNVHSUEFjAUBggrBgEFBQcDAQYIKwYBBQUHAwIwHQYDVR0OBBYEFLeEiyPB367f
XwO40JE72Jw1ETnoMB8GA1UdIwQYMBaAFFJTX9p24Qp9c67QEkVyE8EwT045MD0G
CCsGAQUFBwEBBDEwLzAtBggrBgEFBQcwAoYhaHR0cDovL25pdHBpY2tzeS5uby9j
YS90bHMtY2EuY2VyMDIGA1UdHwQrMCkwJ6AloCOGIWh0dHA6Ly9uaXRwaWNrc3ku
bm8vY2EvdGxzLWNhLmNybDA0BgNVHREELTArggxuaXRwaWNrc3kubm+CEHd3dy5u
aXRwaWNrc3kubm+CCWxvY2FsaG9zdDANBgkqhkiG9w0BAQsFAAOCAgEAYSrZ/nES
SBOHrtD1KpDE8V1/JSeuIAUHgRSV/5v0EOJErAz5x6s/XeA/ySdjSYPegiz4Dwtk
OMHIhG1rwOSOl3h8QuTwJETwMtQc2VnD5/Cl9DxYcqt/bvCKgDIdMJQIU5o+UQkq
Fb0VmL9BVOw1Pj79HyBrSVmaQO0GOdhSB6m9gRcwsHk5UFljjpq9EIB8cL6aJ/Ep
uuEtlYgouah8YrUmnJ+CljzyO06TfR5FVRTwy1kuP6mSUNe3g6QskH4v4/BZc0sV
+XfT1U68C6NetjDSWI6eQ7DIoFO7UA6PM01hFDHchXUN9/wt+AHYWtZ5D2a8ZWog
pv6Iop9g3z659AmiaBBek40pbvikP9M/WHseFqr6b83798zZsYXGGhAdDfnxmW4n
5DiN/HlKfe4mCRyQ30X/TYhrYz0B/ytsJVu7ujeqoyjEAj85+4RYNfTz7qsen3eE
9KwMTxlRuVcDOaDsdf/EIg7uziV3unQQmTBkV+JJJ/VKiUb8QR+OXp61AAjnNwix
my94LczRu+kkh6D+xwoCSXo6yaEIC7F3/ilP+dHpL4WH+aP5SlCpcnINsMsBx/jo
2U3t4OGL2B0Jd06zOyhocRyzeWX4ePzZJ5rkwAta09BliZ0QkBdOGOd/cl9zl/xL
i5lVe8LZfl5/W5z/lAwoIX+oRPzE0Co8BYs=
-----END CERTIFICATE-----
