Certificate:
    Data:
        Version: 3 (0x2)
        Serial Number:
            13:f3:99:f2:58:2a:6e:b7:74:87:df:fb:54:30:5a:52:ee:7a:34:64
        Signature Algorithm: sha256WithRSAEncryption
        Issuer: C=NO, O=Nitpicksy, OU=Nitpicksy Certificate Authority, CN=Nitpicksy TLS CA
        Validity
            Not Before: Dec  6 21:51:59 2020 GMT
            Not After : Dec  6 21:51:59 2022 GMT
        Subject: C=NO, O=Nitpicksy, OU=Nitpicksy Certificate Authority, CN=Cloud
        Subject Public Key Info:
            Public Key Algorithm: rsaEncryption
                RSA Public-Key: (4096 bit)
                Modulus:
                    00:c0:d9:24:d7:62:31:85:0b:80:bc:b7:04:c1:e7:
                    79:20:21:61:78:4a:3f:8f:9c:33:dd:04:83:89:89:
                    4b:28:54:62:5d:99:4a:7b:ce:30:39:f9:87:75:1c:
                    33:6c:da:e2:51:7a:20:a0:1f:ce:fc:e0:1f:1f:a7:
                    2f:4a:4f:c4:44:5b:9b:c7:09:c6:32:f5:f7:75:a0:
                    a6:a1:da:48:83:9f:ac:53:f4:a6:5d:b8:ce:2a:19:
                    35:d7:01:81:5b:ee:de:b0:a7:7f:3d:25:58:f0:62:
                    67:ee:e1:e5:56:3e:5e:41:bd:55:42:fe:71:95:d7:
                    1d:54:aa:6a:d1:f8:7e:bc:3f:3e:be:7d:4a:1c:2c:
                    92:47:5b:43:e6:1e:94:a9:eb:9f:35:fd:4b:08:e5:
                    2e:df:ed:42:03:a0:66:d5:c2:ee:5a:8f:9d:cc:54:
                    82:18:0c:42:45:cc:72:49:3f:f8:b2:9f:b9:12:ab:
                    24:9c:b4:2a:7d:4d:7b:76:de:e5:7a:b2:ee:85:0f:
                    95:6e:e8:28:01:d1:ae:be:d5:00:21:1b:4e:e6:cc:
                    d5:07:5f:f6:f1:f3:12:74:f5:81:d5:f1:b3:ff:10:
                    48:d0:7a:b0:ef:77:d6:9a:99:67:bc:b0:0a:fe:cb:
                    62:c5:4f:2e:89:f5:91:a2:d7:02:0a:8c:ad:3d:90:
                    02:46:82:34:26:f0:42:8a:86:77:07:2b:d3:3c:43:
                    a7:48:11:97:55:95:d0:1a:d6:bc:f1:73:03:93:1e:
                    69:38:42:58:b8:54:1d:aa:c6:ef:66:06:f9:ef:7c:
                    87:3d:18:5c:3c:8d:ed:af:3b:7c:40:e8:56:f2:ca:
                    37:cf:0b:73:51:93:16:8b:fb:6a:db:92:62:a6:b7:
                    5f:ac:c3:9c:ac:87:53:b6:1f:e4:5b:b2:ac:bb:eb:
                    29:dc:90:6b:14:a7:82:17:e2:cb:27:a1:25:1a:27:
                    a5:e3:4f:29:8d:d8:66:fb:60:1c:f2:0b:bf:f8:24:
                    95:a7:d9:23:17:20:dd:d1:ec:8a:2d:13:57:f1:18:
                    e3:52:69:25:fc:9c:e8:73:76:71:ad:b7:82:17:74:
                    48:77:cc:1d:52:94:a2:ae:c7:54:87:2e:eb:d0:d2:
                    71:73:23:3a:c4:7e:0f:cc:bc:be:95:c2:5a:8b:3c:
                    5e:b6:16:a3:65:a3:76:e0:eb:c5:f1:ac:d0:7c:43:
                    a3:9b:5f:17:e0:21:d5:0f:78:b1:8a:53:6c:3d:e1:
                    5c:f6:d2:c2:9b:25:88:90:6e:8b:f3:0f:c3:e1:8c:
                    87:8a:34:95:3d:0d:90:c1:92:df:d7:3e:9a:b7:a3:
                    dc:3e:66:e5:48:af:89:79:68:0e:d4:8e:1c:0f:54:
                    04:5c:e1
                Exponent: 65537 (0x10001)
        X509v3 extensions:
            X509v3 Key Usage: critical
                Digital Signature, Key Encipherment
            X509v3 Basic Constraints: 
                CA:FALSE
            X509v3 Extended Key Usage: 
                TLS Web Server Authentication, TLS Web Client Authentication
            X509v3 Subject Key Identifier: 
                4D:64:84:AD:4A:FE:23:ED:9B:4E:84:8C:C7:A3:2F:EC:FD:34:9F:F3
            X509v3 Authority Key Identifier: 
                keyid:20:BF:F7:C1:E5:9F:2D:61:99:7C:FA:1C:22:0D:11:35:06:9D:C9:5C

            Authority Information Access: 
                CA Issuers - URI:http://nitpicksy.no/ca/tls-ca.cer

            X509v3 CRL Distribution Points: 

                Full Name:
                  URI:http://nitpicksy.no/ca/tls-ca.crl

            X509v3 Subject Alternative Name: 
                DNS:nitpicksy.no, DNS:www.nitpicksy.no, DNS:localhost
    Signature Algorithm: sha256WithRSAEncryption
         5b:d7:94:80:d9:78:ee:f5:bd:98:53:d0:6d:d0:e2:c6:ab:b4:
         1a:ea:c4:14:59:89:1a:03:a4:2c:9f:db:ef:72:5f:28:6d:fc:
         fa:93:c6:09:d4:85:e4:41:dc:3d:f5:2d:1a:52:56:05:42:57:
         95:f5:29:d1:67:de:4f:ea:be:d0:92:82:f0:10:25:6c:ef:3f:
         ca:1d:3e:7e:e5:9d:92:78:b3:56:47:ba:70:26:27:39:b7:3b:
         20:cf:33:d8:eb:b6:c7:e7:cb:5f:34:f3:d9:38:a7:97:39:af:
         0e:6e:98:eb:c2:cb:0e:a7:1c:d5:94:af:51:c1:f3:cc:7f:c2:
         7a:4b:ab:2d:04:e1:0c:ff:2d:82:16:5d:e0:36:a7:65:a1:f6:
         29:a9:c8:1f:cf:3e:2c:2b:47:e8:49:2c:32:81:3a:1c:ab:bc:
         57:c2:e3:3b:a5:00:50:21:25:42:8e:7a:30:4a:52:46:67:1a:
         73:fa:31:84:d3:ae:94:13:02:e7:61:a7:f0:a0:81:43:43:f9:
         51:a6:30:33:4c:40:59:83:34:70:8a:d4:1f:1a:27:31:0e:9f:
         78:3d:a3:eb:d3:67:b2:79:71:68:67:72:f5:97:74:b6:8d:e2:
         90:88:f9:40:17:7e:36:04:dd:23:85:7f:5e:51:bf:eb:7e:bc:
         cb:09:62:45:2b:8a:83:e0:4c:3d:a7:3c:25:e7:9b:e4:e6:0a:
         f8:a5:7b:de:04:d6:9b:02:11:8c:b2:02:e8:cf:fd:e0:a9:9e:
         b0:d5:c6:58:5d:e6:b7:08:78:40:a1:1b:ff:ca:1f:49:e5:05:
         89:ae:71:a8:e1:65:fb:84:0c:1b:a1:be:29:94:ad:8d:20:56:
         5c:f5:06:4e:11:dc:8c:41:2c:d0:2f:06:cc:3e:fc:fc:52:00:
         b7:33:2a:f6:45:97:2b:61:5f:7f:4a:d3:1b:90:b1:47:bf:a0:
         2e:e4:0a:0b:0e:79:a6:35:a6:c8:46:34:a2:41:ee:45:d3:dc:
         03:87:a0:6c:d8:20:68:be:0f:bf:ab:89:a7:6f:5e:33:0c:40:
         d6:2d:d5:d5:50:ee:01:64:32:df:df:6a:de:6e:50:28:40:cb:
         66:a5:a5:e9:63:75:bc:bd:61:0e:42:a9:03:a3:77:10:8b:ab:
         0b:01:d6:5b:ac:93:59:c7:0f:9d:f3:ed:a7:84:9e:9e:67:9f:
         a6:eb:b2:7d:08:28:8e:25:c5:2c:02:58:9d:4d:43:2d:d7:ba:
         43:8e:58:1d:82:c2:08:ac:c4:1a:ef:d6:89:2f:9a:6f:99:93:
         7b:65:16:80:11:57:04:9c:e9:44:b7:ec:c3:e5:3e:7e:26:36:
         22:e6:00:a1:0c:01:23:ae
-----BEGIN CERTIFICATE-----
MIIGeDCCBGCgAwIBAgIUE/OZ8lgqbrd0h9/7VDBaUu56NGQwDQYJKoZIhvcNAQEL
BQAwZjELMAkGA1UEBhMCTk8xEjAQBgNVBAoMCU5pdHBpY2tzeTEoMCYGA1UECwwf
Tml0cGlja3N5IENlcnRpZmljYXRlIEF1dGhvcml0eTEZMBcGA1UEAwwQTml0cGlj
a3N5IFRMUyBDQTAeFw0yMDEyMDYyMTUxNTlaFw0yMjEyMDYyMTUxNTlaMFsxCzAJ
BgNVBAYTAk5PMRIwEAYDVQQKDAlOaXRwaWNrc3kxKDAmBgNVBAsMH05pdHBpY2tz
eSBDZXJ0aWZpY2F0ZSBBdXRob3JpdHkxDjAMBgNVBAMMBUNsb3VkMIICIjANBgkq
hkiG9w0BAQEFAAOCAg8AMIICCgKCAgEAwNkk12IxhQuAvLcEwed5ICFheEo/j5wz
3QSDiYlLKFRiXZlKe84wOfmHdRwzbNriUXogoB/O/OAfH6cvSk/ERFubxwnGMvX3
daCmodpIg5+sU/SmXbjOKhk11wGBW+7esKd/PSVY8GJn7uHlVj5eQb1VQv5xldcd
VKpq0fh+vD8+vn1KHCySR1tD5h6UqeufNf1LCOUu3+1CA6Bm1cLuWo+dzFSCGAxC
RcxyST/4sp+5EqsknLQqfU17dt7lerLuhQ+VbugoAdGuvtUAIRtO5szVB1/28fMS
dPWB1fGz/xBI0Hqw73fWmplnvLAK/stixU8uifWRotcCCoytPZACRoI0JvBCioZ3
ByvTPEOnSBGXVZXQGta88XMDkx5pOEJYuFQdqsbvZgb573yHPRhcPI3trzt8QOhW
8so3zwtzUZMWi/tq25JiprdfrMOcrIdTth/kW7Ksu+sp3JBrFKeCF+LLJ6ElGiel
408pjdhm+2Ac8gu/+CSVp9kjFyDd0eyKLRNX8RjjUmkl/Jzoc3ZxrbeCF3RId8wd
UpSirsdUhy7r0NJxcyM6xH4PzLy+lcJaizxethajZaN24OvF8azQfEOjm18X4CHV
D3ixilNsPeFc9tLCmyWIkG6L8w/D4YyHijSVPQ2QwZLf1z6at6PcPmblSK+JeWgO
1I4cD1QEXOECAwEAAaOCAScwggEjMA4GA1UdDwEB/wQEAwIFoDAJBgNVHRMEAjAA
MB0GA1UdJQQWMBQGCCsGAQUFBwMBBggrBgEFBQcDAjAdBgNVHQ4EFgQUTWSErUr+
I+2bToSMx6Mv7P00n/MwHwYDVR0jBBgwFoAUIL/3weWfLWGZfPocIg0RNQadyVww
PQYIKwYBBQUHAQEEMTAvMC0GCCsGAQUFBzAChiFodHRwOi8vbml0cGlja3N5Lm5v
L2NhL3Rscy1jYS5jZXIwMgYDVR0fBCswKTAnoCWgI4YhaHR0cDovL25pdHBpY2tz
eS5uby9jYS90bHMtY2EuY3JsMDQGA1UdEQQtMCuCDG5pdHBpY2tzeS5ub4IQd3d3
Lm5pdHBpY2tzeS5ub4IJbG9jYWxob3N0MA0GCSqGSIb3DQEBCwUAA4ICAQBb15SA
2Xju9b2YU9Bt0OLGq7Qa6sQUWYkaA6Qsn9vvcl8obfz6k8YJ1IXkQdw99S0aUlYF
QleV9SnRZ95P6r7QkoLwECVs7z/KHT5+5Z2SeLNWR7pwJic5tzsgzzPY67bH58tf
NPPZOKeXOa8ObpjrwssOpxzVlK9RwfPMf8J6S6stBOEM/y2CFl3gNqdlofYpqcgf
zz4sK0foSSwygTocq7xXwuM7pQBQISVCjnowSlJGZxpz+jGE066UEwLnYafwoIFD
Q/lRpjAzTEBZgzRwitQfGicxDp94PaPr02eyeXFoZ3L1l3S2jeKQiPlAF342BN0j
hX9eUb/rfrzLCWJFK4qD4Ew9pzwl55vk5gr4pXveBNabAhGMsgLoz/3gqZ6w1cZY
Xea3CHhAoRv/yh9J5QWJrnGo4WX7hAwbob4plK2NIFZc9QZOEdyMQSzQLwbMPvz8
UgC3Myr2RZcrYV9/StMbkLFHv6Au5AoLDnmmNabIRjSiQe5F09wDh6Bs2CBovg+/
q4mnb14zDEDWLdXVUO4BZDLf32reblAoQMtmpaXpY3W8vWEOQqkDo3cQi6sLAdZb
rJNZxw+d8+2nhJ6eZ5+m67J9CCiOJcUsAlidTUMt17pDjlgdgsIIrMQa79aJL5pv
mZN7ZRaAEVcEnOlEt+zD5T5+JjYi5gChDAEjrg==
-----END CERTIFICATE-----
