Certificate:
    Data:
        Version: 3 (0x2)
        Serial Number:
            17:15:57:90:3e:ca:9b:ff:be:2f:a4:69:29:54:65:28:cd:df:b6:90
        Signature Algorithm: sha256WithRSAEncryption
        Issuer: C=NO, O=Nitpicksy, OU=Nitpicksy Certificate Authority, CN=Nitpicksy TLS CA
        Validity
            Not Before: Dec 11 23:35:57 2020 GMT
            Not After : Dec 11 23:35:57 2022 GMT
        Subject: C=NO, O=Nitpicksy, OU=Nitpicksy Certificate Authority, CN=Paypal
        Subject Public Key Info:
            Public Key Algorithm: rsaEncryption
                RSA Public-Key: (4096 bit)
                Modulus:
                    00:c8:ee:05:83:64:ca:d3:57:af:d9:b4:27:1a:7d:
                    8e:dd:52:a0:8c:16:96:fe:b2:52:04:04:c4:ea:7b:
                    d4:67:82:90:4b:6e:85:fb:00:e6:f7:3e:df:15:5e:
                    76:dc:85:ce:fd:ee:f0:01:da:13:66:c8:2d:46:9e:
                    3d:01:a8:d4:6d:3b:d1:b8:62:ae:17:94:fc:f2:6b:
                    4c:29:2e:a8:e7:99:74:33:cd:52:15:8b:c2:87:46:
                    8e:37:6f:12:bd:8c:eb:3c:41:e0:43:06:de:0d:85:
                    41:48:2a:67:3e:c7:ef:3c:77:bb:95:27:ef:1b:78:
                    f7:09:68:dc:5a:8b:21:bb:90:8a:5a:72:53:62:cf:
                    97:b3:05:e8:23:21:47:d4:3d:9a:ea:a2:80:0d:57:
                    93:f1:c1:5d:6b:32:3a:f8:09:48:75:92:23:6b:7a:
                    d6:8b:cd:5f:57:d3:3d:69:aa:df:ba:0d:f0:88:de:
                    19:fc:d5:d5:ed:2d:9b:8a:5f:58:e3:4e:02:58:37:
                    17:14:89:2f:cb:33:72:8b:74:06:8d:fb:d2:06:07:
                    f3:90:f9:ec:ce:f6:5f:12:54:01:98:ed:36:54:00:
                    f3:27:c7:43:94:59:c5:73:37:e8:20:23:8b:42:cf:
                    d1:52:3d:f1:01:eb:70:58:74:77:b0:65:e6:76:24:
                    4b:f9:4a:d9:cd:f5:fd:ec:85:12:6f:de:b7:b2:a6:
                    b1:a7:25:9e:c6:a3:46:90:73:a6:a1:85:8d:24:05:
                    13:0c:8b:65:ba:14:ae:d7:38:bb:e6:3f:bc:5d:2e:
                    28:69:29:a7:d2:17:8c:43:8e:6f:4c:7c:3e:d8:01:
                    9b:a0:ea:46:bd:4b:b2:45:45:d0:17:0d:75:29:93:
                    41:69:53:78:60:26:7e:09:69:95:05:fe:eb:09:77:
                    9f:4c:00:fd:92:e4:36:20:e6:78:e8:eb:a0:3c:d9:
                    8d:f0:1a:5c:c2:de:be:30:84:39:d0:b9:c7:c2:c5:
                    d8:8f:cd:bb:ba:c3:5b:17:96:d3:c7:20:50:8a:22:
                    fe:07:02:9e:55:e5:7a:a3:3d:52:9b:01:ca:09:26:
                    ae:cd:78:a2:02:b9:2e:d3:de:74:aa:86:2d:59:38:
                    41:d7:f3:6c:94:b0:14:eb:6d:de:d4:68:01:77:7c:
                    bf:b6:4f:e0:82:9f:84:c9:82:e9:b7:ba:f1:3a:2b:
                    75:8b:34:2c:4d:11:1b:59:45:cf:87:cf:8d:94:4c:
                    78:dc:58:51:02:b1:d7:d6:02:b4:31:fd:8f:51:f9:
                    21:98:07:bf:13:d4:0e:66:2c:57:9a:11:3f:6b:75:
                    6e:f9:b6:4f:a0:35:bc:8c:9e:dc:a8:7a:c2:ae:40:
                    5a:06:27
                Exponent: 65537 (0x10001)
        X509v3 extensions:
            X509v3 Key Usage: critical
                Digital Signature, Key Encipherment
            X509v3 Basic Constraints: 
                CA:FALSE
            X509v3 Extended Key Usage: 
                TLS Web Server Authentication, TLS Web Client Authentication
            X509v3 Subject Key Identifier: 
                6E:40:F9:06:E1:4D:2A:49:E1:3D:02:CE:C0:4E:C3:8A:EE:CD:51:30
            X509v3 Authority Key Identifier: 
                keyid:99:B8:0A:C6:F9:8F:63:32:21:3F:40:58:30:B1:09:38:21:F0:EA:62

            Authority Information Access: 
                CA Issuers - URI:http://nitpicksy.no/ca/tls-ca.cer

            X509v3 CRL Distribution Points: 

                Full Name:
                  URI:http://nitpicksy.no/ca/tls-ca.crl

            X509v3 Subject Alternative Name: 
                DNS:nitpicksy.no, DNS:www.nitpicksy.no, DNS:localhost, IP Address:127.0.0.1
    Signature Algorithm: sha256WithRSAEncryption
         86:dc:44:da:07:52:8d:c4:60:aa:df:3b:42:63:4b:11:ed:16:
         e5:00:da:53:2e:9d:a6:8d:94:7f:01:dd:78:12:70:af:c1:00:
         22:94:e3:b6:d8:79:1c:df:c9:e9:de:3e:57:2d:cc:44:49:56:
         32:0d:f4:6c:73:c6:27:52:9c:0e:e9:17:4f:75:e8:eb:9f:d2:
         89:17:01:04:1d:a5:8f:9d:c6:30:2f:df:e9:16:33:da:35:c3:
         05:9b:0b:23:b6:19:dd:13:22:d5:ef:24:5f:49:78:70:4c:e2:
         ac:da:ab:41:d7:c0:60:18:f1:c8:eb:d9:a6:b3:56:51:a8:04:
         9f:0f:40:8b:99:2e:04:5a:45:b6:32:63:df:84:f6:f3:4f:aa:
         42:10:f3:fa:98:0a:69:90:53:9e:40:26:e3:cd:51:8f:0f:3c:
         00:f7:07:dc:05:30:d2:66:06:9d:66:ee:c4:3e:c9:58:a6:9c:
         74:5b:18:31:58:f6:3b:00:b8:65:a6:fc:9a:1c:8a:c6:18:6c:
         9d:9a:c9:4e:3a:98:0d:49:f4:49:9d:98:ff:08:e2:f0:d3:ee:
         40:a1:2d:e2:70:a1:e7:dd:3f:30:a2:4e:94:ce:59:5d:70:c0:
         60:0f:dc:25:3f:1b:9a:3a:84:b2:ca:f7:2e:d0:4a:f8:3a:5d:
         3b:21:e0:89:46:c0:92:27:ed:b0:1c:8a:d9:63:b0:e2:5e:e9:
         76:d9:59:c0:c8:23:53:c3:43:b0:bb:be:75:c3:9d:af:05:88:
         de:d5:2d:e8:f1:7f:55:de:18:12:4d:73:06:ff:b2:ef:06:8d:
         25:22:6a:00:95:a3:63:a6:69:29:28:17:3a:6a:00:91:4f:a8:
         1e:3f:7e:b6:61:7f:cd:b9:e1:84:eb:c4:be:42:46:34:7e:e1:
         11:0f:4a:e6:18:57:d7:7c:8b:ad:a6:6e:b3:e3:1a:cb:05:ba:
         f4:4b:81:19:d1:db:05:be:7f:a4:48:83:82:05:1c:a0:30:3d:
         a3:20:64:c1:5f:b3:1c:b1:4c:cb:8e:70:34:63:67:01:3b:c1:
         e3:e9:4c:dd:29:5b:15:48:c6:25:d7:65:47:91:65:09:6e:bf:
         25:17:8d:67:be:77:67:34:e0:6f:6c:8c:be:95:82:a0:aa:c8:
         2d:40:e1:15:46:85:e6:41:02:51:ef:39:9a:67:3a:0e:62:2a:
         65:e4:58:4c:5b:95:13:69:3d:9f:b5:73:ae:f5:7a:6a:ec:8a:
         3d:da:08:d6:81:f6:e5:6f:8f:a0:21:8e:71:9a:64:13:7a:2a:
         8a:68:27:c4:5c:dc:c2:2b:49:c7:e4:80:91:cd:00:54:4d:9f:
         a2:03:08:21:65:69:5e:9e
-----BEGIN CERTIFICATE-----
MIIGfzCCBGegAwIBAgIUFxVXkD7Km/++L6RpKVRlKM3ftpAwDQYJKoZIhvcNAQEL
BQAwZjELMAkGA1UEBhMCTk8xEjAQBgNVBAoMCU5pdHBpY2tzeTEoMCYGA1UECwwf
Tml0cGlja3N5IENlcnRpZmljYXRlIEF1dGhvcml0eTEZMBcGA1UEAwwQTml0cGlj
a3N5IFRMUyBDQTAeFw0yMDEyMTEyMzM1NTdaFw0yMjEyMTEyMzM1NTdaMFwxCzAJ
BgNVBAYTAk5PMRIwEAYDVQQKDAlOaXRwaWNrc3kxKDAmBgNVBAsMH05pdHBpY2tz
eSBDZXJ0aWZpY2F0ZSBBdXRob3JpdHkxDzANBgNVBAMMBlBheXBhbDCCAiIwDQYJ
KoZIhvcNAQEBBQADggIPADCCAgoCggIBAMjuBYNkytNXr9m0Jxp9jt1SoIwWlv6y
UgQExOp71GeCkEtuhfsA5vc+3xVedtyFzv3u8AHaE2bILUaePQGo1G070bhirheU
/PJrTCkuqOeZdDPNUhWLwodGjjdvEr2M6zxB4EMG3g2FQUgqZz7H7zx3u5Un7xt4
9wlo3FqLIbuQilpyU2LPl7MF6CMhR9Q9muqigA1Xk/HBXWsyOvgJSHWSI2t61ovN
X1fTPWmq37oN8IjeGfzV1e0tm4pfWONOAlg3FxSJL8szcot0Bo370gYH85D57M72
XxJUAZjtNlQA8yfHQ5RZxXM36CAji0LP0VI98QHrcFh0d7Bl5nYkS/lK2c31/eyF
Em/et7KmsaclnsajRpBzpqGFjSQFEwyLZboUrtc4u+Y/vF0uKGkpp9IXjEOOb0x8
PtgBm6DqRr1LskVF0BcNdSmTQWlTeGAmfglplQX+6wl3n0wA/ZLkNiDmeOjroDzZ
jfAaXMLevjCEOdC5x8LF2I/Nu7rDWxeW08cgUIoi/gcCnlXleqM9UpsBygkmrs14
ogK5LtPedKqGLVk4QdfzbJSwFOtt3tRoAXd8v7ZP4IKfhMmC6be68TordYs0LE0R
G1lFz4fPjZRMeNxYUQKx19YCtDH9j1H5IZgHvxPUDmYsV5oRP2t1bvm2T6A1vIye
3Kh6wq5AWgYnAgMBAAGjggEtMIIBKTAOBgNVHQ8BAf8EBAMCBaAwCQYDVR0TBAIw
ADAdBgNVHSUEFjAUBggrBgEFBQcDAQYIKwYBBQUHAwIwHQYDVR0OBBYEFG5A+Qbh
TSpJ4T0CzsBOw4ruzVEwMB8GA1UdIwQYMBaAFJm4Csb5j2MyIT9AWDCxCTgh8Opi
MD0GCCsGAQUFBwEBBDEwLzAtBggrBgEFBQcwAoYhaHR0cDovL25pdHBpY2tzeS5u
by9jYS90bHMtY2EuY2VyMDIGA1UdHwQrMCkwJ6AloCOGIWh0dHA6Ly9uaXRwaWNr
c3kubm8vY2EvdGxzLWNhLmNybDA6BgNVHREEMzAxggxuaXRwaWNrc3kubm+CEHd3
dy5uaXRwaWNrc3kubm+CCWxvY2FsaG9zdIcEfwAAATANBgkqhkiG9w0BAQsFAAOC
AgEAhtxE2gdSjcRgqt87QmNLEe0W5QDaUy6dpo2UfwHdeBJwr8EAIpTjtth5HN/J
6d4+Vy3MRElWMg30bHPGJ1KcDukXT3Xo65/SiRcBBB2lj53GMC/f6RYz2jXDBZsL
I7YZ3RMi1e8kX0l4cEzirNqrQdfAYBjxyOvZprNWUagEnw9Ai5kuBFpFtjJj34T2
80+qQhDz+pgKaZBTnkAm481Rjw88APcH3AUw0mYGnWbuxD7JWKacdFsYMVj2OwC4
Zab8mhyKxhhsnZrJTjqYDUn0SZ2Y/wji8NPuQKEt4nCh590/MKJOlM5ZXXDAYA/c
JT8bmjqEssr3LtBK+DpdOyHgiUbAkiftsByK2WOw4l7pdtlZwMgjU8NDsLu+dcOd
rwWI3tUt6PF/Vd4YEk1zBv+y7waNJSJqAJWjY6ZpKSgXOmoAkU+oHj9+tmF/zbnh
hOvEvkJGNH7hEQ9K5hhX13yLraZus+MaywW69EuBGdHbBb5/pEiDggUcoDA9oyBk
wV+zHLFMy45wNGNnATvB4+lM3SlbFUjGJddlR5FlCW6/JReNZ753ZzTgb2yMvpWC
oKrILUDhFUaF5kECUe85mmc6DmIqZeRYTFuVE2k9n7VzrvV6auyKPdoI1oH25W+P
oCGOcZpkE3oqimgnxFzcwitJx+SAkc0AVE2fogMIIWVpXp4=
-----END CERTIFICATE-----
