Certificate:
    Data:
        Version: 3 (0x2)
        Serial Number:
            18:3f:31:79:d6:37:09:68:40:cd:ac:ff:d3:6f:9d:c4:86:68:df:3e
        Signature Algorithm: sha256WithRSAEncryption
        Issuer: C=NO, O=Nitpicksy, OU=Nitpicksy Certificate Authority, CN=Nitpicksy TLS CA
        Validity
            Not Before: Dec 11 23:35:59 2020 GMT
            Not After : Dec 11 23:35:59 2022 GMT
        Subject: C=NO, O=Nitpicksy, OU=Nitpicksy Certificate Authority, CN=PCC
        Subject Public Key Info:
            Public Key Algorithm: rsaEncryption
                RSA Public-Key: (4096 bit)
                Modulus:
                    00:e6:44:3b:e4:27:33:ba:40:f4:65:f9:bc:4e:a5:
                    cd:88:d0:2e:ed:af:3d:00:b1:34:d4:c7:c1:ac:0e:
                    e3:a4:b4:4c:68:31:d6:80:ee:fd:1e:f6:e0:fe:ef:
                    f4:08:f7:aa:8e:86:84:6a:ed:23:11:5e:9c:3d:3c:
                    cf:7e:54:cb:f2:6d:21:1b:6e:1b:4d:93:cc:ef:28:
                    c6:b6:0a:69:15:1f:21:84:9d:c2:c6:ba:03:ec:33:
                    ea:5e:4e:fe:7d:4c:77:21:a0:2b:2c:18:44:a8:a7:
                    d3:29:f6:1d:81:57:bc:eb:77:9f:3b:8e:64:12:4f:
                    cc:4c:7f:dd:92:33:97:c2:80:f9:57:75:fe:f9:56:
                    02:96:ee:73:75:e8:e9:63:ff:eb:c5:9c:54:ce:f0:
                    30:a4:b1:7a:04:3e:a7:37:dc:4e:07:65:c0:11:cb:
                    37:a5:2b:53:ef:bf:34:88:97:a2:28:a1:17:df:da:
                    64:00:b7:81:21:09:c7:68:21:a4:f3:f3:29:8d:56:
                    03:47:dc:61:dd:43:9a:c2:40:5d:e0:64:bc:37:ab:
                    35:35:c0:07:03:0a:8d:ac:f1:2d:94:a7:35:51:4d:
                    a8:66:91:67:d6:48:c3:1c:93:51:07:51:01:d7:42:
                    90:1b:2f:80:65:98:77:61:10:b5:5f:6f:d9:f0:91:
                    03:17:21:b7:5d:91:3c:21:70:f9:a5:03:34:aa:68:
                    09:4d:43:1f:46:8e:3b:24:9a:2a:00:48:97:5f:b7:
                    92:2c:25:3b:c3:b6:12:59:99:b3:5f:e9:da:6f:8e:
                    99:8e:96:75:e1:ae:1e:cc:e3:fc:b4:14:93:86:77:
                    82:4a:1d:c9:76:f1:8a:05:99:ad:0f:26:44:bb:e8:
                    64:a3:50:3e:cc:aa:1e:e4:e0:88:df:84:12:06:ac:
                    40:5f:30:3a:f1:2f:9a:41:26:e7:99:80:60:1f:5d:
                    5d:9d:bc:46:99:16:11:ed:93:a1:e6:46:ac:27:3b:
                    a3:d7:05:05:1a:a4:65:b4:51:70:c9:2f:6d:8b:09:
                    bd:47:e2:d2:75:1a:64:bc:b2:d6:19:d7:c8:79:1d:
                    1a:f7:25:60:e7:86:91:79:7d:d8:ec:c0:a3:bd:ce:
                    2b:1f:c8:3c:e9:08:61:3a:03:72:92:b2:cb:df:0c:
                    41:d8:d1:94:37:05:28:60:80:8c:34:ab:d2:86:08:
                    a6:02:cb:6b:2a:f2:53:d1:c9:2b:76:99:9b:f8:7d:
                    0c:40:12:a5:25:81:2a:90:02:cc:dc:c2:90:66:b4:
                    82:99:06:67:e9:d2:d3:97:94:b7:7c:fd:00:4e:43:
                    1e:07:c5:b6:00:e5:b4:cb:c3:e5:cd:07:f1:81:87:
                    35:ba:99
                Exponent: 65537 (0x10001)
        X509v3 extensions:
            X509v3 Key Usage: critical
                Digital Signature, Key Encipherment
            X509v3 Basic Constraints: 
                CA:FALSE
            X509v3 Extended Key Usage: 
                TLS Web Server Authentication, TLS Web Client Authentication
            X509v3 Subject Key Identifier: 
                EE:47:F4:47:7B:93:C4:4C:A1:69:7B:8B:F8:14:C6:14:2E:8D:D8:13
            X509v3 Authority Key Identifier: 
                keyid:99:B8:0A:C6:F9:8F:63:32:21:3F:40:58:30:B1:09:38:21:F0:EA:62

            Authority Information Access: 
                CA Issuers - URI:http://nitpicksy.no/ca/tls-ca.cer

            X509v3 CRL Distribution Points: 

                Full Name:
                  URI:http://nitpicksy.no/ca/tls-ca.crl

            X509v3 Subject Alternative Name: 
                DNS:nitpicksy.no, DNS:www.nitpicksy.no, DNS:localhost, IP Address:127.0.0.1
    Signature Algorithm: sha256WithRSAEncryption
         2c:2b:85:78:47:c8:bc:b3:df:71:81:8c:41:6e:d2:88:e3:d6:
         f8:38:86:19:b3:03:e1:5a:5f:b8:3b:f3:ae:78:e5:3a:29:87:
         d0:b7:65:8e:80:bd:06:6c:bc:a5:92:64:a6:8c:f6:7f:b6:7c:
         3d:fd:f5:f0:de:e2:e6:78:4a:d5:d7:d4:4c:2a:ed:8d:34:50:
         ba:69:7c:99:10:9c:a8:cf:62:ba:d4:3e:ec:f8:33:b9:b3:05:
         7d:c3:05:41:67:6e:7a:b6:1b:ac:f9:cb:f2:73:02:5c:dc:5c:
         a2:ba:60:f5:3e:52:5f:48:9e:d8:9d:82:71:9a:91:a8:e2:62:
         be:f0:2b:ba:03:96:40:0d:2d:dc:b5:53:c2:48:4f:36:2e:e0:
         e4:83:5e:5e:9f:5e:27:89:bd:c8:93:9a:c8:1d:41:27:87:95:
         81:45:f1:46:a7:99:31:e5:66:c7:b8:13:6f:a6:47:db:81:bb:
         82:12:13:66:5d:19:73:74:de:54:4c:8e:57:f3:d1:f2:c8:29:
         93:30:3d:38:ce:ae:d9:7d:c6:18:4d:0e:30:ef:b4:79:57:df:
         5b:89:1f:35:54:65:5c:53:39:33:08:56:ec:47:9d:ac:b8:07:
         df:93:4c:6d:90:ad:fe:ad:7d:2e:a4:f5:25:d7:ac:10:ec:fb:
         10:70:7d:36:b6:9c:07:68:63:30:fb:2c:93:b7:f1:c3:a5:fe:
         29:33:48:f2:aa:fc:fd:60:92:80:f5:ea:ed:28:98:27:78:62:
         3f:7a:52:68:bd:ea:8f:d4:8f:49:68:85:14:a4:d9:9c:a3:7c:
         75:c3:4c:da:b9:e5:b4:18:d5:5d:4d:ec:ae:24:09:28:47:74:
         c7:9b:91:31:9b:81:c6:40:3a:d9:24:00:93:b9:ca:2b:18:4a:
         f4:8c:7f:ae:ca:e0:a5:db:a7:fa:8b:c3:55:a5:84:49:70:47:
         e6:5f:e4:9e:66:f7:75:5b:f6:23:ce:de:e9:dc:b0:d3:be:7b:
         ae:f3:42:4d:0f:95:c5:47:eb:40:a2:bc:3d:a1:07:63:57:f2:
         9f:11:13:88:67:58:72:46:7a:dc:9e:0c:bc:6d:09:91:ed:be:
         7b:60:28:82:f5:7d:d4:23:30:a2:af:b2:ef:dc:45:3c:9b:5b:
         8f:18:5f:55:17:fb:67:0c:c7:e8:36:71:f2:ff:58:7c:e6:2a:
         38:dc:4f:d9:26:08:a6:b9:56:ab:64:c9:09:18:90:db:71:ce:
         66:7f:a2:22:2d:63:b3:1c:16:11:07:ed:3b:e4:1c:4c:cd:67:
         83:97:bf:1c:c5:2e:69:1a:be:47:ab:d3:d6:a8:b4:2b:7e:3d:
         11:ee:26:2b:3a:4c:0b:15
-----BEGIN CERTIFICATE-----
MIIGfDCCBGSgAwIBAgIUGD8xedY3CWhAzaz/02+dxIZo3z4wDQYJKoZIhvcNAQEL
BQAwZjELMAkGA1UEBhMCTk8xEjAQBgNVBAoMCU5pdHBpY2tzeTEoMCYGA1UECwwf
Tml0cGlja3N5IENlcnRpZmljYXRlIEF1dGhvcml0eTEZMBcGA1UEAwwQTml0cGlj
a3N5IFRMUyBDQTAeFw0yMDEyMTEyMzM1NTlaFw0yMjEyMTEyMzM1NTlaMFkxCzAJ
BgNVBAYTAk5PMRIwEAYDVQQKDAlOaXRwaWNrc3kxKDAmBgNVBAsMH05pdHBpY2tz
eSBDZXJ0aWZpY2F0ZSBBdXRob3JpdHkxDDAKBgNVBAMMA1BDQzCCAiIwDQYJKoZI
hvcNAQEBBQADggIPADCCAgoCggIBAOZEO+QnM7pA9GX5vE6lzYjQLu2vPQCxNNTH
wawO46S0TGgx1oDu/R724P7v9Aj3qo6GhGrtIxFenD08z35Uy/JtIRtuG02TzO8o
xrYKaRUfIYSdwsa6A+wz6l5O/n1MdyGgKywYRKin0yn2HYFXvOt3nzuOZBJPzEx/
3ZIzl8KA+Vd1/vlWApbuc3Xo6WP/68WcVM7wMKSxegQ+pzfcTgdlwBHLN6UrU++/
NIiXoiihF9/aZAC3gSEJx2ghpPPzKY1WA0fcYd1DmsJAXeBkvDerNTXABwMKjazx
LZSnNVFNqGaRZ9ZIwxyTUQdRAddCkBsvgGWYd2EQtV9v2fCRAxcht12RPCFw+aUD
NKpoCU1DH0aOOySaKgBIl1+3kiwlO8O2ElmZs1/p2m+OmY6WdeGuHszj/LQUk4Z3
gkodyXbxigWZrQ8mRLvoZKNQPsyqHuTgiN+EEgasQF8wOvEvmkEm55mAYB9dXZ28
RpkWEe2ToeZGrCc7o9cFBRqkZbRRcMkvbYsJvUfi0nUaZLyy1hnXyHkdGvclYOeG
kXl92OzAo73OKx/IPOkIYToDcpKyy98MQdjRlDcFKGCAjDSr0oYIpgLLayryU9HJ
K3aZm/h9DEASpSWBKpACzNzCkGa0gpkGZ+nS05eUt3z9AE5DHgfFtgDltMvD5c0H
8YGHNbqZAgMBAAGjggEtMIIBKTAOBgNVHQ8BAf8EBAMCBaAwCQYDVR0TBAIwADAd
BgNVHSUEFjAUBggrBgEFBQcDAQYIKwYBBQUHAwIwHQYDVR0OBBYEFO5H9Ed7k8RM
oWl7i/gUxhQujdgTMB8GA1UdIwQYMBaAFJm4Csb5j2MyIT9AWDCxCTgh8OpiMD0G
CCsGAQUFBwEBBDEwLzAtBggrBgEFBQcwAoYhaHR0cDovL25pdHBpY2tzeS5uby9j
YS90bHMtY2EuY2VyMDIGA1UdHwQrMCkwJ6AloCOGIWh0dHA6Ly9uaXRwaWNrc3ku
bm8vY2EvdGxzLWNhLmNybDA6BgNVHREEMzAxggxuaXRwaWNrc3kubm+CEHd3dy5u
aXRwaWNrc3kubm+CCWxvY2FsaG9zdIcEfwAAATANBgkqhkiG9w0BAQsFAAOCAgEA
LCuFeEfIvLPfcYGMQW7SiOPW+DiGGbMD4VpfuDvzrnjlOimH0LdljoC9Bmy8pZJk
poz2f7Z8Pf318N7i5nhK1dfUTCrtjTRQuml8mRCcqM9iutQ+7PgzubMFfcMFQWdu
erYbrPnL8nMCXNxcorpg9T5SX0ie2J2CcZqRqOJivvArugOWQA0t3LVTwkhPNi7g
5INeXp9eJ4m9yJOayB1BJ4eVgUXxRqeZMeVmx7gTb6ZH24G7ghITZl0Zc3TeVEyO
V/PR8sgpkzA9OM6u2X3GGE0OMO+0eVffW4kfNVRlXFM5MwhW7EedrLgH35NMbZCt
/q19LqT1JdesEOz7EHB9NracB2hjMPssk7fxw6X+KTNI8qr8/WCSgPXq7SiYJ3hi
P3pSaL3qj9SPSWiFFKTZnKN8dcNM2rnltBjVXU3sriQJKEd0x5uRMZuBxkA62SQA
k7nKKxhK9Ix/rsrgpdun+ovDVaWESXBH5l/knmb3dVv2I87e6dyw0757rvNCTQ+V
xUfrQKK8PaEHY1fynxETiGdYckZ63J4MvG0Jke2+e2AogvV91CMwoq+y79xFPJtb
jxhfVRf7ZwzH6DZx8v9YfOYqONxP2SYIprlWq2TJCRiQ23HOZn+iIi1jsxwWEQft
O+QcTM1ng5e/HMUuaRq+R6vT1qi0K349Ee4mKzpMCxU=
-----END CERTIFICATE-----
