Certificate:
    Data:
        Version: 3 (0x2)
        Serial Number:
            1b:d4:bf:61:6f:bb:d2:76:d2:97:2d:8c:dd:85:d0:cd:a2:19:30:73
        Signature Algorithm: sha256WithRSAEncryption
        Issuer: C=NO, O=Nitpicksy, OU=Nitpicksy Certificate Authority, CN=Nitpicksy TLS CA
        Validity
            Not Before: Dec  6 22:08:22 2020 GMT
            Not After : Dec  6 22:08:22 2022 GMT
        Subject: C=NO, O=Nitpicksy, OU=Nitpicksy Certificate Authority, CN=Payment Gateway
        Subject Public Key Info:
            Public Key Algorithm: rsaEncryption
                RSA Public-Key: (4096 bit)
                Modulus:
                    00:e9:b4:e6:18:42:be:58:6f:4a:07:d4:b8:0f:d4:
                    f8:70:01:25:b0:a6:a3:35:0b:9a:c8:e9:fd:b8:5f:
                    16:92:32:16:07:71:3e:b8:66:4e:d1:0d:91:ae:42:
                    5e:1b:ca:a0:94:62:84:82:bd:b3:86:f6:fd:54:bd:
                    77:c5:6d:3c:fd:74:70:58:00:f2:6b:ed:89:b4:f3:
                    c6:61:81:65:3a:c5:71:5a:77:7a:8a:10:73:8c:3d:
                    4e:85:ad:5a:98:db:7a:da:00:f2:2b:5c:c0:b3:aa:
                    55:f3:54:dd:9c:b7:49:e4:3f:78:48:e3:72:dd:c4:
                    11:ae:65:a1:c5:c0:f4:5a:32:40:de:b3:33:2d:c9:
                    bf:0b:88:20:11:18:be:77:cb:b9:ca:82:05:77:6c:
                    41:80:e4:f5:13:2e:7b:0e:72:ea:a9:6a:d1:4b:4c:
                    9b:82:0c:2f:57:94:43:64:78:d0:27:3e:1d:1f:19:
                    72:0f:7a:65:b3:49:2f:f6:47:64:7d:12:9b:43:48:
                    82:ff:a6:24:bb:31:ca:f9:8b:af:a5:9e:97:d0:87:
                    4a:49:82:38:fb:3a:dd:71:39:8a:ef:f7:1f:f0:9e:
                    9a:bc:5b:80:70:8b:31:92:0a:c1:d1:96:1c:71:9c:
                    79:d0:88:2a:ba:67:d7:5b:dc:b6:f7:96:18:9e:cc:
                    2c:60:5e:5e:f6:09:98:48:67:19:de:59:7f:58:07:
                    1c:55:8e:ec:87:a8:2c:a2:27:55:48:87:c8:7e:ca:
                    b8:f3:ed:ba:a1:6a:e0:05:16:f7:c7:ca:d2:2c:73:
                    e1:dc:f2:46:92:42:a5:72:1a:73:ab:26:ab:56:ba:
                    b9:9b:f5:c1:f5:07:46:55:2f:81:a1:59:37:5f:03:
                    df:53:ea:52:62:fb:04:b7:31:60:e6:07:30:d5:16:
                    63:9e:d8:49:d5:28:89:b6:87:a6:b8:28:69:cb:ff:
                    5d:d9:22:71:d3:22:84:da:76:c8:be:c8:d1:9a:07:
                    da:58:9e:73:e7:0f:df:ff:34:34:25:ef:82:73:39:
                    bd:44:fe:4c:64:c0:8c:8e:66:34:e1:a6:d0:6d:f9:
                    e0:66:a8:fa:c6:b6:43:29:61:f9:42:e8:65:04:e5:
                    0d:f1:17:63:1f:da:0c:9c:c4:e3:df:c6:85:88:a1:
                    a0:a0:1c:7b:05:58:04:d4:13:db:b7:54:3c:5a:7a:
                    d7:c5:48:ba:a1:07:d7:e2:12:b4:f8:33:83:07:49:
                    32:94:a6:67:44:aa:3b:07:26:9a:bb:95:b7:f9:0e:
                    3b:33:46:df:8b:c2:0c:2d:be:07:7a:91:ee:45:79:
                    55:b6:17:e6:77:5a:13:06:2a:75:33:38:cf:5e:85:
                    01:2d:f5
                Exponent: 65537 (0x10001)
        X509v3 extensions:
            X509v3 Key Usage: critical
                Digital Signature, Key Encipherment
            X509v3 Basic Constraints: 
                CA:FALSE
            X509v3 Extended Key Usage: 
                TLS Web Server Authentication, TLS Web Client Authentication
            X509v3 Subject Key Identifier: 
                DE:E5:62:85:B1:79:7E:4D:FC:A8:CA:88:3C:EC:22:25:76:57:51:A2
            X509v3 Authority Key Identifier: 
                keyid:46:AE:F3:C6:AD:8C:3E:45:58:86:70:79:96:25:17:E1:6C:F7:16:A8

            Authority Information Access: 
                CA Issuers - URI:http://nitpicksy.no/ca/tls-ca.cer

            X509v3 CRL Distribution Points: 

                Full Name:
                  URI:http://nitpicksy.no/ca/tls-ca.crl

            X509v3 Subject Alternative Name: 
                DNS:nitpicksy.no, DNS:www.nitpicksy.no, DNS:localhost
    Signature Algorithm: sha256WithRSAEncryption
         9c:4e:54:0b:81:a8:1a:8d:3d:1a:99:25:1f:51:03:58:48:3a:
         23:dc:6b:09:e5:28:e9:dc:35:b3:9d:43:1b:28:d2:74:ad:dd:
         53:1f:b1:bd:1e:d6:e3:2a:64:e7:29:11:79:5b:9e:14:4a:ba:
         8b:ae:fa:a4:a2:7d:fa:63:30:b8:f3:45:37:bd:39:72:3c:48:
         10:d9:86:f8:7b:30:31:94:25:a5:70:0c:e7:80:32:9a:f9:c4:
         32:55:c4:51:a8:d1:a9:64:75:70:9a:bd:b6:29:cc:06:0a:73:
         2e:c3:01:98:64:82:0a:42:b0:eb:87:c1:c2:49:4b:9b:d5:ce:
         82:43:17:4d:5c:cd:fb:5d:79:00:a8:06:fa:a3:2d:ec:06:c4:
         c2:d5:6e:db:7b:da:2a:cd:bc:fc:8d:7d:86:6b:f8:d9:be:28:
         75:ec:f0:b1:7f:16:78:01:e9:8f:76:04:43:ce:4f:0b:76:8c:
         1d:42:ff:9c:c1:83:bd:fb:3c:66:9e:a3:b8:c4:70:75:4c:30:
         9e:4a:42:6f:a4:7e:a3:2f:38:88:d6:e4:cc:3a:64:8e:4f:3e:
         ad:2e:fc:f3:5f:c0:81:22:2b:f2:0e:99:65:69:f8:5e:e1:62:
         10:0b:81:ec:5d:d2:ca:e3:4a:94:2f:1d:e5:83:d2:8c:2d:91:
         66:b4:55:5d:34:a7:82:bc:3e:4d:99:3c:92:d6:31:4a:0e:57:
         d2:ec:8a:45:6b:43:62:aa:0a:b2:53:61:f9:64:b3:43:91:18:
         6a:35:f4:e2:b6:ed:bb:1b:20:d1:7c:6a:e2:7c:3c:05:0e:0f:
         35:59:ee:c8:2c:21:af:53:c7:2e:56:3a:c4:d7:db:b3:10:51:
         30:fa:84:43:9a:68:60:ab:28:85:52:da:8d:d0:0c:c3:80:95:
         95:78:a7:ed:c5:96:0d:d4:b6:3f:a7:d5:5d:0f:50:2e:5c:a9:
         f4:c3:e7:37:e3:2f:ad:2d:17:dd:00:86:94:4b:c2:2a:6d:ed:
         a6:45:23:40:94:81:34:5b:34:c2:92:fb:e8:8e:92:ee:e9:8e:
         6f:2c:de:9a:a3:1e:4a:44:0a:b4:0d:9e:b1:7e:7b:f2:fe:c3:
         00:1e:0c:70:80:db:fe:86:c4:14:bb:76:39:96:c8:59:a9:fd:
         46:24:33:1c:cf:10:9c:2d:de:6d:fa:3a:f2:72:69:85:c6:e6:
         1b:40:05:db:fe:62:98:ac:28:05:d9:b5:cd:34:a8:63:3d:22:
         41:0f:f2:be:d1:12:e5:fc:a0:db:86:5a:5e:eb:36:b2:10:0c:
         b6:8c:86:dd:aa:99:ea:1a:40:4c:9f:ce:9e:af:53:b1:73:b3:
         6e:83:ab:4b:24:de:f2:ed
-----BEGIN CERTIFICATE-----
MIIGgjCCBGqgAwIBAgIUG9S/YW+70nbSly2M3YXQzaIZMHMwDQYJKoZIhvcNAQEL
BQAwZjELMAkGA1UEBhMCTk8xEjAQBgNVBAoMCU5pdHBpY2tzeTEoMCYGA1UECwwf
Tml0cGlja3N5IENlcnRpZmljYXRlIEF1dGhvcml0eTEZMBcGA1UEAwwQTml0cGlj
a3N5IFRMUyBDQTAeFw0yMDEyMDYyMjA4MjJaFw0yMjEyMDYyMjA4MjJaMGUxCzAJ
BgNVBAYTAk5PMRIwEAYDVQQKDAlOaXRwaWNrc3kxKDAmBgNVBAsMH05pdHBpY2tz
eSBDZXJ0aWZpY2F0ZSBBdXRob3JpdHkxGDAWBgNVBAMMD1BheW1lbnQgR2F0ZXdh
eTCCAiIwDQYJKoZIhvcNAQEBBQADggIPADCCAgoCggIBAOm05hhCvlhvSgfUuA/U
+HABJbCmozULmsjp/bhfFpIyFgdxPrhmTtENka5CXhvKoJRihIK9s4b2/VS9d8Vt
PP10cFgA8mvtibTzxmGBZTrFcVp3eooQc4w9ToWtWpjbetoA8itcwLOqVfNU3Zy3
SeQ/eEjjct3EEa5locXA9FoyQN6zMy3JvwuIIBEYvnfLucqCBXdsQYDk9RMuew5y
6qlq0UtMm4IML1eUQ2R40Cc+HR8Zcg96ZbNJL/ZHZH0Sm0NIgv+mJLsxyvmLr6We
l9CHSkmCOPs63XE5iu/3H/CemrxbgHCLMZIKwdGWHHGcedCIKrpn11vctveWGJ7M
LGBeXvYJmEhnGd5Zf1gHHFWO7IeoLKInVUiHyH7KuPPtuqFq4AUW98fK0ixz4dzy
RpJCpXIac6smq1a6uZv1wfUHRlUvgaFZN18D31PqUmL7BLcxYOYHMNUWY57YSdUo
ibaHprgoacv/XdkicdMihNp2yL7I0ZoH2liec+cP3/80NCXvgnM5vUT+TGTAjI5m
NOGm0G354Gao+sa2Qylh+ULoZQTlDfEXYx/aDJzE49/GhYihoKAcewVYBNQT27dU
PFp618VIuqEH1+IStPgzgwdJMpSmZ0SqOwcmmruVt/kOOzNG34vCDC2+B3qR7kV5
VbYX5ndaEwYqdTM4z16FAS31AgMBAAGjggEnMIIBIzAOBgNVHQ8BAf8EBAMCBaAw
CQYDVR0TBAIwADAdBgNVHSUEFjAUBggrBgEFBQcDAQYIKwYBBQUHAwIwHQYDVR0O
BBYEFN7lYoWxeX5N/KjKiDzsIiV2V1GiMB8GA1UdIwQYMBaAFEau88atjD5FWIZw
eZYlF+Fs9xaoMD0GCCsGAQUFBwEBBDEwLzAtBggrBgEFBQcwAoYhaHR0cDovL25p
dHBpY2tzeS5uby9jYS90bHMtY2EuY2VyMDIGA1UdHwQrMCkwJ6AloCOGIWh0dHA6
Ly9uaXRwaWNrc3kubm8vY2EvdGxzLWNhLmNybDA0BgNVHREELTArggxuaXRwaWNr
c3kubm+CEHd3dy5uaXRwaWNrc3kubm+CCWxvY2FsaG9zdDANBgkqhkiG9w0BAQsF
AAOCAgEAnE5UC4GoGo09GpklH1EDWEg6I9xrCeUo6dw1s51DGyjSdK3dUx+xvR7W
4ypk5ykReVueFEq6i676pKJ9+mMwuPNFN705cjxIENmG+HswMZQlpXAM54AymvnE
MlXEUajRqWR1cJq9tinMBgpzLsMBmGSCCkKw64fBwklLm9XOgkMXTVzN+115AKgG
+qMt7AbEwtVu23vaKs28/I19hmv42b4odezwsX8WeAHpj3YEQ85PC3aMHUL/nMGD
vfs8Zp6juMRwdUwwnkpCb6R+oy84iNbkzDpkjk8+rS7881/AgSIr8g6ZZWn4XuFi
EAuB7F3SyuNKlC8d5YPSjC2RZrRVXTSngrw+TZk8ktYxSg5X0uyKRWtDYqoKslNh
+WSzQ5EYajX04rbtuxsg0Xxq4nw8BQ4PNVnuyCwhr1PHLlY6xNfbsxBRMPqEQ5po
YKsohVLajdAMw4CVlXin7cWWDdS2P6fVXQ9QLlyp9MPnN+MvrS0X3QCGlEvCKm3t
pkUjQJSBNFs0wpL76I6S7umObyzemqMeSkQKtA2esX578v7DAB4McIDb/obEFLt2
OZbIWan9RiQzHM8QnC3ebfo68nJphcbmG0AF2/5imKwoBdm1zTSoYz0iQQ/yvtES
5fyg24ZaXus2shAMtoyG3aqZ6hpATJ/Onq9TsXOzboOrSyTe8u0=
-----END CERTIFICATE-----
