Certificate:
    Data:
        Version: 3 (0x2)
        Serial Number:
            1b:e0:19:a9:68:4b:62:0b:e9:de:29:d8:2d:43:e4:e5:05:b1:dd:ac
        Signature Algorithm: sha256WithRSAEncryption
        Issuer: C=NO, O=Nitpicksy, OU=Nitpicksy Certificate Authority, CN=Nitpicksy TLS CA
        Validity
            Not Before: Dec  6 21:51:59 2020 GMT
            Not After : Dec  6 21:51:59 2022 GMT
        Subject: C=NO, O=Nitpicksy, OU=Nitpicksy Certificate Authority, CN=Literary Society
        Subject Public Key Info:
            Public Key Algorithm: rsaEncryption
                RSA Public-Key: (4096 bit)
                Modulus:
                    00:9c:a8:65:5e:44:1a:72:df:7a:ce:a0:a7:99:75:
                    f3:d4:60:bc:44:3b:04:51:05:dc:f9:61:27:15:06:
                    99:a8:e9:18:9b:ba:62:02:16:75:0b:50:b6:90:9f:
                    7d:95:01:ca:97:31:23:e2:0c:87:26:ad:2c:1b:a6:
                    20:92:99:64:17:f3:bc:15:4d:e1:96:fa:26:da:b8:
                    35:40:17:9d:dc:a2:64:28:75:35:8b:74:5d:35:b8:
                    1b:11:cd:cd:06:3f:5b:ff:00:58:d9:74:42:9e:03:
                    a8:75:be:a0:fd:0c:3b:59:03:46:0f:a1:4d:4e:12:
                    42:7e:41:e3:76:83:88:7a:5c:f6:f6:b5:cd:1a:50:
                    04:3d:e4:c5:67:3d:e6:90:b4:3c:20:d0:8b:58:16:
                    39:9d:e4:d2:0a:73:36:43:df:4e:39:63:4e:84:87:
                    81:3c:c9:45:18:1d:74:c8:c0:f4:58:0f:83:83:4a:
                    29:cf:45:92:7c:a2:6d:52:f9:7e:d6:29:da:12:f1:
                    4e:3b:e0:12:db:a6:7a:1e:93:1a:bd:3c:6f:4b:18:
                    85:7b:2c:ec:75:0c:7d:fd:ac:d4:3e:b3:cf:2d:5d:
                    f5:76:bd:5f:c2:e4:5c:c9:91:cd:35:7d:48:7d:59:
                    ab:f4:0d:b7:1d:cb:82:08:16:c9:4b:e8:a8:b9:b6:
                    28:4d:4a:d8:6c:bf:0b:c7:fb:b2:fe:2d:15:74:91:
                    09:bc:5d:1f:ff:5c:b0:a1:c5:08:df:d2:4a:0a:05:
                    d5:4e:ef:a5:66:d2:2b:68:32:3f:95:03:3f:04:67:
                    b6:54:02:16:4b:ab:6c:83:a6:7c:1b:a4:3e:19:38:
                    c1:92:0e:66:d5:60:dc:74:76:a5:77:b8:62:1d:2b:
                    f5:47:b8:98:a0:e4:34:0b:57:7c:9e:82:bd:e4:23:
                    87:c1:a4:55:e6:1d:77:ef:9f:64:58:86:6c:0b:f9:
                    18:46:88:be:ba:86:ee:f4:2e:4d:0f:a7:c4:c7:b9:
                    4d:6a:88:60:e8:cb:12:82:5d:7b:66:a1:b6:aa:7a:
                    e3:0b:d5:36:67:1c:4a:83:1a:4c:1a:aa:f4:cc:ad:
                    65:2f:a6:9d:2e:01:9e:f6:99:5b:fc:54:24:fe:35:
                    f0:82:e2:3c:2f:68:9a:8c:ba:35:5d:9c:63:47:9f:
                    8e:7c:8e:a0:e0:c8:55:cb:9d:f3:05:4d:bf:4f:f7:
                    b9:12:87:0c:43:66:e8:8a:46:64:70:73:01:fd:99:
                    78:ae:8c:90:5f:6d:dc:95:10:7b:af:04:e7:53:06:
                    91:b9:31:c8:d0:f3:13:f9:30:b9:1b:94:f0:93:9a:
                    c0:71:b3:c4:35:3b:1a:ff:80:67:81:14:88:da:24:
                    15:f7:75
                Exponent: 65537 (0x10001)
        X509v3 extensions:
            X509v3 Key Usage: critical
                Digital Signature, Key Encipherment
            X509v3 Basic Constraints: 
                CA:FALSE
            X509v3 Extended Key Usage: 
                TLS Web Server Authentication, TLS Web Client Authentication
            X509v3 Subject Key Identifier: 
                44:B1:56:46:69:1B:A0:80:ED:2A:F4:F8:39:AB:18:3B:96:C5:44:B8
            X509v3 Authority Key Identifier: 
                keyid:20:BF:F7:C1:E5:9F:2D:61:99:7C:FA:1C:22:0D:11:35:06:9D:C9:5C

            Authority Information Access: 
                CA Issuers - URI:http://nitpicksy.no/ca/tls-ca.cer

            X509v3 CRL Distribution Points: 

                Full Name:
                  URI:http://nitpicksy.no/ca/tls-ca.crl

            X509v3 Subject Alternative Name: 
                DNS:nitpicksy.no, DNS:www.nitpicksy.no, DNS:localhost
    Signature Algorithm: sha256WithRSAEncryption
         83:c4:e5:82:af:31:58:1b:64:9d:e0:da:3d:6d:c9:5f:ef:b4:
         e2:81:62:df:e5:63:e1:f3:2b:9d:72:50:22:1b:c2:16:a9:13:
         55:19:b0:a8:cf:b6:b2:f9:b4:1d:f2:6a:16:96:c0:c1:a0:31:
         b6:4a:50:b8:9e:4f:af:ec:2f:22:f5:fc:3d:83:68:99:d5:f0:
         48:0b:2d:42:9a:17:5d:83:7d:4a:28:7f:a3:83:36:0f:5e:4b:
         99:c8:f3:05:48:ea:61:8d:ef:91:17:0c:18:a5:80:cc:19:bb:
         97:df:10:8f:22:e5:f2:8c:d6:da:e1:19:48:c4:f3:bb:7a:32:
         2e:05:40:91:1e:66:c6:a5:97:e3:e5:9a:3f:06:f4:6d:95:2b:
         3d:8a:ed:00:fe:97:7f:d6:86:e5:41:d4:8c:5c:b8:c8:b5:6c:
         de:c2:ce:3c:2a:77:8a:39:61:84:bd:51:9b:47:af:e0:e9:d8:
         5d:30:f2:85:d4:d1:16:ed:09:9f:9e:88:af:d2:de:51:3e:40:
         7f:db:88:4c:d1:f1:7a:54:52:7e:8a:96:69:d5:55:fd:77:f9:
         ce:46:4a:04:4f:c4:19:bb:d6:6b:e1:5e:c9:32:df:dc:f2:f3:
         02:14:07:f2:99:f5:3a:f0:a3:20:1f:2b:ed:b3:82:c5:c2:6d:
         2f:fe:6d:8d:7e:53:aa:ee:c5:90:e6:9d:0f:2f:ab:fa:7f:19:
         d0:fe:cc:de:41:97:47:58:0c:19:8a:62:48:c7:30:2f:60:fc:
         31:e1:14:93:d3:d5:d0:a9:5d:4d:08:98:54:f5:d3:d4:53:a3:
         ec:95:32:ad:d0:71:70:ee:af:99:8e:af:98:d3:04:59:a9:5b:
         49:f5:b4:ed:14:5f:a6:53:29:00:6a:b5:b9:0e:33:ac:48:33:
         b7:52:a2:48:6c:e0:ee:21:40:a6:48:b3:a7:61:40:f6:75:99:
         3a:d1:70:12:9a:79:16:2b:53:97:48:e4:6d:ab:fe:77:98:de:
         c3:a7:35:fa:b3:f0:8e:23:12:3a:b4:d1:64:78:00:d8:60:68:
         6b:1d:8b:3d:ea:04:e3:1d:a9:ee:e5:f6:42:73:b3:b9:4b:54:
         6a:a9:13:20:1d:a4:7a:ef:8b:fc:52:59:58:f9:bb:ca:ad:4d:
         b4:fd:c6:30:11:94:49:52:80:e7:38:c3:c8:fb:32:11:ed:25:
         3a:0e:ce:ef:6f:b2:0e:de:be:f7:fd:ae:51:75:60:1e:93:4b:
         4d:5a:e3:8f:2e:5c:8c:6e:ab:dd:d5:a4:2c:70:c9:15:f9:59:
         9b:a8:3e:5f:cc:60:0c:92:dd:40:eb:df:78:30:f6:4d:9c:ef:
         0e:d2:4b:79:cc:4c:d8:25
-----BEGIN CERTIFICATE-----
MIIGgzCCBGugAwIBAgIUG+AZqWhLYgvp3inYLUPk5QWx3awwDQYJKoZIhvcNAQEL
BQAwZjELMAkGA1UEBhMCTk8xEjAQBgNVBAoMCU5pdHBpY2tzeTEoMCYGA1UECwwf
Tml0cGlja3N5IENlcnRpZmljYXRlIEF1dGhvcml0eTEZMBcGA1UEAwwQTml0cGlj
a3N5IFRMUyBDQTAeFw0yMDEyMDYyMTUxNTlaFw0yMjEyMDYyMTUxNTlaMGYxCzAJ
BgNVBAYTAk5PMRIwEAYDVQQKDAlOaXRwaWNrc3kxKDAmBgNVBAsMH05pdHBpY2tz
eSBDZXJ0aWZpY2F0ZSBBdXRob3JpdHkxGTAXBgNVBAMMEExpdGVyYXJ5IFNvY2ll
dHkwggIiMA0GCSqGSIb3DQEBAQUAA4ICDwAwggIKAoICAQCcqGVeRBpy33rOoKeZ
dfPUYLxEOwRRBdz5YScVBpmo6RibumICFnULULaQn32VAcqXMSPiDIcmrSwbpiCS
mWQX87wVTeGW+ibauDVAF53comQodTWLdF01uBsRzc0GP1v/AFjZdEKeA6h1vqD9
DDtZA0YPoU1OEkJ+QeN2g4h6XPb2tc0aUAQ95MVnPeaQtDwg0ItYFjmd5NIKczZD
3045Y06Eh4E8yUUYHXTIwPRYD4ODSinPRZJ8om1S+X7WKdoS8U474BLbpnoekxq9
PG9LGIV7LOx1DH39rNQ+s88tXfV2vV/C5FzJkc01fUh9Wav0Dbcdy4IIFslL6Ki5
tihNSthsvwvH+7L+LRV0kQm8XR//XLChxQjf0koKBdVO76Vm0itoMj+VAz8EZ7ZU
AhZLq2yDpnwbpD4ZOMGSDmbVYNx0dqV3uGIdK/VHuJig5DQLV3yegr3kI4fBpFXm
HXfvn2RYhmwL+RhGiL66hu70Lk0Pp8THuU1qiGDoyxKCXXtmobaqeuML1TZnHEqD
GkwaqvTMrWUvpp0uAZ72mVv8VCT+NfCC4jwvaJqMujVdnGNHn458jqDgyFXLnfMF
Tb9P97kShwxDZuiKRmRwcwH9mXiujJBfbdyVEHuvBOdTBpG5McjQ8xP5MLkblPCT
msBxs8Q1Oxr/gGeBFIjaJBX3dQIDAQABo4IBJzCCASMwDgYDVR0PAQH/BAQDAgWg
MAkGA1UdEwQCMAAwHQYDVR0lBBYwFAYIKwYBBQUHAwEGCCsGAQUFBwMCMB0GA1Ud
DgQWBBREsVZGaRuggO0q9Pg5qxg7lsVEuDAfBgNVHSMEGDAWgBQgv/fB5Z8tYZl8
+hwiDRE1Bp3JXDA9BggrBgEFBQcBAQQxMC8wLQYIKwYBBQUHMAKGIWh0dHA6Ly9u
aXRwaWNrc3kubm8vY2EvdGxzLWNhLmNlcjAyBgNVHR8EKzApMCegJaAjhiFodHRw
Oi8vbml0cGlja3N5Lm5vL2NhL3Rscy1jYS5jcmwwNAYDVR0RBC0wK4IMbml0cGlj
a3N5Lm5vghB3d3cubml0cGlja3N5Lm5vgglsb2NhbGhvc3QwDQYJKoZIhvcNAQEL
BQADggIBAIPE5YKvMVgbZJ3g2j1tyV/vtOKBYt/lY+HzK51yUCIbwhapE1UZsKjP
trL5tB3yahaWwMGgMbZKULieT6/sLyL1/D2DaJnV8EgLLUKaF12DfUoof6ODNg9e
S5nI8wVI6mGN75EXDBilgMwZu5ffEI8i5fKM1trhGUjE87t6Mi4FQJEeZsall+Pl
mj8G9G2VKz2K7QD+l3/WhuVB1IxcuMi1bN7Czjwqd4o5YYS9UZtHr+Dp2F0w8oXU
0RbtCZ+eiK/S3lE+QH/biEzR8XpUUn6KlmnVVf13+c5GSgRPxBm71mvhXsky39zy
8wIUB/KZ9TrwoyAfK+2zgsXCbS/+bY1+U6ruxZDmnQ8vq/p/GdD+zN5Bl0dYDBmK
YkjHMC9g/DHhFJPT1dCpXU0ImFT109RTo+yVMq3QcXDur5mOr5jTBFmpW0n1tO0U
X6ZTKQBqtbkOM6xIM7dSokhs4O4hQKZIs6dhQPZ1mTrRcBKaeRYrU5dI5G2r/neY
3sOnNfqz8I4jEjq00WR4ANhgaGsdiz3qBOMdqe7l9kJzs7lLVGqpEyAdpHrvi/xS
WVj5u8qtTbT9xjARlElSgOc4w8j7MhHtJToOzu9vsg7evvf9rlF1YB6TS01a448u
XIxuq93VpCxwyRX5WZuoPl/MYAyS3UDr33gw9k2c7w7SS3nMTNgl
-----END CERTIFICATE-----
