Certificate:
    Data:
        Version: 3 (0x2)
        Serial Number:
            1d:24:88:46:d4:61:da:95:b1:2a:f1:52:7e:66:e5:09:86:53:2f:1c
        Signature Algorithm: sha256WithRSAEncryption
        Issuer: C=NO, O=Nitpicksy, OU=Nitpicksy Certificate Authority, CN=Nitpicksy TLS CA
        Validity
            Not Before: Dec 11 23:35:58 2020 GMT
            Not After : Dec 11 23:35:58 2022 GMT
        Subject: C=NO, O=Nitpicksy, OU=Nitpicksy Certificate Authority, CN=Bitcoin
        Subject Public Key Info:
            Public Key Algorithm: rsaEncryption
                RSA Public-Key: (4096 bit)
                Modulus:
                    00:ad:1c:c6:4b:25:e9:67:c1:6d:1e:a5:d3:7e:50:
                    64:5d:52:21:96:25:31:3b:61:b4:86:e0:a7:35:35:
                    66:f4:02:58:e1:00:81:f8:d0:15:c8:4a:6c:04:20:
                    cb:02:a1:7b:1b:be:fb:7e:6b:e5:61:bc:c4:e8:5b:
                    f3:62:65:53:40:c1:26:f4:62:ff:a7:9e:2e:25:94:
                    4f:7b:0a:b9:e9:3c:98:32:dd:0b:5d:fb:31:33:30:
                    d1:d0:7e:d9:5b:28:5d:07:34:e8:13:04:45:2f:3b:
                    50:40:7a:83:93:10:20:e1:8b:4a:6a:49:82:0f:cb:
                    35:b5:9f:c0:b3:25:0f:f0:ae:0e:ef:52:8e:aa:a7:
                    f6:77:d4:59:d4:da:b4:de:88:9d:57:b3:0c:29:8f:
                    d5:ca:04:72:83:f1:87:f5:12:e9:a8:ae:35:f2:2f:
                    8c:03:72:ef:40:32:a3:52:cd:bc:fc:09:ac:e1:53:
                    f5:90:00:b7:ff:36:1a:e1:0c:21:f0:d3:ef:bf:94:
                    39:3e:a6:5e:ee:49:37:b1:8a:af:45:e9:aa:10:39:
                    29:58:a6:01:81:20:85:7b:5b:ae:07:bd:98:18:7f:
                    14:3e:fc:2e:11:05:81:2a:5f:45:a2:00:f1:88:0a:
                    4d:5d:18:ae:32:94:aa:2e:3d:cb:57:4f:86:ef:08:
                    9c:9a:42:88:50:a9:73:65:40:b2:4f:41:24:58:17:
                    f9:01:b1:93:4e:09:87:df:40:3e:b6:87:a0:ce:7f:
                    3d:a8:98:c5:e5:3f:23:c7:b7:3c:e5:fc:de:99:1b:
                    b7:2e:ab:09:d4:7c:77:7c:fa:fd:f1:0a:9f:6a:ce:
                    a2:a4:d3:76:b7:69:45:06:8e:87:d0:e7:25:f5:a1:
                    aa:d0:7a:a1:b6:7b:85:17:8b:ec:8a:c4:8d:67:6c:
                    cf:c6:8c:05:a8:f8:eb:7c:bf:b3:91:25:89:49:53:
                    2c:86:58:6d:fc:12:82:88:7d:55:f8:4f:29:26:ee:
                    df:7c:76:5c:e6:ac:0d:52:53:70:34:59:c3:f0:f7:
                    cd:ae:e4:95:fe:c6:45:a8:ca:8e:24:a3:9d:26:5b:
                    1d:9f:31:1e:66:36:61:8b:3d:87:54:93:5d:17:46:
                    4d:8b:8b:53:99:42:2f:d4:2f:ef:3e:d6:39:23:9c:
                    db:15:24:0d:c2:34:17:02:b1:e8:b2:3a:48:bd:2d:
                    ef:60:59:1e:43:e0:21:a6:1c:95:f1:81:62:fa:46:
                    82:b3:16:78:21:ba:c2:10:7a:0a:85:6a:b3:eb:cc:
                    b8:0e:53:22:26:9b:17:c1:78:15:f2:c1:fb:c3:09:
                    6b:9e:4b:97:38:ae:38:57:5e:aa:68:7c:98:aa:22:
                    c3:be:99
                Exponent: 65537 (0x10001)
        X509v3 extensions:
            X509v3 Key Usage: critical
                Digital Signature, Key Encipherment
            X509v3 Basic Constraints: 
                CA:FALSE
            X509v3 Extended Key Usage: 
                TLS Web Server Authentication, TLS Web Client Authentication
            X509v3 Subject Key Identifier: 
                3B:1C:6A:2A:E5:8D:C3:38:9C:70:4D:0C:90:2B:9E:39:1F:4F:DC:CA
            X509v3 Authority Key Identifier: 
                keyid:99:B8:0A:C6:F9:8F:63:32:21:3F:40:58:30:B1:09:38:21:F0:EA:62

            Authority Information Access: 
                CA Issuers - URI:http://nitpicksy.no/ca/tls-ca.cer

            X509v3 CRL Distribution Points: 

                Full Name:
                  URI:http://nitpicksy.no/ca/tls-ca.crl

            X509v3 Subject Alternative Name: 
                DNS:nitpicksy.no, DNS:www.nitpicksy.no, DNS:localhost, IP Address:127.0.0.1
    Signature Algorithm: sha256WithRSAEncryption
         01:74:ef:f8:f6:27:ff:af:a5:10:4b:94:46:80:51:d2:cd:34:
         66:b0:ea:e6:32:3e:3f:2d:0d:16:2b:19:71:4f:3e:55:f5:c1:
         bf:27:75:20:21:fc:ab:0a:fe:51:9d:e9:a9:d2:81:99:7f:b9:
         f4:cc:55:ae:71:dd:ff:f6:96:51:37:68:24:92:bb:69:72:ca:
         0c:6c:12:3a:bf:77:ab:10:fb:51:19:c5:f8:9e:86:42:1c:c1:
         e1:97:bf:58:e9:b7:71:55:24:7d:97:82:27:4b:c9:cd:d3:24:
         0f:2b:a5:21:59:cd:19:ce:fa:ae:08:14:4b:1f:10:91:76:dc:
         f5:74:e4:43:a2:19:5a:6c:31:8e:06:cc:23:27:53:0d:50:f0:
         bb:51:fb:d9:91:e4:fb:c4:81:8a:7e:15:de:26:bc:d5:94:0d:
         10:22:1d:c7:dd:3a:c5:4c:51:b8:13:3f:28:cd:47:fe:6c:72:
         42:55:d6:82:ea:24:56:d3:6d:28:b9:4c:34:d3:d6:24:41:4d:
         97:d1:27:95:8b:76:ed:be:65:79:79:05:a7:7e:64:7c:cf:f5:
         27:47:c0:82:46:9d:02:3e:cd:af:a8:67:25:a8:22:d6:69:24:
         3d:f6:c7:33:5f:02:62:56:59:2f:d6:11:a7:e1:85:30:fb:de:
         fc:30:8c:11:2f:7c:cd:75:ab:b3:6e:2a:6e:4b:32:36:1e:d2:
         cb:d0:6d:96:35:bd:fe:56:41:dd:61:76:54:0e:2f:e7:da:f3:
         c6:b8:2a:27:ff:3e:41:84:23:3a:15:73:22:40:17:94:ea:2c:
         6f:63:01:07:1c:34:8d:06:64:75:9a:50:c6:73:ff:85:f9:dc:
         74:ca:49:e4:e4:0c:c6:d6:a5:9c:83:18:f9:58:9b:47:50:f9:
         da:b3:04:91:4e:8d:f7:f1:2b:da:99:f3:60:dc:0d:c3:2f:99:
         22:06:43:6f:36:fa:15:74:bc:f6:70:ee:9f:b8:83:08:db:f0:
         fc:c3:23:44:0e:8a:e3:0e:cd:d1:0e:1d:71:31:d7:a0:44:c3:
         57:ef:6f:5f:bb:cf:40:94:96:5f:6b:9b:02:a2:ea:82:88:1d:
         e6:7f:f3:b2:d2:19:ae:cf:0d:98:04:84:db:ab:d9:c2:8b:f0:
         dc:4b:03:8b:67:5f:2e:8e:22:94:07:36:75:8c:8a:d6:1b:d1:
         b3:02:92:6f:f8:4a:f0:fc:42:7a:ff:62:30:38:cc:65:87:36:
         0c:a5:bc:bb:bb:b1:1f:c6:d5:a1:1f:2f:df:0a:73:77:be:9e:
         73:4f:a7:f1:90:a9:39:03:7a:bd:69:87:f1:6d:51:74:f5:f8:
         81:78:22:15:02:50:25:2b
-----BEGIN CERTIFICATE-----
MIIGgDCCBGigAwIBAgIUHSSIRtRh2pWxKvFSfmblCYZTLxwwDQYJKoZIhvcNAQEL
BQAwZjELMAkGA1UEBhMCTk8xEjAQBgNVBAoMCU5pdHBpY2tzeTEoMCYGA1UECwwf
Tml0cGlja3N5IENlcnRpZmljYXRlIEF1dGhvcml0eTEZMBcGA1UEAwwQTml0cGlj
a3N5IFRMUyBDQTAeFw0yMDEyMTEyMzM1NThaFw0yMjEyMTEyMzM1NThaMF0xCzAJ
BgNVBAYTAk5PMRIwEAYDVQQKDAlOaXRwaWNrc3kxKDAmBgNVBAsMH05pdHBpY2tz
eSBDZXJ0aWZpY2F0ZSBBdXRob3JpdHkxEDAOBgNVBAMMB0JpdGNvaW4wggIiMA0G
CSqGSIb3DQEBAQUAA4ICDwAwggIKAoICAQCtHMZLJelnwW0epdN+UGRdUiGWJTE7
YbSG4Kc1NWb0AljhAIH40BXISmwEIMsCoXsbvvt+a+VhvMToW/NiZVNAwSb0Yv+n
ni4llE97CrnpPJgy3Qtd+zEzMNHQftlbKF0HNOgTBEUvO1BAeoOTECDhi0pqSYIP
yzW1n8CzJQ/wrg7vUo6qp/Z31FnU2rTeiJ1Xswwpj9XKBHKD8Yf1EumorjXyL4wD
cu9AMqNSzbz8CazhU/WQALf/NhrhDCHw0++/lDk+pl7uSTexiq9F6aoQOSlYpgGB
IIV7W64HvZgYfxQ+/C4RBYEqX0WiAPGICk1dGK4ylKouPctXT4bvCJyaQohQqXNl
QLJPQSRYF/kBsZNOCYffQD62h6DOfz2omMXlPyPHtzzl/N6ZG7cuqwnUfHd8+v3x
Cp9qzqKk03a3aUUGjofQ5yX1oarQeqG2e4UXi+yKxI1nbM/GjAWo+Ot8v7ORJYlJ
UyyGWG38EoKIfVX4Tykm7t98dlzmrA1SU3A0WcPw982u5JX+xkWoyo4ko50mWx2f
MR5mNmGLPYdUk10XRk2Li1OZQi/UL+8+1jkjnNsVJA3CNBcCseiyOki9Le9gWR5D
4CGmHJXxgWL6RoKzFnghusIQegqFarPrzLgOUyImmxfBeBXywfvDCWueS5c4rjhX
XqpofJiqIsO+mQIDAQABo4IBLTCCASkwDgYDVR0PAQH/BAQDAgWgMAkGA1UdEwQC
MAAwHQYDVR0lBBYwFAYIKwYBBQUHAwEGCCsGAQUFBwMCMB0GA1UdDgQWBBQ7HGoq
5Y3DOJxwTQyQK545H0/cyjAfBgNVHSMEGDAWgBSZuArG+Y9jMiE/QFgwsQk4IfDq
YjA9BggrBgEFBQcBAQQxMC8wLQYIKwYBBQUHMAKGIWh0dHA6Ly9uaXRwaWNrc3ku
bm8vY2EvdGxzLWNhLmNlcjAyBgNVHR8EKzApMCegJaAjhiFodHRwOi8vbml0cGlj
a3N5Lm5vL2NhL3Rscy1jYS5jcmwwOgYDVR0RBDMwMYIMbml0cGlja3N5Lm5vghB3
d3cubml0cGlja3N5Lm5vgglsb2NhbGhvc3SHBH8AAAEwDQYJKoZIhvcNAQELBQAD
ggIBAAF07/j2J/+vpRBLlEaAUdLNNGaw6uYyPj8tDRYrGXFPPlX1wb8ndSAh/KsK
/lGd6anSgZl/ufTMVa5x3f/2llE3aCSSu2lyygxsEjq/d6sQ+1EZxfiehkIcweGX
v1jpt3FVJH2XgidLyc3TJA8rpSFZzRnO+q4IFEsfEJF23PV05EOiGVpsMY4GzCMn
Uw1Q8LtR+9mR5PvEgYp+Fd4mvNWUDRAiHcfdOsVMUbgTPyjNR/5sckJV1oLqJFbT
bSi5TDTT1iRBTZfRJ5WLdu2+ZXl5Bad+ZHzP9SdHwIJGnQI+za+oZyWoItZpJD32
xzNfAmJWWS/WEafhhTD73vwwjBEvfM11q7NuKm5LMjYe0svQbZY1vf5WQd1hdlQO
L+fa88a4Kif/PkGEIzoVcyJAF5TqLG9jAQccNI0GZHWaUMZz/4X53HTKSeTkDMbW
pZyDGPlYm0dQ+dqzBJFOjffxK9qZ82DcDcMvmSIGQ282+hV0vPZw7p+4gwjb8PzD
I0QOiuMOzdEOHXEx16BEw1fvb1+7z0CUll9rmwKi6oKIHeZ/87LSGa7PDZgEhNur
2cKL8NxLA4tnXy6OIpQHNnWMitYb0bMCkm/4SvD8Qnr/YjA4zGWHNgylvLu7sR/G
1aEfL98Kc3e+nnNPp/GQqTkDer1ph/FtUXT1+IF4IhUCUCUr
-----END CERTIFICATE-----
