Certificate:
    Data:
        Version: 3 (0x2)
        Serial Number:
            20:53:a1:7b:e9:0f:af:dd:84:20:51:90:0c:af:f0:5f:11:c6:3b:bb
        Signature Algorithm: sha256WithRSAEncryption
        Issuer: C=NO, O=Nitpicksy, OU=Nitpicksy Certificate Authority, CN=Nitpicksy TLS CA
        Validity
            Not Before: Dec  6 22:20:03 2020 GMT
            Not After : Dec  6 22:20:03 2022 GMT
        Subject: C=NO, O=Nitpicksy, OU=Nitpicksy Certificate Authority, CN=Payment Gateway
        Subject Public Key Info:
            Public Key Algorithm: rsaEncryption
                RSA Public-Key: (4096 bit)
                Modulus:
                    00:a8:09:61:ef:35:68:e2:14:bb:f7:d1:11:9f:4d:
                    52:a7:fa:f4:6b:92:24:b7:6c:29:a1:df:22:2f:35:
                    ae:29:b4:c5:cf:df:0b:27:21:a4:ab:e6:a5:8f:a4:
                    e8:b6:9d:81:d3:ec:49:31:9b:98:5b:73:67:34:2a:
                    ce:00:39:a9:bf:52:cb:df:ab:f8:23:a4:79:1f:1a:
                    29:69:24:b2:5c:5d:51:b2:c9:d8:65:6f:97:d1:96:
                    bd:9a:85:73:67:b4:4c:a1:c1:e1:2d:15:77:f8:52:
                    98:c5:19:3f:cc:5a:4b:1e:84:0c:f0:74:31:34:b3:
                    ff:f6:a7:a4:39:33:a7:77:ea:68:59:02:14:9a:60:
                    b4:e6:f7:90:13:67:78:13:e9:e6:e5:a2:de:58:d3:
                    08:fe:61:b6:4e:65:38:de:f8:77:ef:9f:91:d3:03:
                    ad:e1:ab:70:82:c7:a7:81:91:24:ec:89:4d:6d:a9:
                    8c:b3:1e:39:82:84:9c:fb:dd:12:79:78:7c:c6:a4:
                    2c:3a:97:82:a6:94:fd:4a:31:88:be:e9:06:6f:d8:
                    d5:4c:9f:cc:d8:76:c1:4f:71:04:20:61:98:f9:f6:
                    50:97:83:63:2f:b9:bd:8e:96:f9:ed:61:7a:89:f2:
                    ab:b2:d6:94:21:36:d2:58:0a:ed:12:4e:45:21:ee:
                    8b:66:f7:07:2b:fa:2c:f5:be:29:62:ba:83:51:5f:
                    4b:d5:11:95:51:22:3f:5f:02:3d:03:a7:3c:ea:63:
                    2e:58:db:b3:62:70:08:fd:26:82:78:41:cb:69:7e:
                    55:4c:2a:e8:33:4d:e5:7c:44:69:d5:ef:98:d2:3c:
                    00:c6:a2:7b:aa:c6:59:96:dc:9b:f3:fe:64:8b:25:
                    08:6f:4d:ca:dd:21:a4:ee:bc:8d:1f:c2:85:64:c7:
                    7e:91:4a:d2:e9:47:be:28:91:17:51:7a:ad:34:91:
                    81:c9:ea:a8:4d:e4:68:1c:2b:99:0d:34:25:c8:1d:
                    25:8e:3d:b0:aa:2b:c2:24:0b:7c:6b:e2:9f:60:59:
                    18:f8:be:1a:08:e5:61:3b:fe:da:bf:12:5a:ec:96:
                    16:1b:76:c5:b2:34:65:f9:f0:a4:f0:cc:63:a3:75:
                    29:67:84:18:f6:55:70:a8:4d:51:ea:63:19:cb:69:
                    c1:34:6a:fd:61:bd:09:08:77:73:85:8b:96:65:f1:
                    fa:37:4d:89:c0:ef:5b:c5:8b:36:26:51:76:1a:f2:
                    da:b8:f3:1e:d5:7c:d0:65:b8:73:8b:15:93:0b:7f:
                    ed:8e:de:90:3f:ea:a0:f2:08:7d:30:b5:95:f2:fa:
                    c1:e9:6a:5b:96:a0:b7:62:e4:d1:63:04:76:1c:ae:
                    54:8d:31
                Exponent: 65537 (0x10001)
        X509v3 extensions:
            X509v3 Key Usage: critical
                Digital Signature, Key Encipherment
            X509v3 Basic Constraints: 
                CA:FALSE
            X509v3 Extended Key Usage: 
                TLS Web Server Authentication, TLS Web Client Authentication
            X509v3 Subject Key Identifier: 
                CC:3B:73:47:B8:54:9A:8C:B6:F9:16:0C:AC:BC:7B:3F:28:81:36:9A
            X509v3 Authority Key Identifier: 
                keyid:52:53:5F:DA:76:E1:0A:7D:73:AE:D0:12:45:72:13:C1:30:4F:4E:39

            Authority Information Access: 
                CA Issuers - URI:http://nitpicksy.no/ca/tls-ca.cer

            X509v3 CRL Distribution Points: 

                Full Name:
                  URI:http://nitpicksy.no/ca/tls-ca.crl

            X509v3 Subject Alternative Name: 
                DNS:nitpicksy.no, DNS:www.nitpicksy.no, DNS:localhost
    Signature Algorithm: sha256WithRSAEncryption
         b7:57:c7:f7:49:f8:a4:35:dc:31:5d:3c:d3:65:34:df:6a:aa:
         3c:c9:7a:a1:3e:38:62:29:75:83:14:4f:36:54:23:1a:6d:a5:
         e2:6a:42:cd:d5:e6:d1:6b:97:f8:ef:16:60:6c:c8:16:f1:2e:
         50:f3:36:7a:06:da:93:24:9f:0a:3a:a7:9e:c2:bb:7f:95:85:
         b8:d3:14:f5:24:9b:17:e6:58:d1:a2:10:16:ff:98:a5:ad:1d:
         05:6e:ed:c4:05:59:0e:8c:c8:00:f8:fb:62:25:e2:9c:28:c6:
         c7:b8:a8:c6:ae:46:20:25:3f:22:5e:b9:94:c2:77:a3:a4:c7:
         0b:0a:7f:2b:7b:81:53:27:62:db:e2:9f:a3:25:3e:52:81:50:
         2f:ee:ab:fb:1f:bc:8d:e9:71:33:71:e1:59:b8:f1:09:4b:ca:
         14:8e:27:b0:17:dc:e3:ec:bc:5b:12:ce:7b:a0:98:4d:97:69:
         39:1b:ab:df:c3:fc:6f:9b:5c:be:0c:4c:d0:68:90:a1:38:cf:
         ec:e1:42:96:b0:14:ff:b9:f6:96:b1:87:89:e4:05:55:71:02:
         04:24:0e:8b:4c:d5:51:90:6c:50:29:59:60:06:fa:c5:85:8a:
         3b:e2:ff:47:ca:54:91:39:f8:9e:75:c9:78:06:e2:de:79:c9:
         2c:33:b2:5b:70:a4:38:f4:70:e5:3e:97:d6:75:03:a2:75:28:
         0f:24:d7:d9:d0:2e:93:01:5f:9c:e4:0d:0c:2d:34:48:41:a5:
         3c:b4:5d:49:f3:2f:37:af:93:cc:38:98:82:c4:e9:66:cf:6c:
         63:cf:28:c4:c5:d3:34:49:0c:6f:0f:bb:17:70:34:fc:e5:32:
         fb:77:fb:73:5c:b9:d2:fb:93:19:77:4f:c3:ff:cb:86:b5:ab:
         f7:58:99:a4:68:92:99:46:37:d7:35:49:63:c0:96:22:a9:5e:
         d4:4a:96:08:83:a4:31:10:32:2f:39:f0:1f:b1:92:56:e0:8f:
         71:4d:e8:b6:b3:dd:e6:92:90:af:8f:83:94:2b:3e:ba:a6:74:
         2c:70:1c:f0:47:58:2e:d7:a3:80:27:61:49:69:5e:a3:e1:29:
         54:30:b8:39:f7:13:1c:a2:47:65:e2:0f:a9:47:88:70:24:16:
         e3:f3:5f:df:2c:e1:4c:ad:fe:cc:0f:46:7d:3e:73:c0:23:1a:
         ca:6f:0b:ce:c4:d0:05:a3:9a:b3:7d:74:34:af:2d:f6:61:c1:
         ed:6d:4e:8c:e8:6b:a3:3e:e6:b8:65:70:5a:fd:4d:6d:26:66:
         ea:37:1b:fc:48:48:d5:7c:fd:8e:9e:3c:ec:95:fa:63:4f:88:
         f3:48:df:bf:97:4f:a8:0f
-----BEGIN CERTIFICATE-----
MIIGgjCCBGqgAwIBAgIUIFOhe+kPr92EIFGQDK/wXxHGO7swDQYJKoZIhvcNAQEL
BQAwZjELMAkGA1UEBhMCTk8xEjAQBgNVBAoMCU5pdHBpY2tzeTEoMCYGA1UECwwf
Tml0cGlja3N5IENlcnRpZmljYXRlIEF1dGhvcml0eTEZMBcGA1UEAwwQTml0cGlj
a3N5IFRMUyBDQTAeFw0yMDEyMDYyMjIwMDNaFw0yMjEyMDYyMjIwMDNaMGUxCzAJ
BgNVBAYTAk5PMRIwEAYDVQQKDAlOaXRwaWNrc3kxKDAmBgNVBAsMH05pdHBpY2tz
eSBDZXJ0aWZpY2F0ZSBBdXRob3JpdHkxGDAWBgNVBAMMD1BheW1lbnQgR2F0ZXdh
eTCCAiIwDQYJKoZIhvcNAQEBBQADggIPADCCAgoCggIBAKgJYe81aOIUu/fREZ9N
Uqf69GuSJLdsKaHfIi81rim0xc/fCychpKvmpY+k6LadgdPsSTGbmFtzZzQqzgA5
qb9Sy9+r+COkeR8aKWkkslxdUbLJ2GVvl9GWvZqFc2e0TKHB4S0Vd/hSmMUZP8xa
Sx6EDPB0MTSz//anpDkzp3fqaFkCFJpgtOb3kBNneBPp5uWi3ljTCP5htk5lON74
d++fkdMDreGrcILHp4GRJOyJTW2pjLMeOYKEnPvdEnl4fMakLDqXgqaU/UoxiL7p
Bm/Y1UyfzNh2wU9xBCBhmPn2UJeDYy+5vY6W+e1heonyq7LWlCE20lgK7RJORSHu
i2b3Byv6LPW+KWK6g1FfS9URlVEiP18CPQOnPOpjLljbs2JwCP0mgnhBy2l+VUwq
6DNN5XxEadXvmNI8AMaie6rGWZbcm/P+ZIslCG9Nyt0hpO68jR/ChWTHfpFK0ulH
viiRF1F6rTSRgcnqqE3kaBwrmQ00JcgdJY49sKorwiQLfGvin2BZGPi+GgjlYTv+
2r8SWuyWFht2xbI0ZfnwpPDMY6N1KWeEGPZVcKhNUepjGctpwTRq/WG9CQh3c4WL
lmXx+jdNicDvW8WLNiZRdhry2rjzHtV80GW4c4sVkwt/7Y7ekD/qoPIIfTC1lfL6
welqW5agt2Lk0WMEdhyuVI0xAgMBAAGjggEnMIIBIzAOBgNVHQ8BAf8EBAMCBaAw
CQYDVR0TBAIwADAdBgNVHSUEFjAUBggrBgEFBQcDAQYIKwYBBQUHAwIwHQYDVR0O
BBYEFMw7c0e4VJqMtvkWDKy8ez8ogTaaMB8GA1UdIwQYMBaAFFJTX9p24Qp9c67Q
EkVyE8EwT045MD0GCCsGAQUFBwEBBDEwLzAtBggrBgEFBQcwAoYhaHR0cDovL25p
dHBpY2tzeS5uby9jYS90bHMtY2EuY2VyMDIGA1UdHwQrMCkwJ6AloCOGIWh0dHA6
Ly9uaXRwaWNrc3kubm8vY2EvdGxzLWNhLmNybDA0BgNVHREELTArggxuaXRwaWNr
c3kubm+CEHd3dy5uaXRwaWNrc3kubm+CCWxvY2FsaG9zdDANBgkqhkiG9w0BAQsF
AAOCAgEAt1fH90n4pDXcMV0802U032qqPMl6oT44Yil1gxRPNlQjGm2l4mpCzdXm
0WuX+O8WYGzIFvEuUPM2egbakySfCjqnnsK7f5WFuNMU9SSbF+ZY0aIQFv+Ypa0d
BW7txAVZDozIAPj7YiXinCjGx7ioxq5GICU/Il65lMJ3o6THCwp/K3uBUydi2+Kf
oyU+UoFQL+6r+x+8jelxM3HhWbjxCUvKFI4nsBfc4+y8WxLOe6CYTZdpORur38P8
b5tcvgxM0GiQoTjP7OFClrAU/7n2lrGHieQFVXECBCQOi0zVUZBsUClZYAb6xYWK
O+L/R8pUkTn4nnXJeAbi3nnJLDOyW3CkOPRw5T6X1nUDonUoDyTX2dAukwFfnOQN
DC00SEGlPLRdSfMvN6+TzDiYgsTpZs9sY88oxMXTNEkMbw+7F3A0/OUy+3f7c1y5
0vuTGXdPw//LhrWr91iZpGiSmUY31zVJY8CWIqle1EqWCIOkMRAyLznwH7GSVuCP
cU3otrPd5pKQr4+DlCs+uqZ0LHAc8EdYLtejgCdhSWleo+EpVDC4OfcTHKJHZeIP
qUeIcCQW4/Nf3yzhTK3+zA9GfT5zwCMaym8LzsTQBaOas310NK8t9mHB7W1OjOhr
oz7muGVwWv1NbSZm6jcb/EhI1Xz9jp487JX6Y0+I80jfv5dPqA8=
-----END CERTIFICATE-----
