Certificate:
    Data:
        Version: 3 (0x2)
        Serial Number:
            22:38:1c:ab:ce:96:9a:7d:29:33:f5:36:e0:bd:3d:3c:90:14:02:19
        Signature Algorithm: sha256WithRSAEncryption
        Issuer: C=NO, O=Nitpicksy, OU=Nitpicksy Certificate Authority, CN=Nitpicksy TLS CA
        Validity
            Not Before: Dec  6 22:08:21 2020 GMT
            Not After : Dec  6 22:08:21 2022 GMT
        Subject: C=NO, O=Nitpicksy, OU=Nitpicksy Certificate Authority, CN=Cloud
        Subject Public Key Info:
            Public Key Algorithm: rsaEncryption
                RSA Public-Key: (4096 bit)
                Modulus:
                    00:ed:0d:cb:76:33:e8:c6:66:e1:75:37:07:b4:82:
                    8d:eb:1f:6b:fc:9b:44:bd:48:75:2b:d1:e2:36:80:
                    ee:49:a9:13:35:6d:c9:3e:c2:a4:e5:ad:0f:bb:29:
                    3b:37:07:9c:aa:26:0d:c2:c0:00:ad:3e:c8:ec:15:
                    0b:45:35:fe:a4:2b:b0:cb:85:bd:55:f6:80:46:cd:
                    c2:9a:8e:7c:62:d9:f2:51:47:13:2c:33:b8:af:77:
                    c5:72:44:c5:d9:e0:98:a0:6d:13:e8:3e:d8:4c:b0:
                    39:aa:61:0b:db:25:68:6d:73:5c:f7:fb:24:41:18:
                    0a:34:6b:5d:2e:ec:50:4f:e0:91:27:44:71:d5:dc:
                    b6:c7:68:b5:ae:4c:91:7b:e5:f4:75:78:f0:f6:a9:
                    12:91:d6:65:70:22:63:3c:30:5f:34:97:fd:91:b0:
                    e5:b8:5c:5f:18:51:12:18:1b:9f:3b:14:01:05:e9:
                    7d:87:55:e5:20:a3:2a:88:a8:c5:4a:a3:2f:36:92:
                    46:53:3e:9d:2f:cb:26:fe:d4:7a:5a:02:90:98:d1:
                    ab:e3:ad:8c:a7:d3:04:19:fc:07:cb:64:f3:2e:01:
                    aa:55:46:47:72:d0:3f:a9:94:d0:6b:e6:76:a6:94:
                    44:e3:90:3d:ab:c8:f2:58:1a:69:d8:9a:0b:39:ab:
                    84:c7:a9:79:a3:ef:ac:af:dc:0c:80:34:17:84:81:
                    12:dc:73:43:04:94:11:d9:08:3f:50:89:6a:87:56:
                    96:6c:85:f2:42:d9:24:04:89:7f:b8:9d:3d:02:40:
                    65:3c:83:90:b2:30:af:a8:9a:36:11:61:80:0e:64:
                    f8:be:4c:33:e2:47:cc:d5:ec:8d:af:88:7d:39:42:
                    b4:56:76:79:8e:cd:db:e9:36:3d:67:33:cd:98:1f:
                    8b:85:81:e3:47:d5:93:0d:2f:15:a2:a5:9d:1a:cc:
                    05:27:06:94:81:98:88:2f:c4:da:41:a2:9c:f1:f3:
                    6a:c7:89:fb:fb:70:81:7a:c0:31:c4:3e:87:ee:f3:
                    5f:e6:09:59:51:8b:b4:da:16:f3:98:88:a4:d0:c5:
                    d4:e9:7e:59:dc:a6:3e:40:c2:34:03:dc:82:84:12:
                    7b:2a:c4:aa:bf:9b:1e:87:16:c2:b4:fe:65:af:41:
                    34:8e:21:4e:79:6c:6e:51:3e:a6:3d:be:62:f3:66:
                    42:9d:73:38:d5:55:bd:3b:d9:23:4a:80:3d:aa:9f:
                    6f:49:99:ad:e8:5c:6a:c3:d6:e5:5f:c5:c9:5e:dd:
                    3b:7d:87:c9:05:88:ac:70:2a:8e:63:55:5f:69:c3:
                    d6:a2:ed:9a:f9:a1:85:9d:37:ce:25:06:2d:c4:e3:
                    4a:0a:67
                Exponent: 65537 (0x10001)
        X509v3 extensions:
            X509v3 Key Usage: critical
                Digital Signature, Key Encipherment
            X509v3 Basic Constraints: 
                CA:FALSE
            X509v3 Extended Key Usage: 
                TLS Web Server Authentication, TLS Web Client Authentication
            X509v3 Subject Key Identifier: 
                7A:46:44:D2:37:0F:FB:0B:61:BF:DC:33:B0:2F:FD:51:60:C8:EB:81
            X509v3 Authority Key Identifier: 
                keyid:46:AE:F3:C6:AD:8C:3E:45:58:86:70:79:96:25:17:E1:6C:F7:16:A8

            Authority Information Access: 
                CA Issuers - URI:http://nitpicksy.no/ca/tls-ca.cer

            X509v3 CRL Distribution Points: 

                Full Name:
                  URI:http://nitpicksy.no/ca/tls-ca.crl

            X509v3 Subject Alternative Name: 
                DNS:nitpicksy.no, DNS:www.nitpicksy.no, DNS:localhost
    Signature Algorithm: sha256WithRSAEncryption
         2c:a1:17:99:f6:a2:2d:b0:51:83:7c:d6:5c:32:71:ac:a4:4f:
         35:cd:58:57:41:a1:49:7c:a0:49:5a:a4:b8:20:8c:b1:91:f8:
         c0:51:a6:9a:f0:b0:f9:e8:3b:14:22:0d:2f:ac:94:cf:a2:50:
         27:3f:87:a4:b3:ea:3a:89:69:43:19:37:72:ac:b0:12:cb:cd:
         cf:a5:a6:d0:19:42:b7:2f:02:f3:30:c2:44:48:bd:da:cc:27:
         94:6d:aa:56:68:37:b0:e4:cb:e1:12:5f:3b:d2:da:b5:0e:3e:
         58:86:06:84:27:76:7e:74:54:df:b9:f1:76:de:52:b4:fc:d8:
         01:1e:00:6c:0f:b8:40:74:2d:71:aa:5b:0c:9e:42:39:ee:ea:
         af:ed:cb:86:bb:56:ee:7f:46:fa:7a:e8:23:7a:1a:39:8b:23:
         8e:45:3a:f3:20:1c:6a:13:5e:eb:8b:89:c0:2a:28:dd:ab:78:
         f3:d5:05:32:d4:18:3a:75:38:aa:d5:71:75:8e:27:6e:85:97:
         66:c8:02:cc:c0:05:e5:be:e1:18:ae:ee:7c:d9:5f:84:67:4c:
         00:68:4e:29:8e:42:63:0f:fa:00:ce:d3:e7:42:eb:a0:8b:ab:
         70:62:37:0e:ba:06:91:8b:84:6f:63:8c:7e:d4:40:38:3e:66:
         b8:77:41:6b:7e:9b:ff:b6:4a:8e:a6:a1:34:7e:69:0f:be:36:
         7e:00:89:ea:d1:14:01:31:3f:06:4c:d0:7b:c3:06:bb:54:c6:
         24:91:6a:f2:0e:40:b6:2b:3e:b5:d4:89:85:1b:8c:8e:85:99:
         42:44:de:b0:71:22:8c:4c:66:c0:af:7e:35:17:06:2f:80:e2:
         83:51:7e:37:4e:83:57:54:bc:0b:f8:99:b1:78:56:f9:c2:bb:
         26:ec:b9:46:50:6a:62:c7:00:1f:83:3d:03:d5:19:c5:54:a5:
         06:43:f3:a3:5e:9e:39:5b:63:c8:1e:82:97:fb:40:a6:6b:fc:
         0c:77:5c:2d:ad:ae:90:a6:af:b8:4e:cb:3c:19:ce:d2:04:32:
         e5:29:18:ce:57:9d:e7:5c:2f:8e:bd:84:b0:dc:ad:90:8e:72:
         42:e9:d1:83:0c:12:2c:4b:9b:3a:72:7d:20:1d:72:4a:1f:e0:
         1d:43:d0:3f:73:e6:75:dc:53:46:2d:3f:ab:92:80:8a:36:65:
         24:1f:c2:83:fa:8b:30:eb:8b:45:b2:fb:29:8c:2b:83:70:6c:
         39:97:a7:de:30:c5:04:4d:68:b7:50:42:8c:73:71:45:a4:2c:
         17:67:e0:f8:05:78:dc:2f:06:dc:a1:3a:52:3f:d7:15:f1:96:
         7e:55:01:b0:25:f8:0c:c5
-----BEGIN CERTIFICATE-----
MIIGeDCCBGCgAwIBAgIUIjgcq86Wmn0pM/U24L09PJAUAhkwDQYJKoZIhvcNAQEL
BQAwZjELMAkGA1UEBhMCTk8xEjAQBgNVBAoMCU5pdHBpY2tzeTEoMCYGA1UECwwf
Tml0cGlja3N5IENlcnRpZmljYXRlIEF1dGhvcml0eTEZMBcGA1UEAwwQTml0cGlj
a3N5IFRMUyBDQTAeFw0yMDEyMDYyMjA4MjFaFw0yMjEyMDYyMjA4MjFaMFsxCzAJ
BgNVBAYTAk5PMRIwEAYDVQQKDAlOaXRwaWNrc3kxKDAmBgNVBAsMH05pdHBpY2tz
eSBDZXJ0aWZpY2F0ZSBBdXRob3JpdHkxDjAMBgNVBAMMBUNsb3VkMIICIjANBgkq
hkiG9w0BAQEFAAOCAg8AMIICCgKCAgEA7Q3LdjPoxmbhdTcHtIKN6x9r/JtEvUh1
K9HiNoDuSakTNW3JPsKk5a0Puyk7NwecqiYNwsAArT7I7BULRTX+pCuwy4W9VfaA
Rs3Cmo58YtnyUUcTLDO4r3fFckTF2eCYoG0T6D7YTLA5qmEL2yVobXNc9/skQRgK
NGtdLuxQT+CRJ0Rx1dy2x2i1rkyRe+X0dXjw9qkSkdZlcCJjPDBfNJf9kbDluFxf
GFESGBufOxQBBel9h1XlIKMqiKjFSqMvNpJGUz6dL8sm/tR6WgKQmNGr462Mp9ME
GfwHy2TzLgGqVUZHctA/qZTQa+Z2ppRE45A9q8jyWBpp2JoLOauEx6l5o++sr9wM
gDQXhIES3HNDBJQR2Qg/UIlqh1aWbIXyQtkkBIl/uJ09AkBlPIOQsjCvqJo2EWGA
DmT4vkwz4kfM1eyNr4h9OUK0VnZ5js3b6TY9ZzPNmB+LhYHjR9WTDS8VoqWdGswF
JwaUgZiIL8TaQaKc8fNqx4n7+3CBesAxxD6H7vNf5glZUYu02hbzmIik0MXU6X5Z
3KY+QMI0A9yChBJ7KsSqv5sehxbCtP5lr0E0jiFOeWxuUT6mPb5i82ZCnXM41VW9
O9kjSoA9qp9vSZmt6Fxqw9blX8XJXt07fYfJBYiscCqOY1VfacPWou2a+aGFnTfO
JQYtxONKCmcCAwEAAaOCAScwggEjMA4GA1UdDwEB/wQEAwIFoDAJBgNVHRMEAjAA
MB0GA1UdJQQWMBQGCCsGAQUFBwMBBggrBgEFBQcDAjAdBgNVHQ4EFgQUekZE0jcP
+wthv9wzsC/9UWDI64EwHwYDVR0jBBgwFoAURq7zxq2MPkVYhnB5liUX4Wz3Fqgw
PQYIKwYBBQUHAQEEMTAvMC0GCCsGAQUFBzAChiFodHRwOi8vbml0cGlja3N5Lm5v
L2NhL3Rscy1jYS5jZXIwMgYDVR0fBCswKTAnoCWgI4YhaHR0cDovL25pdHBpY2tz
eS5uby9jYS90bHMtY2EuY3JsMDQGA1UdEQQtMCuCDG5pdHBpY2tzeS5ub4IQd3d3
Lm5pdHBpY2tzeS5ub4IJbG9jYWxob3N0MA0GCSqGSIb3DQEBCwUAA4ICAQAsoReZ
9qItsFGDfNZcMnGspE81zVhXQaFJfKBJWqS4IIyxkfjAUaaa8LD56DsUIg0vrJTP
olAnP4eks+o6iWlDGTdyrLASy83PpabQGUK3LwLzMMJESL3azCeUbapWaDew5Mvh
El870tq1Dj5YhgaEJ3Z+dFTfufF23lK0/NgBHgBsD7hAdC1xqlsMnkI57uqv7cuG
u1buf0b6eugjeho5iyOORTrzIBxqE17ri4nAKijdq3jz1QUy1Bg6dTiq1XF1jidu
hZdmyALMwAXlvuEYru582V+EZ0wAaE4pjkJjD/oAztPnQuugi6twYjcOugaRi4Rv
Y4x+1EA4Pma4d0Frfpv/tkqOpqE0fmkPvjZ+AInq0RQBMT8GTNB7wwa7VMYkkWry
DkC2Kz611ImFG4yOhZlCRN6wcSKMTGbAr341FwYvgOKDUX43ToNXVLwL+JmxeFb5
wrsm7LlGUGpixwAfgz0D1RnFVKUGQ/OjXp45W2PIHoKX+0Cma/wMd1wtra6Qpq+4
Tss8Gc7SBDLlKRjOV53nXC+OvYSw3K2QjnJC6dGDDBIsS5s6cn0gHXJKH+AdQ9A/
c+Z13FNGLT+rkoCKNmUkH8KD+osw64tFsvspjCuDcGw5l6feMMUETWi3UEKMc3FF
pCwXZ+D4BXjcLwbcoTpSP9cV8ZZ+VQGwJfgMxQ==
-----END CERTIFICATE-----
