Certificate:
    Data:
        Version: 3 (0x2)
        Serial Number:
            26:9d:93:93:e9:45:10:0e:50:e7:a1:0c:b1:54:c6:5c:4a:e1:d5:43
        Signature Algorithm: sha256WithRSAEncryption
        Issuer: C=NO, O=Nitpicksy, OU=Nitpicksy Certificate Authority, CN=Nitpicksy TLS CA
        Validity
            Not Before: Dec 11 20:36:48 2020 GMT
            Not After : Dec 11 20:36:48 2022 GMT
        Subject: C=NO, O=Nitpicksy, OU=Nitpicksy Certificate Authority, CN=zuul
        Subject Public Key Info:
            Public Key Algorithm: rsaEncryption
                RSA Public-Key: (4096 bit)
                Modulus:
                    00:bd:25:c2:b7:eb:10:7d:a6:49:91:88:5f:0c:b5:
                    c8:44:60:ce:9f:dc:60:d2:a8:47:05:f3:2d:01:8b:
                    4c:a1:09:f1:7d:89:fa:f1:be:c0:1b:6c:8a:03:f6:
                    32:ed:cd:b5:6f:4e:2c:88:3c:8a:66:e0:90:d2:8b:
                    6b:03:21:aa:74:8f:c0:00:7e:df:18:bc:21:72:84:
                    f4:63:c0:75:ff:01:f3:9c:33:3d:0c:a6:a3:02:36:
                    3c:8e:f0:94:d2:b0:2c:89:3c:ba:95:e0:35:01:86:
                    ba:82:74:52:db:6f:fd:59:a1:aa:73:94:82:6f:9e:
                    38:dd:7b:e9:a0:a8:de:f8:3c:93:a5:82:ba:3f:82:
                    8f:b3:6e:3d:7b:79:7f:36:10:8d:02:2f:30:58:1d:
                    4b:c1:ac:73:dc:83:41:24:d1:f3:b1:8c:9b:21:4e:
                    26:89:8d:fa:9f:58:33:fc:db:eb:7e:a4:13:2b:2b:
                    52:4a:e2:42:ff:a2:b8:88:9b:2b:e1:9c:0c:a6:4c:
                    10:4c:a0:82:61:f9:4f:8b:2f:07:31:93:9a:fb:2c:
                    de:dc:eb:8a:a4:60:69:10:ed:6f:c6:8e:ae:09:c6:
                    68:67:bd:fe:ff:ea:15:d4:4d:0d:0a:e4:04:97:9f:
                    8c:22:17:40:21:fd:25:51:4b:51:be:b0:a9:10:47:
                    b8:12:81:74:1a:32:aa:db:f3:56:be:49:37:01:c7:
                    57:f1:4c:3d:07:cd:8b:7b:08:09:fc:7a:05:27:cb:
                    a3:45:d9:b7:a9:13:9a:2f:15:58:ff:b0:73:a3:96:
                    9d:42:a7:b7:ba:34:5c:0d:83:f1:64:7a:79:bb:68:
                    02:84:cc:35:13:21:38:94:22:4b:20:9f:0b:4d:43:
                    b0:84:70:cb:4a:4b:88:b3:e9:99:53:a5:b8:ad:69:
                    26:f4:5a:f5:8f:c2:a8:ab:83:a9:b5:8c:09:ca:9e:
                    46:9f:5d:9e:a1:06:60:52:21:a3:96:fb:51:0a:47:
                    9e:bd:05:6f:c8:8d:ce:cb:cb:07:bc:47:fb:be:99:
                    81:f4:5a:6f:a5:6c:1a:8d:f0:8f:bd:fd:14:07:e1:
                    67:cc:67:d3:94:f7:df:06:d7:1c:5a:40:1e:92:a7:
                    c9:be:07:85:49:70:68:9b:35:5c:74:8c:26:b4:b3:
                    7a:99:01:4a:f7:47:dc:f6:12:9c:49:10:6b:d1:2c:
                    36:fb:2b:0c:13:26:a3:cd:14:14:e1:c0:84:63:71:
                    e5:b8:b0:06:2f:84:fa:cb:07:37:29:92:13:3b:cc:
                    c4:ae:dd:3b:e6:52:8f:34:43:24:87:7f:ed:cd:f0:
                    11:ea:19:e5:b6:fa:20:96:5a:fb:f7:70:7e:2b:ad:
                    d4:2b:65
                Exponent: 65537 (0x10001)
        X509v3 extensions:
            X509v3 Key Usage: critical
                Digital Signature, Key Encipherment
            X509v3 Basic Constraints: 
                CA:FALSE
            X509v3 Extended Key Usage: 
                TLS Web Server Authentication, TLS Web Client Authentication
            X509v3 Subject Key Identifier: 
                1F:E7:EE:D5:E5:A6:2D:3D:F8:41:80:C1:07:5A:DB:B0:5B:FE:88:A3
            X509v3 Authority Key Identifier: 
                keyid:CC:B0:B8:BC:D8:35:9B:94:9B:C9:52:8E:84:33:E7:D3:46:B9:14:ED

            Authority Information Access: 
                CA Issuers - URI:http://nitpicksy.no/ca/tls-ca.cer

            X509v3 CRL Distribution Points: 

                Full Name:
                  URI:http://nitpicksy.no/ca/tls-ca.crl

            X509v3 Subject Alternative Name: 
                DNS:nitpicksy.no, DNS:www.nitpicksy.no, DNS:localhost, IP Address:127.0.0.1
    Signature Algorithm: sha256WithRSAEncryption
         46:1b:d3:88:1f:ef:1a:ca:a9:c1:87:25:28:ee:da:df:b0:3b:
         9b:5a:3f:6f:d4:e3:9b:12:99:8d:ad:74:4a:41:ea:ba:27:ac:
         a6:ea:6f:7e:d6:e6:16:3c:a3:74:c5:f2:e2:0a:6a:df:ce:38:
         3c:6d:b6:1c:88:83:0d:56:57:8a:8b:fe:e7:41:5b:fd:5f:cb:
         8c:42:77:45:47:ee:df:7f:36:9c:5b:d8:27:14:1a:0e:68:55:
         fd:e1:88:cf:8d:0c:e4:4a:85:e2:7c:1f:3a:70:6f:2f:d7:f2:
         20:a4:8e:81:64:3c:2a:87:8b:fa:af:7f:0f:98:4c:03:6c:54:
         de:7c:7e:9a:15:d1:db:b1:50:3e:9e:bc:9b:f0:69:25:96:d3:
         92:89:a3:e4:90:06:16:e8:24:37:0e:c2:98:85:46:eb:61:40:
         09:b4:9e:6c:f9:cd:a5:33:66:43:8b:83:55:a5:4d:4e:1c:05:
         5d:d8:2f:00:f7:48:3a:6f:61:f7:3d:8c:16:91:de:91:60:a7:
         d2:ae:d0:f7:dd:b9:e3:3e:9c:15:39:f2:0c:bb:f4:e3:cc:a5:
         f8:73:96:2c:9e:31:fd:92:62:42:d8:67:cc:01:6f:af:69:9a:
         e1:f2:5c:12:4f:78:84:90:5e:d6:b1:89:18:6c:b3:c2:74:65:
         4e:84:91:87:73:46:e7:89:f8:69:bb:dc:e8:ea:2e:c0:c3:be:
         f3:5f:aa:dc:a7:2b:1a:92:ad:9b:94:42:bb:9c:40:2d:8b:da:
         e9:5e:5f:e3:9d:53:d1:30:9d:04:82:1e:e4:57:6f:3a:31:a5:
         4d:e8:07:4b:f2:6b:1a:3b:9f:27:ee:ca:4a:17:27:71:29:52:
         a8:15:17:4f:a3:d4:47:6c:f8:de:58:ef:c6:86:5d:41:80:ce:
         ea:e6:1a:a9:35:bb:86:27:ee:61:5d:f8:b7:4a:06:8d:4e:61:
         f6:71:b4:2a:a8:e9:28:40:27:27:f1:6b:72:c6:31:55:d6:d9:
         50:ac:12:39:3a:22:95:47:61:ff:be:c1:46:ce:33:8e:04:7e:
         85:ec:88:82:2b:32:eb:a2:ed:a9:f8:36:70:c0:ed:ce:e0:32:
         fd:33:6d:a2:8b:10:98:cb:f7:1f:02:fe:ff:30:90:b9:80:18:
         50:64:ea:af:52:66:e8:ce:d4:62:77:c3:d6:11:4c:2c:0e:90:
         5b:44:0a:df:d5:d7:54:7a:2e:47:17:92:7a:c5:4e:81:4f:4c:
         55:10:22:d0:e8:8f:4e:a5:18:f5:f2:d6:60:2f:18:f6:59:8f:
         d2:51:29:d4:e6:99:38:9b:35:99:0f:f5:bc:54:9b:4b:35:0b:
         00:56:b4:fb:6d:61:e4:d1
-----BEGIN CERTIFICATE-----
MIIGfTCCBGWgAwIBAgIUJp2Tk+lFEA5Q56EMsVTGXErh1UMwDQYJKoZIhvcNAQEL
BQAwZjELMAkGA1UEBhMCTk8xEjAQBgNVBAoMCU5pdHBpY2tzeTEoMCYGA1UECwwf
Tml0cGlja3N5IENlcnRpZmljYXRlIEF1dGhvcml0eTEZMBcGA1UEAwwQTml0cGlj
a3N5IFRMUyBDQTAeFw0yMDEyMTEyMDM2NDhaFw0yMjEyMTEyMDM2NDhaMFoxCzAJ
BgNVBAYTAk5PMRIwEAYDVQQKDAlOaXRwaWNrc3kxKDAmBgNVBAsMH05pdHBpY2tz
eSBDZXJ0aWZpY2F0ZSBBdXRob3JpdHkxDTALBgNVBAMMBHp1dWwwggIiMA0GCSqG
SIb3DQEBAQUAA4ICDwAwggIKAoICAQC9JcK36xB9pkmRiF8MtchEYM6f3GDSqEcF
8y0Bi0yhCfF9ifrxvsAbbIoD9jLtzbVvTiyIPIpm4JDSi2sDIap0j8AAft8YvCFy
hPRjwHX/AfOcMz0MpqMCNjyO8JTSsCyJPLqV4DUBhrqCdFLbb/1ZoapzlIJvnjjd
e+mgqN74PJOlgro/go+zbj17eX82EI0CLzBYHUvBrHPcg0Ek0fOxjJshTiaJjfqf
WDP82+t+pBMrK1JK4kL/oriImyvhnAymTBBMoIJh+U+LLwcxk5r7LN7c64qkYGkQ
7W/Gjq4Jxmhnvf7/6hXUTQ0K5ASXn4wiF0Ah/SVRS1G+sKkQR7gSgXQaMqrb81a+
STcBx1fxTD0HzYt7CAn8egUny6NF2bepE5ovFVj/sHOjlp1Cp7e6NFwNg/Fkenm7
aAKEzDUTITiUIksgnwtNQ7CEcMtKS4iz6ZlTpbitaSb0WvWPwqirg6m1jAnKnkaf
XZ6hBmBSIaOW+1EKR569BW/Ijc7Lywe8R/u+mYH0Wm+lbBqN8I+9/RQH4WfMZ9OU
998G1xxaQB6Sp8m+B4VJcGibNVx0jCa0s3qZAUr3R9z2EpxJEGvRLDb7KwwTJqPN
FBThwIRjceW4sAYvhPrLBzcpkhM7zMSu3TvmUo80QySHf+3N8BHqGeW2+iCWWvv3
cH4rrdQrZQIDAQABo4IBLTCCASkwDgYDVR0PAQH/BAQDAgWgMAkGA1UdEwQCMAAw
HQYDVR0lBBYwFAYIKwYBBQUHAwEGCCsGAQUFBwMCMB0GA1UdDgQWBBQf5+7V5aYt
PfhBgMEHWtuwW/6IozAfBgNVHSMEGDAWgBTMsLi82DWblJvJUo6EM+fTRrkU7TA9
BggrBgEFBQcBAQQxMC8wLQYIKwYBBQUHMAKGIWh0dHA6Ly9uaXRwaWNrc3kubm8v
Y2EvdGxzLWNhLmNlcjAyBgNVHR8EKzApMCegJaAjhiFodHRwOi8vbml0cGlja3N5
Lm5vL2NhL3Rscy1jYS5jcmwwOgYDVR0RBDMwMYIMbml0cGlja3N5Lm5vghB3d3cu
bml0cGlja3N5Lm5vgglsb2NhbGhvc3SHBH8AAAEwDQYJKoZIhvcNAQELBQADggIB
AEYb04gf7xrKqcGHJSju2t+wO5taP2/U45sSmY2tdEpB6ronrKbqb37W5hY8o3TF
8uIKat/OODxtthyIgw1WV4qL/udBW/1fy4xCd0VH7t9/Npxb2CcUGg5oVf3hiM+N
DORKheJ8Hzpwby/X8iCkjoFkPCqHi/qvfw+YTANsVN58fpoV0duxUD6evJvwaSWW
05KJo+SQBhboJDcOwpiFRuthQAm0nmz5zaUzZkOLg1WlTU4cBV3YLwD3SDpvYfc9
jBaR3pFgp9Ku0PfdueM+nBU58gy79OPMpfhzliyeMf2SYkLYZ8wBb69pmuHyXBJP
eISQXtaxiRhss8J0ZU6EkYdzRueJ+Gm73OjqLsDDvvNfqtynKxqSrZuUQrucQC2L
2uleX+OdU9EwnQSCHuRXbzoxpU3oB0vyaxo7nyfuykoXJ3EpUqgVF0+j1Eds+N5Y
78aGXUGAzurmGqk1u4Yn7mFd+LdKBo1OYfZxtCqo6ShAJyfxa3LGMVXW2VCsEjk6
IpVHYf++wUbOM44EfoXsiIIrMuui7an4NnDA7c7gMv0zbaKLEJjL9x8C/v8wkLmA
GFBk6q9SZujO1GJ3w9YRTCwOkFtECt/V11R6LkcXknrFToFPTFUQItDoj06lGPXy
1mAvGPZZj9JRKdTmmTibNZkP9bxUm0s1CwBWtPttYeTR
-----END CERTIFICATE-----
