Certificate:
    Data:
        Version: 3 (0x2)
        Serial Number:
            29:e1:33:ac:0e:0f:13:b7:82:ec:30:77:f8:c2:86:79:ca:1d:2e:92
        Signature Algorithm: sha256WithRSAEncryption
        Issuer: C=NO, O=Nitpicksy, OU=Nitpicksy Certificate Authority, CN=Nitpicksy TLS CA
        Validity
            Not Before: Dec  6 22:08:23 2020 GMT
            Not After : Dec  6 22:08:23 2022 GMT
        Subject: C=NO, O=Nitpicksy, OU=Nitpicksy Certificate Authority, CN=Paypal
        Subject Public Key Info:
            Public Key Algorithm: rsaEncryption
                RSA Public-Key: (4096 bit)
                Modulus:
                    00:be:12:96:c6:5c:91:00:b8:9e:97:c4:cc:ae:8d:
                    31:a6:0a:1b:4e:4c:59:1c:5e:61:aa:93:88:db:f0:
                    97:71:3a:a0:28:e7:2c:f0:35:5c:b7:c5:45:15:a5:
                    d7:5f:29:94:9d:83:ef:fb:68:ea:75:da:44:ea:d8:
                    5c:cb:e2:00:0a:82:c1:6f:3d:ce:d3:3b:10:dd:d4:
                    8c:0d:23:15:e4:39:e1:6a:4a:50:9a:34:7d:67:a2:
                    a4:6b:12:94:b2:a1:e4:07:bf:a5:4b:40:12:1f:fa:
                    4b:55:58:e3:15:4d:14:fd:43:11:22:d2:d2:95:c9:
                    b6:2f:e0:ab:22:5e:15:f8:90:7a:ab:4c:d0:2e:63:
                    a0:59:19:38:87:49:d8:6b:6e:c3:ff:a2:27:dd:46:
                    78:b0:57:b4:a9:66:c3:53:2a:22:5c:46:0b:36:39:
                    81:af:06:19:99:32:55:56:08:7d:48:a7:97:30:93:
                    9e:6e:a7:a6:75:49:a0:01:4d:6a:81:74:a9:d0:06:
                    d0:a7:5c:7b:45:c4:6c:62:92:d0:aa:ba:b5:37:87:
                    ef:ef:d6:44:24:54:26:ca:ab:89:99:e5:9a:bc:2d:
                    60:17:3b:97:7f:a3:ea:5f:3e:6f:23:28:c4:cf:aa:
                    34:e1:5a:36:f8:41:a1:20:aa:f3:b8:10:71:5b:d4:
                    18:a1:ed:68:62:ae:98:83:07:f1:d7:5d:49:bb:0a:
                    7c:8a:c3:4d:14:14:e6:b3:86:c8:0a:3a:bb:74:af:
                    dd:88:ee:dd:ed:8f:8b:a0:0d:c1:b6:86:bb:6d:99:
                    eb:cc:93:b1:09:46:ee:76:e1:95:d2:00:93:f5:db:
                    c7:4a:47:6e:3c:b4:28:12:c1:6d:18:2f:f2:51:eb:
                    9c:18:0b:c7:fe:23:a2:c6:9d:cd:25:da:dc:21:9f:
                    7a:0a:97:93:54:4b:7c:fe:da:0d:85:03:fa:ba:f3:
                    68:ea:a2:96:a2:2b:56:be:7a:06:f4:87:26:4e:92:
                    c3:06:12:66:65:12:a2:77:2a:60:1e:d4:ed:66:77:
                    30:cb:55:14:a1:a4:80:94:b9:35:08:56:aa:0a:cd:
                    ef:a6:60:52:42:97:7e:75:ad:71:1b:b6:c2:46:b4:
                    df:20:a9:dc:fe:2c:6c:80:a5:77:0e:f7:f6:ea:ee:
                    52:3f:39:76:4a:62:ca:a5:ef:17:2a:4a:df:e6:93:
                    da:28:30:60:96:b7:e2:65:eb:15:fb:bc:4e:81:d5:
                    a4:23:ca:06:1f:cd:49:75:5b:0f:57:9c:d7:6f:0a:
                    43:69:cd:72:bc:bd:ee:9d:0a:65:1f:b6:d5:f8:e8:
                    e4:01:70:d1:67:79:dc:0f:c8:61:50:18:52:f2:63:
                    7e:1d:8d
                Exponent: 65537 (0x10001)
        X509v3 extensions:
            X509v3 Key Usage: critical
                Digital Signature, Key Encipherment
            X509v3 Basic Constraints: 
                CA:FALSE
            X509v3 Extended Key Usage: 
                TLS Web Server Authentication, TLS Web Client Authentication
            X509v3 Subject Key Identifier: 
                57:F7:D5:F9:EB:4D:25:82:93:08:52:EC:B9:73:E4:BC:FD:2C:BA:42
            X509v3 Authority Key Identifier: 
                keyid:46:AE:F3:C6:AD:8C:3E:45:58:86:70:79:96:25:17:E1:6C:F7:16:A8

            Authority Information Access: 
                CA Issuers - URI:http://nitpicksy.no/ca/tls-ca.cer

            X509v3 CRL Distribution Points: 

                Full Name:
                  URI:http://nitpicksy.no/ca/tls-ca.crl

            X509v3 Subject Alternative Name: 
                DNS:nitpicksy.no, DNS:www.nitpicksy.no, DNS:localhost
    Signature Algorithm: sha256WithRSAEncryption
         15:64:0f:3e:b5:90:4b:4f:49:ea:c4:b7:19:6e:7a:27:bc:b4:
         8f:ff:eb:ef:3d:cb:d2:cc:44:0a:6c:d9:75:6b:82:12:78:8b:
         00:f3:5f:97:af:2f:8d:86:69:c2:88:17:79:da:38:2e:bd:61:
         cc:34:97:36:3c:9d:45:5e:79:a1:91:aa:cb:f2:b9:d0:46:e5:
         f2:87:e9:03:bf:2d:b9:18:26:5e:ad:16:9d:8b:ff:d7:d2:a0:
         64:31:84:42:bb:b3:f3:f7:b6:fd:70:ec:74:0c:14:9f:0e:fb:
         21:b8:67:5b:d4:3c:bb:5f:47:1b:55:e0:cd:d6:c2:c9:c5:9f:
         1d:e1:c8:58:3b:a9:10:3d:1a:23:1d:da:18:f5:10:af:2e:85:
         3a:1c:ef:c7:9b:58:98:40:1f:05:42:e7:15:16:f9:47:5d:19:
         ef:64:7a:ef:58:5c:a5:1f:a1:3f:54:20:a6:48:d0:45:21:57:
         64:d7:b8:4c:2d:88:48:20:c9:2b:73:f3:5b:44:e0:a1:bd:99:
         4c:09:d8:45:89:c4:40:36:50:93:df:98:11:57:1d:d2:05:a9:
         bc:d8:09:0d:00:f0:28:61:4a:b1:38:6d:1a:51:c0:30:bd:79:
         44:b0:a7:19:d9:37:9f:e3:42:79:1c:41:dd:6a:c7:f0:cf:64:
         fd:83:e4:06:6b:c0:df:2c:74:49:1f:56:ef:78:c2:d4:2d:77:
         50:51:d6:af:cd:42:8b:f8:b7:89:8a:f0:a8:36:71:bf:e4:21:
         39:ae:73:c2:28:96:55:c9:84:30:fd:ab:df:3e:d1:99:92:89:
         4d:34:b8:f6:5b:78:9f:2c:09:df:e6:4d:09:e6:10:bd:4f:49:
         d7:45:c2:95:71:cc:b4:c6:2e:3b:a3:0f:04:80:74:81:c3:ad:
         7a:08:50:68:5e:d0:00:fc:84:b4:2f:2a:1d:f5:3d:fb:ae:82:
         8d:0a:33:54:7d:b8:a8:14:e2:2c:ae:ac:4e:b8:22:21:86:d4:
         35:3b:45:70:7a:99:11:18:5f:1c:cf:d6:b6:2e:da:95:b2:d1:
         22:2f:e4:03:54:8e:3c:e6:3a:ca:97:b3:2a:77:51:cd:8d:64:
         a9:03:b9:2c:aa:ff:07:f9:8e:4c:3c:87:36:a0:17:ca:88:e4:
         19:b1:8c:c0:ff:b0:7f:d0:ca:4e:3f:49:30:c0:71:a4:d3:2d:
         8d:c3:3a:1b:dd:63:6f:ad:26:f5:90:bd:cf:cb:68:93:c9:de:
         4f:51:33:86:2e:4a:21:e4:fb:76:e4:3c:8a:7e:ed:3c:e4:7d:
         03:00:81:61:1b:ec:a0:af:0d:61:5f:c1:b5:6c:6b:d3:8f:fb:
         07:8f:00:46:cf:04:08:15
-----BEGIN CERTIFICATE-----
MIIGeTCCBGGgAwIBAgIUKeEzrA4PE7eC7DB3+MKGecodLpIwDQYJKoZIhvcNAQEL
BQAwZjELMAkGA1UEBhMCTk8xEjAQBgNVBAoMCU5pdHBpY2tzeTEoMCYGA1UECwwf
Tml0cGlja3N5IENlcnRpZmljYXRlIEF1dGhvcml0eTEZMBcGA1UEAwwQTml0cGlj
a3N5IFRMUyBDQTAeFw0yMDEyMDYyMjA4MjNaFw0yMjEyMDYyMjA4MjNaMFwxCzAJ
BgNVBAYTAk5PMRIwEAYDVQQKDAlOaXRwaWNrc3kxKDAmBgNVBAsMH05pdHBpY2tz
eSBDZXJ0aWZpY2F0ZSBBdXRob3JpdHkxDzANBgNVBAMMBlBheXBhbDCCAiIwDQYJ
KoZIhvcNAQEBBQADggIPADCCAgoCggIBAL4SlsZckQC4npfEzK6NMaYKG05MWRxe
YaqTiNvwl3E6oCjnLPA1XLfFRRWl118plJ2D7/to6nXaROrYXMviAAqCwW89ztM7
EN3UjA0jFeQ54WpKUJo0fWeipGsSlLKh5Ae/pUtAEh/6S1VY4xVNFP1DESLS0pXJ
ti/gqyJeFfiQeqtM0C5joFkZOIdJ2Gtuw/+iJ91GeLBXtKlmw1MqIlxGCzY5ga8G
GZkyVVYIfUinlzCTnm6npnVJoAFNaoF0qdAG0Kdce0XEbGKS0Kq6tTeH7+/WRCRU
JsqriZnlmrwtYBc7l3+j6l8+byMoxM+qNOFaNvhBoSCq87gQcVvUGKHtaGKumIMH
8dddSbsKfIrDTRQU5rOGyAo6u3Sv3Yju3e2Pi6ANwbaGu22Z68yTsQlG7nbhldIA
k/Xbx0pHbjy0KBLBbRgv8lHrnBgLx/4josadzSXa3CGfegqXk1RLfP7aDYUD+rrz
aOqilqIrVr56BvSHJk6SwwYSZmUSoncqYB7U7WZ3MMtVFKGkgJS5NQhWqgrN76Zg
UkKXfnWtcRu2wka03yCp3P4sbICldw739uruUj85dkpiyqXvFypK3+aT2igwYJa3
4mXrFfu8ToHVpCPKBh/NSXVbD1ec128KQ2nNcry97p0KZR+21fjo5AFw0Wd53A/I
YVAYUvJjfh2NAgMBAAGjggEnMIIBIzAOBgNVHQ8BAf8EBAMCBaAwCQYDVR0TBAIw
ADAdBgNVHSUEFjAUBggrBgEFBQcDAQYIKwYBBQUHAwIwHQYDVR0OBBYEFFf31fnr
TSWCkwhS7Llz5Lz9LLpCMB8GA1UdIwQYMBaAFEau88atjD5FWIZweZYlF+Fs9xao
MD0GCCsGAQUFBwEBBDEwLzAtBggrBgEFBQcwAoYhaHR0cDovL25pdHBpY2tzeS5u
by9jYS90bHMtY2EuY2VyMDIGA1UdHwQrMCkwJ6AloCOGIWh0dHA6Ly9uaXRwaWNr
c3kubm8vY2EvdGxzLWNhLmNybDA0BgNVHREELTArggxuaXRwaWNrc3kubm+CEHd3
dy5uaXRwaWNrc3kubm+CCWxvY2FsaG9zdDANBgkqhkiG9w0BAQsFAAOCAgEAFWQP
PrWQS09J6sS3GW56J7y0j//r7z3L0sxECmzZdWuCEniLAPNfl68vjYZpwogXedo4
Lr1hzDSXNjydRV55oZGqy/K50Ebl8ofpA78tuRgmXq0WnYv/19KgZDGEQruz8/e2
/XDsdAwUnw77IbhnW9Q8u19HG1XgzdbCycWfHeHIWDupED0aIx3aGPUQry6FOhzv
x5tYmEAfBULnFRb5R10Z72R671hcpR+hP1QgpkjQRSFXZNe4TC2ISCDJK3PzW0Tg
ob2ZTAnYRYnEQDZQk9+YEVcd0gWpvNgJDQDwKGFKsThtGlHAML15RLCnGdk3n+NC
eRxB3WrH8M9k/YPkBmvA3yx0SR9W73jC1C13UFHWr81Ci/i3iYrwqDZxv+QhOa5z
wiiWVcmEMP2r3z7RmZKJTTS49lt4nywJ3+ZNCeYQvU9J10XClXHMtMYuO6MPBIB0
gcOteghQaF7QAPyEtC8qHfU9+66CjQozVH24qBTiLK6sTrgiIYbUNTtFcHqZERhf
HM/Wti7albLRIi/kA1SOPOY6ypezKndRzY1kqQO5LKr/B/mOTDyHNqAXyojkGbGM
wP+wf9DKTj9JMMBxpNMtjcM6G91jb60m9ZC9z8tok8neT1Ezhi5KIeT7duQ8in7t
POR9AwCBYRvsoK8NYV/BtWxr04/7B48ARs8ECBU=
-----END CERTIFICATE-----
