Certificate:
    Data:
        Version: 3 (0x2)
        Serial Number:
            2c:9e:1c:e9:15:12:b2:e9:f3:32:17:02:d5:fe:c9:7b:e1:ba:bb:29
        Signature Algorithm: sha256WithRSAEncryption
        Issuer: C=NO, O=Nitpicksy, OU=Nitpicksy Certificate Authority, CN=Nitpicksy TLS CA
        Validity
            Not Before: Dec 11 20:36:49 2020 GMT
            Not After : Dec 11 20:36:49 2022 GMT
        Subject: C=NO, O=Nitpicksy, OU=Nitpicksy Certificate Authority, CN=Eureka
        Subject Public Key Info:
            Public Key Algorithm: rsaEncryption
                RSA Public-Key: (4096 bit)
                Modulus:
                    00:b3:aa:65:63:32:03:c0:3b:7d:58:b1:99:a8:47:
                    5f:ee:41:96:73:15:ee:53:a0:96:05:9b:e8:99:87:
                    c3:b1:73:9e:40:78:82:72:68:eb:c7:50:6e:33:62:
                    da:5c:73:d0:45:0a:26:1f:64:f1:5a:0e:ef:93:a1:
                    cc:0e:ed:81:bc:e1:14:2f:0f:fe:e0:32:98:55:96:
                    bf:76:0b:48:10:81:be:8b:8c:4a:ed:f6:bb:a5:9c:
                    22:18:2a:59:6b:e9:b5:44:6a:32:29:06:40:84:b9:
                    6c:77:6d:11:22:7d:6b:7b:e8:1c:e6:96:ce:05:9f:
                    f1:22:98:0c:08:e5:d0:0b:46:6d:12:76:8c:f1:05:
                    23:be:41:8c:bc:8b:b2:22:28:9a:5b:90:13:ca:14:
                    be:38:15:26:eb:f1:7c:55:c2:31:3f:03:93:2e:4f:
                    8a:c7:69:0d:4e:73:ec:bf:8b:6b:d9:3b:bf:07:e4:
                    42:69:62:20:61:77:b1:67:4b:af:8a:34:ec:b4:49:
                    37:a5:cf:47:22:55:fa:cb:de:cf:98:52:8f:7d:76:
                    56:b1:a4:98:c0:1c:b3:9f:7e:dd:7c:2a:e2:71:03:
                    d5:18:da:43:27:78:cc:05:53:4f:77:42:af:e0:28:
                    67:c7:29:92:7a:be:3d:2d:a1:ea:eb:82:29:c1:7c:
                    a5:a8:30:ec:1d:21:99:0d:9c:d4:f6:2b:91:8b:a0:
                    a1:a3:07:d2:0a:77:23:aa:c7:51:b6:c5:3d:be:25:
                    4e:76:0a:18:7a:df:a2:4d:b6:72:17:c8:3d:e7:37:
                    31:6a:c8:bc:1d:8d:c9:04:17:b9:64:a5:97:13:e5:
                    7d:07:54:7b:fa:4b:c8:03:13:90:1b:e3:c4:61:65:
                    38:ba:d6:f2:df:81:79:18:e8:6b:57:ca:d8:21:69:
                    a4:ef:a4:cd:1d:d5:14:32:ee:1b:59:0a:8a:62:99:
                    aa:5a:06:ef:a3:0e:69:3d:4a:75:1a:3d:5f:19:ec:
                    d6:3a:dc:f3:e1:7d:76:43:a0:73:83:5e:c3:70:0d:
                    3b:75:39:08:81:b0:d3:c1:65:73:f0:0e:e9:3f:d4:
                    bc:ac:f4:90:15:46:54:74:78:bd:80:40:78:75:86:
                    42:a0:09:f6:33:62:42:c7:83:6a:29:4e:d6:8f:19:
                    13:5f:d2:1a:1f:3e:13:72:85:ff:59:17:5e:79:8e:
                    c4:b7:e4:e2:03:03:f7:03:df:7d:48:20:ac:8a:83:
                    a7:64:42:43:63:92:cd:2c:6e:b6:42:77:4c:75:f0:
                    ad:3a:ab:ba:ac:47:bc:2c:08:3c:9e:c2:68:66:dc:
                    38:bc:cf:97:ef:10:98:96:1e:82:ea:22:e8:b1:5a:
                    c3:0f:87
                Exponent: 65537 (0x10001)
        X509v3 extensions:
            X509v3 Key Usage: critical
                Digital Signature, Key Encipherment
            X509v3 Basic Constraints: 
                CA:FALSE
            X509v3 Extended Key Usage: 
                TLS Web Server Authentication, TLS Web Client Authentication
            X509v3 Subject Key Identifier: 
                15:D4:E7:6E:ED:3C:A2:EE:7A:C7:C0:05:AB:47:EA:0F:B2:EF:19:01
            X509v3 Authority Key Identifier: 
                keyid:CC:B0:B8:BC:D8:35:9B:94:9B:C9:52:8E:84:33:E7:D3:46:B9:14:ED

            Authority Information Access: 
                CA Issuers - URI:http://nitpicksy.no/ca/tls-ca.cer

            X509v3 CRL Distribution Points: 

                Full Name:
                  URI:http://nitpicksy.no/ca/tls-ca.crl

            X509v3 Subject Alternative Name: 
                DNS:nitpicksy.no, DNS:www.nitpicksy.no, DNS:localhost, IP Address:127.0.0.1
    Signature Algorithm: sha256WithRSAEncryption
         40:ca:8c:67:42:f4:cd:df:ea:83:c3:a0:e7:37:1d:78:be:4b:
         4e:17:58:02:99:c8:c3:f7:ff:7f:fa:32:9b:32:9f:0b:4e:f9:
         f6:3e:84:14:d9:84:47:e0:8e:1b:cd:82:6b:ad:5d:21:3b:0d:
         87:25:b9:11:60:49:f5:d1:bc:87:ce:ab:a2:c7:da:17:96:d9:
         e2:b8:b4:6d:03:3a:94:38:0d:54:08:8f:67:2c:ba:2b:47:fb:
         c0:58:6e:4d:1b:75:98:ce:e1:26:ef:ed:30:e2:f1:71:e4:eb:
         56:a6:08:da:ec:f6:af:20:62:b3:bc:c3:33:29:5d:42:91:13:
         48:e2:6e:e9:b1:6c:62:7b:c4:09:58:0a:d6:12:a2:2c:26:4b:
         be:9e:2a:3a:de:c0:35:7a:65:7d:08:7e:f6:06:53:8e:18:bb:
         f4:64:dd:dc:9a:45:23:5b:cd:b4:f7:4b:01:5c:b7:92:9e:1b:
         c3:16:3b:38:15:1e:2a:30:f1:8f:39:9f:04:11:62:74:d2:47:
         bb:54:ca:b7:d6:dd:0c:58:a5:eb:06:ca:ce:b8:a0:ec:08:35:
         e5:0b:cb:10:64:73:fb:96:47:35:e1:0a:22:76:5e:d9:5d:5c:
         03:fc:ee:67:1f:16:6f:91:cb:57:c7:b5:b7:89:62:2d:62:62:
         1d:9c:94:da:b6:e3:26:b7:b9:9d:10:96:67:12:25:eb:45:d7:
         c4:1b:c4:32:17:82:7a:11:0d:1a:5d:23:dd:10:78:67:e8:89:
         19:25:33:41:bf:e3:f6:64:4e:be:2a:6a:dd:4f:7d:0b:65:fe:
         51:b1:c4:62:e5:8d:66:a2:29:c9:c6:7e:a2:10:d4:6e:8f:ed:
         56:9d:be:39:c9:84:e7:b4:26:28:0f:0d:cd:8a:f2:f7:9d:c2:
         01:c9:5e:d5:8b:b5:5e:e2:4e:6f:5a:d8:b2:c5:42:60:66:bb:
         48:f4:95:08:80:f1:75:2e:6e:27:70:7f:0c:d1:ac:5b:e2:fe:
         9b:c8:d4:53:33:6b:69:ef:aa:14:98:e4:c1:db:9d:23:57:4d:
         21:5e:e5:d5:11:c9:bf:ff:6a:ff:03:a8:58:03:3d:68:57:31:
         66:57:52:bd:28:68:bc:bd:89:c6:3e:8c:f8:5b:85:0a:2e:75:
         53:38:8a:0d:26:6e:be:99:45:75:01:72:2a:33:3c:0b:98:35:
         ca:5c:51:c8:03:51:21:b0:34:b2:8b:b7:ef:12:c8:2b:06:a1:
         82:dd:da:ac:b5:e8:37:73:e2:08:81:d2:5b:a5:e7:32:2e:df:
         a4:98:1f:50:66:8e:97:ee:9a:3d:1c:b6:a1:e4:54:d1:d8:88:
         cb:ac:fc:de:00:e5:24:60
-----BEGIN CERTIFICATE-----
MIIGfzCCBGegAwIBAgIULJ4c6RUSsunzMhcC1f7Je+G6uykwDQYJKoZIhvcNAQEL
BQAwZjELMAkGA1UEBhMCTk8xEjAQBgNVBAoMCU5pdHBpY2tzeTEoMCYGA1UECwwf
Tml0cGlja3N5IENlcnRpZmljYXRlIEF1dGhvcml0eTEZMBcGA1UEAwwQTml0cGlj
a3N5IFRMUyBDQTAeFw0yMDEyMTEyMDM2NDlaFw0yMjEyMTEyMDM2NDlaMFwxCzAJ
BgNVBAYTAk5PMRIwEAYDVQQKDAlOaXRwaWNrc3kxKDAmBgNVBAsMH05pdHBpY2tz
eSBDZXJ0aWZpY2F0ZSBBdXRob3JpdHkxDzANBgNVBAMMBkV1cmVrYTCCAiIwDQYJ
KoZIhvcNAQEBBQADggIPADCCAgoCggIBALOqZWMyA8A7fVixmahHX+5BlnMV7lOg
lgWb6JmHw7FznkB4gnJo68dQbjNi2lxz0EUKJh9k8VoO75OhzA7tgbzhFC8P/uAy
mFWWv3YLSBCBvouMSu32u6WcIhgqWWvptURqMikGQIS5bHdtESJ9a3voHOaWzgWf
8SKYDAjl0AtGbRJ2jPEFI75BjLyLsiIomluQE8oUvjgVJuvxfFXCMT8Dky5Pisdp
DU5z7L+La9k7vwfkQmliIGF3sWdLr4o07LRJN6XPRyJV+svez5hSj312VrGkmMAc
s59+3Xwq4nED1RjaQyd4zAVTT3dCr+AoZ8cpknq+PS2h6uuCKcF8pagw7B0hmQ2c
1PYrkYugoaMH0gp3I6rHUbbFPb4lTnYKGHrfok22chfIPec3MWrIvB2NyQQXuWSl
lxPlfQdUe/pLyAMTkBvjxGFlOLrW8t+BeRjoa1fK2CFppO+kzR3VFDLuG1kKimKZ
qloG76MOaT1KdRo9Xxns1jrc8+F9dkOgc4New3ANO3U5CIGw08Flc/AO6T/UvKz0
kBVGVHR4vYBAeHWGQqAJ9jNiQseDailO1o8ZE1/SGh8+E3KF/1kXXnmOxLfk4gMD
9wPffUggrIqDp2RCQ2OSzSxutkJ3THXwrTqruqxHvCwIPJ7CaGbcOLzPl+8QmJYe
guoi6LFaww+HAgMBAAGjggEtMIIBKTAOBgNVHQ8BAf8EBAMCBaAwCQYDVR0TBAIw
ADAdBgNVHSUEFjAUBggrBgEFBQcDAQYIKwYBBQUHAwIwHQYDVR0OBBYEFBXU527t
PKLuesfABatH6g+y7xkBMB8GA1UdIwQYMBaAFMywuLzYNZuUm8lSjoQz59NGuRTt
MD0GCCsGAQUFBwEBBDEwLzAtBggrBgEFBQcwAoYhaHR0cDovL25pdHBpY2tzeS5u
by9jYS90bHMtY2EuY2VyMDIGA1UdHwQrMCkwJ6AloCOGIWh0dHA6Ly9uaXRwaWNr
c3kubm8vY2EvdGxzLWNhLmNybDA6BgNVHREEMzAxggxuaXRwaWNrc3kubm+CEHd3
dy5uaXRwaWNrc3kubm+CCWxvY2FsaG9zdIcEfwAAATANBgkqhkiG9w0BAQsFAAOC
AgEAQMqMZ0L0zd/qg8Og5zcdeL5LThdYApnIw/f/f/oymzKfC0759j6EFNmER+CO
G82Ca61dITsNhyW5EWBJ9dG8h86rosfaF5bZ4ri0bQM6lDgNVAiPZyy6K0f7wFhu
TRt1mM7hJu/tMOLxceTrVqYI2uz2ryBis7zDMyldQpETSOJu6bFsYnvECVgK1hKi
LCZLvp4qOt7ANXplfQh+9gZTjhi79GTd3JpFI1vNtPdLAVy3kp4bwxY7OBUeKjDx
jzmfBBFidNJHu1TKt9bdDFil6wbKzrig7Ag15QvLEGRz+5ZHNeEKInZe2V1cA/zu
Zx8Wb5HLV8e1t4liLWJiHZyU2rbjJre5nRCWZxIl60XXxBvEMheCehENGl0j3RB4
Z+iJGSUzQb/j9mROvipq3U99C2X+UbHEYuWNZqIpycZ+ohDUbo/tVp2+OcmE57Qm
KA8NzYry953CAcle1Yu1XuJOb1rYssVCYGa7SPSVCIDxdS5uJ3B/DNGsW+L+m8jU
UzNrae+qFJjkwdudI1dNIV7l1RHJv/9q/wOoWAM9aFcxZldSvShovL2Jxj6M+FuF
Ci51UziKDSZuvplFdQFyKjM8C5g1ylxRyANRIbA0sou37xLIKwahgt3arLXoN3Pi
CIHSW6XnMi7fpJgfUGaOl+6aPRy2oeRU0diIy6z83gDlJGA=
-----END CERTIFICATE-----
