Certificate:
    Data:
        Version: 3 (0x2)
        Serial Number:
            2d:b8:52:c6:65:1a:b2:bf:6b:b7:fe:b9:15:14:eb:fc:e1:9e:7f:bd
        Signature Algorithm: sha256WithRSAEncryption
        Issuer: C=NO, O=Nitpicksy, OU=Nitpicksy Certificate Authority, CN=Nitpicksy TLS CA
        Validity
            Not Before: Dec  6 22:19:59 2020 GMT
            Not After : Dec  6 22:19:59 2022 GMT
        Subject: C=NO, O=Nitpicksy, OU=Nitpicksy Certificate Authority, CN=zuul
        Subject Public Key Info:
            Public Key Algorithm: rsaEncryption
                RSA Public-Key: (4096 bit)
                Modulus:
                    00:d5:1c:2f:8d:f1:47:67:ec:34:67:6b:ae:3b:e8:
                    f4:a9:7e:a0:2c:2e:48:a5:93:71:a6:a2:b2:33:35:
                    89:03:8f:c4:a1:2e:7b:6f:f8:53:f8:4b:03:23:d3:
                    35:68:86:09:fd:c1:41:da:7b:c9:2e:d4:e2:19:ab:
                    45:a7:43:1d:9b:88:c4:8f:d2:16:03:63:25:8e:ed:
                    29:9f:fc:fc:9d:8a:4c:c9:27:76:3d:bb:9b:0c:45:
                    3a:16:bf:e9:d5:3d:f6:65:2b:76:68:d2:b2:77:4e:
                    0f:1b:e5:e3:7f:fa:70:47:af:28:d7:5b:68:15:af:
                    be:b9:e4:78:db:0b:9a:9c:cf:ae:2f:f6:61:08:b7:
                    a4:30:b0:52:db:aa:5f:ed:34:f9:af:c0:52:e9:5a:
                    50:9a:26:aa:1c:50:fb:83:75:2e:4f:10:7f:a9:83:
                    f7:97:a1:88:49:58:57:8f:4b:b9:f9:ba:5f:cb:72:
                    8a:50:7d:0d:c5:d7:65:49:91:91:12:e9:2a:dd:e4:
                    32:90:b4:4c:74:1c:d3:f0:78:a1:ea:f4:d7:25:6d:
                    fc:06:12:6b:ee:fe:e1:ab:49:64:e7:bb:ff:40:f6:
                    fe:1e:63:8e:2b:07:64:6d:4d:6d:36:b0:f8:92:77:
                    1f:2d:35:ee:df:3f:56:6a:9d:fe:1a:38:76:11:42:
                    dc:73:c5:9e:ad:76:1b:c7:fa:c4:4d:54:97:f2:b0:
                    66:d0:0b:93:c8:58:8c:a8:10:a5:f6:55:9e:c3:44:
                    ae:2a:bf:06:03:79:c7:c5:fd:2c:c2:43:cf:e3:4e:
                    57:87:8f:e6:17:b2:ba:15:55:05:bd:1c:ea:22:90:
                    65:96:88:9d:2e:af:bb:2c:d0:19:b9:62:7d:42:80:
                    77:4c:52:4e:a4:a0:7c:94:b5:6c:3f:e0:48:d0:06:
                    03:b2:6b:d1:89:b5:90:38:b0:1f:62:59:4a:af:e2:
                    b6:c4:19:7b:71:a3:6c:58:e9:39:5a:b7:1f:fe:a6:
                    1b:20:6e:95:94:23:08:54:e8:0d:0e:68:1a:9b:5c:
                    90:96:67:2b:3a:9f:aa:f2:5c:b7:cd:11:9d:56:d0:
                    38:06:fe:16:25:7f:ec:54:9c:7f:01:96:9a:e0:1b:
                    c6:d2:96:33:88:92:a3:2c:cd:4a:9c:b7:e0:b7:e5:
                    43:05:0f:5a:aa:4f:c2:79:4d:ec:10:bd:d1:b1:7c:
                    c7:d7:51:7a:58:b3:38:38:57:a3:2d:1d:a4:6c:b3:
                    ea:3d:74:1e:f7:9a:d3:69:98:45:c1:65:c1:9c:53:
                    de:04:15:ff:40:c3:77:30:15:b6:18:b6:f0:53:05:
                    e9:9f:97:97:8d:c0:81:98:2a:da:b8:cb:82:75:a1:
                    96:ee:93
                Exponent: 65537 (0x10001)
        X509v3 extensions:
            X509v3 Key Usage: critical
                Digital Signature, Key Encipherment
            X509v3 Basic Constraints: 
                CA:FALSE
            X509v3 Extended Key Usage: 
                TLS Web Server Authentication, TLS Web Client Authentication
            X509v3 Subject Key Identifier: 
                1E:41:31:3B:9D:B3:12:51:6B:03:16:56:6D:61:66:06:FB:5E:EF:DD
            X509v3 Authority Key Identifier: 
                keyid:52:53:5F:DA:76:E1:0A:7D:73:AE:D0:12:45:72:13:C1:30:4F:4E:39

            Authority Information Access: 
                CA Issuers - URI:http://nitpicksy.no/ca/tls-ca.cer

            X509v3 CRL Distribution Points: 

                Full Name:
                  URI:http://nitpicksy.no/ca/tls-ca.crl

            X509v3 Subject Alternative Name: 
                DNS:nitpicksy.no, DNS:www.nitpicksy.no, DNS:localhost
    Signature Algorithm: sha256WithRSAEncryption
         17:88:68:f8:05:fe:30:1d:3f:bc:ef:3e:ef:3c:14:62:e6:35:
         fb:7c:56:a4:79:1c:a9:27:11:0b:7f:a8:75:3b:c6:2c:ca:b1:
         34:57:d9:da:a3:60:9d:0d:83:9a:c1:cd:97:6f:af:ba:70:40:
         ca:d3:3b:fb:10:e0:58:eb:14:9d:ac:1d:7f:cd:f6:f8:9e:7c:
         3e:28:92:dc:79:14:83:a4:27:5c:5a:f6:59:e0:9b:06:a9:c5:
         d7:6d:f5:3d:5c:e0:80:22:be:de:e0:aa:ab:19:26:92:a2:ee:
         54:43:1e:62:cf:5f:78:7b:5d:f1:87:20:32:93:36:df:b3:00:
         15:90:7a:28:d5:48:42:d9:64:15:15:39:9f:0a:24:5e:f5:88:
         2a:d9:99:34:1f:d9:21:a9:e9:4a:0b:78:86:a4:77:17:e5:41:
         f3:aa:49:f6:30:32:24:67:f0:20:c7:09:ec:c2:32:79:10:d8:
         29:ed:67:99:47:fd:1f:19:45:63:db:4a:81:ba:34:92:eb:8f:
         97:33:b7:67:21:f4:7f:f5:96:28:e4:d9:b3:cf:e4:64:64:56:
         f7:79:d8:1a:dd:86:2c:17:03:90:9c:3e:84:7b:80:2b:f7:31:
         b7:fe:11:f8:0b:d2:9c:76:be:64:06:ad:7b:72:46:62:5f:11:
         02:05:e3:2b:46:06:de:fb:5f:d8:f5:86:e6:77:e4:91:6f:c1:
         3c:c1:dc:17:5c:b7:e8:f5:b8:ec:01:b8:0c:26:84:39:08:26:
         e7:9d:aa:0a:63:11:7b:06:8d:cc:9d:90:bc:3d:03:95:9e:a5:
         dd:c5:f1:65:ab:b3:15:36:3a:50:2f:9e:55:ef:31:41:50:8e:
         cc:2f:73:87:57:ad:42:78:7e:17:51:06:ad:af:cd:4d:69:88:
         ff:b6:83:14:4c:6e:2e:5e:11:2c:75:cc:3a:64:ea:14:c7:97:
         5c:1a:96:c9:6b:c8:ad:a1:5b:41:14:bd:00:bc:f5:b2:08:0f:
         6a:c9:b1:54:b7:40:ab:c8:35:8a:5b:70:fe:6a:b3:96:e6:8a:
         0c:a1:24:91:e4:a5:1b:d2:1f:e2:c9:8c:23:72:21:09:65:50:
         fd:3b:82:4b:07:b9:81:c3:6d:6a:9c:d7:01:7a:7a:34:81:10:
         2f:84:b1:4f:32:8c:e1:52:8c:4c:1f:fe:bf:10:37:46:0b:80:
         c2:cf:a6:90:14:74:9e:ba:b4:6c:99:4e:8d:94:74:b3:2a:be:
         39:df:b7:32:96:7e:3d:99:ae:fb:6c:32:7c:0a:53:32:36:43:
         bc:a4:2b:17:c9:ef:66:b8:98:9f:e3:d8:8a:8d:97:d9:69:aa:
         61:f9:a7:25:d3:5b:d0:ba
-----BEGIN CERTIFICATE-----
MIIGdzCCBF+gAwIBAgIULbhSxmUasr9rt/65FRTr/OGef70wDQYJKoZIhvcNAQEL
BQAwZjELMAkGA1UEBhMCTk8xEjAQBgNVBAoMCU5pdHBpY2tzeTEoMCYGA1UECwwf
Tml0cGlja3N5IENlcnRpZmljYXRlIEF1dGhvcml0eTEZMBcGA1UEAwwQTml0cGlj
a3N5IFRMUyBDQTAeFw0yMDEyMDYyMjE5NTlaFw0yMjEyMDYyMjE5NTlaMFoxCzAJ
BgNVBAYTAk5PMRIwEAYDVQQKDAlOaXRwaWNrc3kxKDAmBgNVBAsMH05pdHBpY2tz
eSBDZXJ0aWZpY2F0ZSBBdXRob3JpdHkxDTALBgNVBAMMBHp1dWwwggIiMA0GCSqG
SIb3DQEBAQUAA4ICDwAwggIKAoICAQDVHC+N8Udn7DRna6476PSpfqAsLkilk3Gm
orIzNYkDj8ShLntv+FP4SwMj0zVohgn9wUHae8ku1OIZq0WnQx2biMSP0hYDYyWO
7Smf/PydikzJJ3Y9u5sMRToWv+nVPfZlK3Zo0rJ3Tg8b5eN/+nBHryjXW2gVr765
5HjbC5qcz64v9mEIt6QwsFLbql/tNPmvwFLpWlCaJqocUPuDdS5PEH+pg/eXoYhJ
WFePS7n5ul/LcopQfQ3F12VJkZES6Srd5DKQtEx0HNPweKHq9NclbfwGEmvu/uGr
SWTnu/9A9v4eY44rB2RtTW02sPiSdx8tNe7fP1Zqnf4aOHYRQtxzxZ6tdhvH+sRN
VJfysGbQC5PIWIyoEKX2VZ7DRK4qvwYDecfF/SzCQ8/jTleHj+YXsroVVQW9HOoi
kGWWiJ0ur7ss0Bm5Yn1CgHdMUk6koHyUtWw/4EjQBgOya9GJtZA4sB9iWUqv4rbE
GXtxo2xY6Tlatx/+phsgbpWUIwhU6A0OaBqbXJCWZys6n6ryXLfNEZ1W0DgG/hYl
f+xUnH8BlprgG8bSljOIkqMszUqct+C35UMFD1qqT8J5TewQvdGxfMfXUXpYszg4
V6MtHaRss+o9dB73mtNpmEXBZcGcU94EFf9Aw3cwFbYYtvBTBemfl5eNwIGYKtq4
y4J1oZbukwIDAQABo4IBJzCCASMwDgYDVR0PAQH/BAQDAgWgMAkGA1UdEwQCMAAw
HQYDVR0lBBYwFAYIKwYBBQUHAwEGCCsGAQUFBwMCMB0GA1UdDgQWBBQeQTE7nbMS
UWsDFlZtYWYG+17v3TAfBgNVHSMEGDAWgBRSU1/aduEKfXOu0BJFchPBME9OOTA9
BggrBgEFBQcBAQQxMC8wLQYIKwYBBQUHMAKGIWh0dHA6Ly9uaXRwaWNrc3kubm8v
Y2EvdGxzLWNhLmNlcjAyBgNVHR8EKzApMCegJaAjhiFodHRwOi8vbml0cGlja3N5
Lm5vL2NhL3Rscy1jYS5jcmwwNAYDVR0RBC0wK4IMbml0cGlja3N5Lm5vghB3d3cu
bml0cGlja3N5Lm5vgglsb2NhbGhvc3QwDQYJKoZIhvcNAQELBQADggIBABeIaPgF
/jAdP7zvPu88FGLmNft8VqR5HKknEQt/qHU7xizKsTRX2dqjYJ0Ng5rBzZdvr7pw
QMrTO/sQ4FjrFJ2sHX/N9viefD4oktx5FIOkJ1xa9lngmwapxddt9T1c4IAivt7g
qqsZJpKi7lRDHmLPX3h7XfGHIDKTNt+zABWQeijVSELZZBUVOZ8KJF71iCrZmTQf
2SGp6UoLeIakdxflQfOqSfYwMiRn8CDHCezCMnkQ2CntZ5lH/R8ZRWPbSoG6NJLr
j5czt2ch9H/1lijk2bPP5GRkVvd52BrdhiwXA5CcPoR7gCv3Mbf+EfgL0px2vmQG
rXtyRmJfEQIF4ytGBt77X9j1huZ35JFvwTzB3Bdct+j1uOwBuAwmhDkIJuedqgpj
EXsGjcydkLw9A5Wepd3F8WWrsxU2OlAvnlXvMUFQjswvc4dXrUJ4fhdRBq2vzU1p
iP+2gxRMbi5eESx1zDpk6hTHl1walslryK2hW0EUvQC89bIID2rJsVS3QKvINYpb
cP5qs5bmigyhJJHkpRvSH+LJjCNyIQllUP07gksHuYHDbWqc1wF6ejSBEC+EsU8y
jOFSjEwf/r8QN0YLgMLPppAUdJ66tGyZTo2UdLMqvjnftzKWfj2ZrvtsMnwKUzI2
Q7ykKxfJ72a4mJ/j2IqNl9lpqmH5pyXTW9C6
-----END CERTIFICATE-----
