Certificate:
    Data:
        Version: 3 (0x2)
        Serial Number:
            2e:3a:6b:3a:e0:a4:5a:39:41:5e:b9:d2:8d:39:21:f7:39:29:21:73
        Signature Algorithm: sha256WithRSAEncryption
        Issuer: C=NO, O=Nitpicksy, OU=Nitpicksy Certificate Authority, CN=Nitpicksy TLS CA
        Validity
            Not Before: Dec  6 22:39:35 2020 GMT
            Not After : Dec  6 22:39:35 2022 GMT
        Subject: C=NO, O=Nitpicksy Client AS, OU=Nitpicksy Certificate Authority, CN=Nitpicksy Client
        Subject Public Key Info:
            Public Key Algorithm: rsaEncryption
                RSA Public-Key: (4096 bit)
                Modulus:
                    00:b0:82:31:1a:79:f0:9c:fc:40:c1:83:51:5c:14:
                    db:14:db:dd:bf:7f:b1:db:6e:41:f3:72:32:0b:7c:
                    f4:dc:a6:18:c2:39:3c:88:59:11:07:4b:4b:db:38:
                    cf:5f:8f:cf:8d:06:d4:a8:4f:f9:e5:49:bb:73:90:
                    4d:1e:6c:55:8c:85:03:30:8c:84:04:f0:24:dd:65:
                    56:b8:9d:7e:d0:b1:72:7e:7e:47:77:25:02:b3:42:
                    a3:c4:01:9c:1c:a6:de:6b:0a:9d:70:63:8b:fb:7c:
                    3c:26:38:c9:87:6e:9e:ef:74:9f:08:a3:c0:30:db:
                    0a:22:b2:97:e4:6a:fb:07:b5:85:46:c5:b0:ee:51:
                    1f:b7:d3:32:72:c8:be:29:6c:66:da:3c:a3:20:3b:
                    72:e4:35:0a:1c:41:e2:0f:bb:94:ab:4b:da:49:92:
                    a5:7d:80:6d:ee:14:cb:71:8c:0b:b2:22:a6:c9:80:
                    a8:df:fa:5b:52:c8:f9:f2:46:7d:8d:ab:f0:16:20:
                    ca:42:37:d6:77:1a:45:fe:f7:5b:58:5e:d9:d3:0c:
                    e5:ea:70:25:c2:0c:65:80:30:4e:f2:79:a1:de:f7:
                    16:bb:ec:6b:66:d1:51:5f:75:1f:f3:ed:18:84:9c:
                    99:ff:ce:4a:54:a6:e1:1f:99:69:0c:9f:89:d4:ec:
                    3d:47:3b:24:c7:f1:92:15:eb:1f:4f:57:68:21:6b:
                    f0:7f:cd:b1:13:02:46:12:29:28:0f:62:bf:a6:cb:
                    ec:08:bd:4d:b7:1c:e3:94:6c:bd:6f:43:c8:30:fd:
                    4c:f4:92:4d:cd:78:b6:eb:75:a1:aa:ea:74:83:2b:
                    f2:ce:61:98:f0:48:7a:d6:70:d1:00:38:bc:25:4b:
                    4f:00:15:2c:71:e6:31:69:e0:4f:36:29:84:e3:55:
                    91:1d:76:e0:2d:36:53:f6:8f:63:ef:b1:e3:ed:19:
                    47:11:9f:7c:18:b0:1d:a9:a1:87:a6:93:d3:7e:3e:
                    b3:6d:55:29:b9:c7:d8:0a:2b:cb:00:5e:3c:86:85:
                    63:00:ea:01:04:b4:ac:1d:d0:6d:eb:e9:15:4b:05:
                    95:1b:13:2a:e5:7e:24:c9:33:86:13:83:4d:e6:bd:
                    aa:4d:78:50:2f:42:26:12:8a:ef:1e:ff:68:9e:bc:
                    03:93:3a:9b:47:c3:56:41:3a:61:4b:bb:94:96:fd:
                    e0:bb:e9:5d:75:5b:ed:92:0c:6a:91:f3:4d:ea:6d:
                    50:c9:f9:8a:52:aa:9c:e7:33:56:33:36:90:c3:9c:
                    0d:fb:10:65:47:71:a1:ae:8e:5f:38:ac:cc:56:f7:
                    4b:23:d8:b4:6a:67:03:83:84:39:41:43:aa:5d:28:
                    5b:ad:99
                Exponent: 65537 (0x10001)
        X509v3 extensions:
            X509v3 Key Usage: critical
                Digital Signature
            X509v3 Basic Constraints: 
                CA:FALSE
            X509v3 Extended Key Usage: 
                TLS Web Client Authentication
            X509v3 Subject Key Identifier: 
                F7:91:61:49:57:56:A0:3F:6D:B9:55:51:72:F1:6E:A8:96:E4:61:66
            X509v3 Authority Key Identifier: 
                keyid:83:CC:02:D6:E0:31:A6:2D:8E:F8:85:43:99:55:48:F6:21:22:90:49

            Authority Information Access: 
                CA Issuers - URI:http://nitpicksy.no/ca/tls-ca.cer

            X509v3 CRL Distribution Points: 

                Full Name:
                  URI:http://nitpicksy.no/ca/tls-ca.crl

    Signature Algorithm: sha256WithRSAEncryption
         8b:41:36:87:7b:6c:84:d0:b4:12:d9:c4:25:46:4e:7a:3f:18:
         dc:62:a6:59:ed:72:36:82:d4:3a:6c:41:25:bb:c2:cf:f8:32:
         cd:88:73:ea:4c:29:57:d5:9e:f0:12:ac:4f:78:60:9f:14:91:
         c9:0d:03:07:11:18:42:cf:db:83:f9:bd:3e:89:47:02:37:d1:
         22:ac:03:bf:bb:c5:13:b6:b3:bb:2f:65:ef:15:a2:56:43:12:
         7b:9b:71:cc:59:ee:25:07:38:77:14:6a:fb:ed:06:4b:f6:51:
         50:34:f7:4d:94:14:55:da:40:2d:6d:76:15:2f:28:c5:b4:97:
         cb:8f:99:fb:d3:e0:5e:ff:1b:0d:eb:66:9d:97:fa:3d:5f:0a:
         3b:01:88:25:a8:73:12:b5:2d:e4:15:a0:3e:57:53:5b:5b:89:
         51:19:39:c1:8e:c6:34:46:81:2f:0b:df:34:41:cb:64:f6:f3:
         cf:b0:2e:d1:f3:36:c9:2a:d3:a3:37:d1:5a:e5:98:b4:7c:6c:
         fe:04:16:8e:3e:99:cd:a9:dc:2f:d2:15:0e:89:a6:26:75:18:
         8e:cc:8b:e8:60:b7:3d:03:db:9c:93:86:cb:cb:41:12:54:a5:
         7d:4d:a8:67:cd:90:f0:32:8b:eb:02:5f:40:72:5e:6b:57:ff:
         ca:d9:8b:cc:29:17:1b:ca:37:18:ee:00:1c:00:dc:05:91:25:
         55:d4:18:db:d0:a8:af:c1:20:1e:c5:29:35:da:1a:fd:62:96:
         8e:19:75:1d:4b:5a:2d:9b:bf:8f:51:7f:bf:74:e6:6a:56:88:
         6b:ba:48:ce:07:91:ad:38:d1:69:ae:a6:99:e5:70:24:f1:14:
         6c:f7:9d:0a:6a:52:14:6d:f4:8a:15:9c:5b:37:2f:17:53:b7:
         36:7b:c5:e6:4a:ac:a9:54:80:b4:c1:6a:1e:e9:18:5b:f8:58:
         24:d1:22:04:06:86:88:64:38:37:9d:d0:04:29:bb:ae:3f:0c:
         b6:9e:1a:78:5b:ef:b8:f6:f3:37:5a:c3:e1:66:c5:4f:12:a1:
         d0:4d:84:d9:01:cb:48:a7:5a:e0:40:52:d6:29:a3:3c:32:62:
         ee:50:5f:5d:02:c2:e9:62:c0:c0:48:00:f2:f0:4f:2b:50:33:
         ee:79:62:2e:24:5b:c4:e5:5d:24:30:c4:34:5c:61:2e:8e:4d:
         d8:a1:fd:86:df:80:bd:af:cc:28:01:89:6d:c6:89:55:ed:5e:
         e2:5c:fb:1c:a4:12:b1:02:fa:ec:ed:40:a7:c4:56:6a:dd:e1:
         8b:fa:1c:12:ed:01:ea:fd:69:fd:a5:63:80:42:35:30:0f:57:
         d8:23:ff:df:4f:02:46:db
-----BEGIN CERTIFICATE-----
MIIGSzCCBDOgAwIBAgIULjprOuCkWjlBXrnSjTkh9zkpIXMwDQYJKoZIhvcNAQEL
BQAwZjELMAkGA1UEBhMCTk8xEjAQBgNVBAoMCU5pdHBpY2tzeTEoMCYGA1UECwwf
Tml0cGlja3N5IENlcnRpZmljYXRlIEF1dGhvcml0eTEZMBcGA1UEAwwQTml0cGlj
a3N5IFRMUyBDQTAeFw0yMDEyMDYyMjM5MzVaFw0yMjEyMDYyMjM5MzVaMHAxCzAJ
BgNVBAYTAk5PMRwwGgYDVQQKDBNOaXRwaWNrc3kgQ2xpZW50IEFTMSgwJgYDVQQL
DB9OaXRwaWNrc3kgQ2VydGlmaWNhdGUgQXV0aG9yaXR5MRkwFwYDVQQDDBBOaXRw
aWNrc3kgQ2xpZW50MIICIjANBgkqhkiG9w0BAQEFAAOCAg8AMIICCgKCAgEAsIIx
GnnwnPxAwYNRXBTbFNvdv3+x225B83IyC3z03KYYwjk8iFkRB0tL2zjPX4/PjQbU
qE/55Um7c5BNHmxVjIUDMIyEBPAk3WVWuJ1+0LFyfn5HdyUCs0KjxAGcHKbeawqd
cGOL+3w8JjjJh26e73SfCKPAMNsKIrKX5Gr7B7WFRsWw7lEft9Mycsi+KWxm2jyj
IDty5DUKHEHiD7uUq0vaSZKlfYBt7hTLcYwLsiKmyYCo3/pbUsj58kZ9javwFiDK
QjfWdxpF/vdbWF7Z0wzl6nAlwgxlgDBO8nmh3vcWu+xrZtFRX3Uf8+0YhJyZ/85K
VKbhH5lpDJ+J1Ow9Rzskx/GSFesfT1doIWvwf82xEwJGEikoD2K/psvsCL1Ntxzj
lGy9b0PIMP1M9JJNzXi263Whqup0gyvyzmGY8Eh61nDRADi8JUtPABUsceYxaeBP
NimE41WRHXbgLTZT9o9j77Hj7RlHEZ98GLAdqaGHppPTfj6zbVUpucfYCivLAF48
hoVjAOoBBLSsHdBt6+kVSwWVGxMq5X4kyTOGE4NN5r2qTXhQL0ImEorvHv9onrwD
kzqbR8NWQTphS7uUlv3gu+lddVvtkgxqkfNN6m1QyfmKUqqc5zNWMzaQw5wN+xBl
R3Ghro5fOKzMVvdLI9i0amcDg4Q5QUOqXShbrZkCAwEAAaOB5jCB4zAOBgNVHQ8B
Af8EBAMCB4AwCQYDVR0TBAIwADATBgNVHSUEDDAKBggrBgEFBQcDAjAdBgNVHQ4E
FgQU95FhSVdWoD9tuVVRcvFuqJbkYWYwHwYDVR0jBBgwFoAUg8wC1uAxpi2O+IVD
mVVI9iEikEkwPQYIKwYBBQUHAQEEMTAvMC0GCCsGAQUFBzAChiFodHRwOi8vbml0
cGlja3N5Lm5vL2NhL3Rscy1jYS5jZXIwMgYDVR0fBCswKTAnoCWgI4YhaHR0cDov
L25pdHBpY2tzeS5uby9jYS90bHMtY2EuY3JsMA0GCSqGSIb3DQEBCwUAA4ICAQCL
QTaHe2yE0LQS2cQlRk56PxjcYqZZ7XI2gtQ6bEElu8LP+DLNiHPqTClX1Z7wEqxP
eGCfFJHJDQMHERhCz9uD+b0+iUcCN9EirAO/u8UTtrO7L2XvFaJWQxJ7m3HMWe4l
Bzh3FGr77QZL9lFQNPdNlBRV2kAtbXYVLyjFtJfLj5n70+Be/xsN62adl/o9Xwo7
AYglqHMStS3kFaA+V1NbW4lRGTnBjsY0RoEvC980Qctk9vPPsC7R8zbJKtOjN9Fa
5Zi0fGz+BBaOPpnNqdwv0hUOiaYmdRiOzIvoYLc9A9uck4bLy0ESVKV9TahnzZDw
MovrAl9Acl5rV//K2YvMKRcbyjcY7gAcANwFkSVV1Bjb0KivwSAexSk12hr9YpaO
GXUdS1otm7+PUX+/dOZqVohrukjOB5GtONFprqaZ5XAk8RRs950KalIUbfSKFZxb
Ny8XU7c2e8XmSqypVIC0wWoe6Rhb+Fgk0SIEBoaIZDg3ndAEKbuuPwy2nhp4W++4
9vM3WsPhZsVPEqHQTYTZActIp1rgQFLWKaM8MmLuUF9dAsLpYsDASADy8E8rUDPu
eWIuJFvE5V0kMMQ0XGEujk3Yof2G34C9r8woAYltxolV7V7iXPscpBKxAvrs7UCn
xFZq3eGL+hwS7QHq/Wn9pWOAQjUwD1fYI//fTwJG2w==
-----END CERTIFICATE-----
