Certificate:
    Data:
        Version: 3 (0x2)
        Serial Number:
            30:07:59:9f:11:82:da:45:3a:7b:cb:1f:69:3f:88:2c:43:05:38:04
        Signature Algorithm: sha256WithRSAEncryption
        Issuer: C=NO, O=Nitpicksy, OU=Nitpicksy Certificate Authority, CN=Nitpicksy TLS CA
        Validity
            Not Before: Dec  6 22:08:24 2020 GMT
            Not After : Dec  6 22:08:24 2022 GMT
        Subject: C=NO, O=Nitpicksy, OU=Nitpicksy Certificate Authority, CN=Bank
        Subject Public Key Info:
            Public Key Algorithm: rsaEncryption
                RSA Public-Key: (4096 bit)
                Modulus:
                    00:a7:50:52:3b:76:31:5e:10:d8:14:03:ef:25:29:
                    fe:44:d8:e3:51:95:f1:7c:cf:1d:29:6c:09:b1:d7:
                    05:bd:5b:f3:de:d5:2c:95:8a:3e:92:37:b8:bb:92:
                    1f:c0:d5:b0:c0:6b:62:35:0a:7b:d9:47:64:7c:c3:
                    93:4c:f7:f6:f4:88:2f:ec:52:e4:e7:7d:81:e8:9b:
                    35:a0:0c:88:8b:f0:3f:e1:f8:a3:3e:ee:c2:14:a9:
                    14:de:5b:59:00:cf:0a:50:de:4c:de:2c:26:e5:ea:
                    fe:a2:18:9b:70:56:01:bb:e6:8d:35:fa:bc:67:ab:
                    2e:b1:96:03:5c:e6:50:84:71:6d:86:ed:9e:cf:4a:
                    f3:34:da:11:73:bc:1b:a8:cf:50:01:10:2c:b5:5f:
                    05:fb:69:0b:62:4e:b9:4f:f7:5b:2a:1c:d7:9b:82:
                    5a:3e:93:e4:41:db:34:f3:0c:9e:8c:f6:5d:9d:4d:
                    3a:8c:84:29:cb:4e:62:00:65:fc:d1:7a:66:d8:c4:
                    37:70:77:20:b2:4f:c8:ed:e3:7c:88:96:27:12:e1:
                    69:03:aa:21:78:4e:7c:cf:e9:84:ef:a7:b9:23:b1:
                    78:29:dc:54:61:01:c2:48:69:29:10:86:c6:af:29:
                    1d:93:05:e4:75:93:59:86:fd:b8:b2:67:c0:b6:f1:
                    8c:96:5f:80:42:cb:fa:41:44:45:93:6c:a0:1a:b8:
                    4d:eb:c4:62:6d:f0:68:65:4b:a5:0d:3b:60:5d:2f:
                    d4:c5:c0:2c:ed:d6:23:e5:96:c8:ed:39:c5:40:9b:
                    3e:d3:df:13:27:8c:ec:fb:f5:d4:df:88:c3:f0:8e:
                    9c:15:55:6e:b2:54:9d:59:9b:95:c3:d2:c9:a2:9c:
                    b3:a0:80:9b:36:1c:9b:5b:81:24:6d:92:39:ea:1b:
                    70:b8:87:08:e0:07:71:5e:7f:d1:a6:61:1e:c8:19:
                    c9:af:f9:6f:34:b1:99:77:8d:b1:2d:a2:12:7f:50:
                    53:e3:fc:81:fa:16:c8:0d:52:ab:0a:4e:65:b8:47:
                    f4:2d:c1:7e:e6:b0:01:93:99:8b:ce:dc:42:af:7c:
                    e3:3d:4f:a9:7b:58:d2:5b:6b:c0:0d:ce:4a:ab:63:
                    af:90:94:b3:ad:7e:fa:7c:e3:c1:b6:ad:22:a5:a6:
                    12:0f:97:49:92:47:74:8b:de:ae:6e:22:ed:7d:30:
                    b2:38:78:69:06:a8:f7:f0:26:fa:29:cb:ee:49:27:
                    b7:d6:39:0b:23:33:e7:c5:20:bd:16:0d:8c:af:68:
                    5f:c9:30:b8:39:84:9d:1c:f1:e8:ef:67:b1:97:d5:
                    e8:ac:56:db:db:ad:77:b9:9e:da:0e:50:a8:39:51:
                    97:c6:0d
                Exponent: 65537 (0x10001)
        X509v3 extensions:
            X509v3 Key Usage: critical
                Digital Signature, Key Encipherment
            X509v3 Basic Constraints: 
                CA:FALSE
            X509v3 Extended Key Usage: 
                TLS Web Server Authentication, TLS Web Client Authentication
            X509v3 Subject Key Identifier: 
                52:7C:51:DD:FF:3C:E6:6E:4B:0F:F0:3D:69:C7:EE:1A:6C:1D:3B:5A
            X509v3 Authority Key Identifier: 
                keyid:46:AE:F3:C6:AD:8C:3E:45:58:86:70:79:96:25:17:E1:6C:F7:16:A8

            Authority Information Access: 
                CA Issuers - URI:http://nitpicksy.no/ca/tls-ca.cer

            X509v3 CRL Distribution Points: 

                Full Name:
                  URI:http://nitpicksy.no/ca/tls-ca.crl

            X509v3 Subject Alternative Name: 
                DNS:nitpicksy.no, DNS:www.nitpicksy.no, DNS:localhost
    Signature Algorithm: sha256WithRSAEncryption
         2c:d8:33:94:bf:7f:f2:61:b3:5a:a7:1a:48:a1:72:77:28:4d:
         b4:db:3f:84:47:a2:37:d9:9e:62:b2:70:aa:7d:0f:43:a9:9f:
         e2:fa:f9:db:bb:c7:4d:af:d4:42:58:60:8f:51:00:7b:80:69:
         6f:a9:a6:66:21:43:f0:d4:bb:75:30:38:ce:25:79:b1:c3:dd:
         dc:35:da:58:50:c3:5d:9e:54:89:02:4d:34:81:19:cc:e0:9e:
         88:53:3b:e8:20:ba:70:fd:d8:fd:35:af:03:41:4a:49:2c:9a:
         6c:fb:80:e5:48:2c:00:39:5b:39:3a:0b:bf:61:c9:d2:7d:de:
         cf:14:79:97:45:ba:63:fd:d9:5e:c9:d6:8d:2b:0b:b6:9c:b2:
         b4:c3:9f:f3:5a:19:48:a5:94:08:31:9b:4e:a5:2e:84:2d:5b:
         28:bf:39:15:a2:93:52:ca:19:7e:0e:7a:49:64:a4:75:ac:2b:
         4e:8c:1b:63:38:74:b8:17:89:14:56:5a:7d:01:4a:64:88:09:
         6c:a3:68:36:b1:6e:4f:28:83:7b:23:c5:b3:60:0c:d1:83:33:
         aa:00:c7:6d:96:20:4f:8d:59:d4:bf:45:0c:10:6f:60:b3:b2:
         03:13:5e:49:b0:11:66:9e:a6:1c:29:9c:bc:b6:1b:9e:94:86:
         08:5f:17:5e:86:97:b5:ce:f3:ff:03:94:bf:d1:00:38:86:88:
         fd:23:78:0c:f3:d7:17:7a:1d:7c:57:40:29:47:4e:54:df:08:
         b1:9f:c9:7a:cc:82:ae:7d:32:a2:57:e8:09:a9:0d:63:e9:58:
         9a:1c:e0:2b:06:43:53:2c:59:70:f4:27:eb:d8:ee:91:3a:93:
         d1:bf:ca:c5:d9:2a:1d:4e:0c:25:50:8b:03:23:58:d5:3d:8b:
         2b:9a:8c:4b:19:17:eb:c6:00:d0:9b:05:00:7f:ba:c4:bf:7d:
         14:db:07:25:ea:74:49:d0:15:c9:18:9e:d8:89:7c:69:c2:d4:
         e0:5a:4b:59:b1:a1:76:a8:6c:04:c9:c8:76:93:89:c5:6b:29:
         ad:0a:5e:98:12:8d:05:72:92:5e:af:e8:88:40:1d:cb:20:3a:
         99:75:6f:c9:3a:2f:4c:9b:e0:ae:b4:bc:92:2b:6a:88:a5:89:
         88:c5:a7:4c:29:f1:14:b0:65:f1:e1:2f:14:07:c2:59:49:56:
         87:6e:a3:2e:d6:11:ff:f0:a0:cb:5d:39:e7:e1:ef:bc:2b:33:
         a0:c1:19:7a:53:90:f4:25:b8:fb:2e:7b:93:bd:e4:a9:ac:28:
         91:31:5e:d9:9c:95:a7:ae:36:53:0e:fc:de:95:81:ed:aa:81:
         74:16:2c:ba:37:de:a9:45
-----BEGIN CERTIFICATE-----
MIIGdzCCBF+gAwIBAgIUMAdZnxGC2kU6e8sfaT+ILEMFOAQwDQYJKoZIhvcNAQEL
BQAwZjELMAkGA1UEBhMCTk8xEjAQBgNVBAoMCU5pdHBpY2tzeTEoMCYGA1UECwwf
Tml0cGlja3N5IENlcnRpZmljYXRlIEF1dGhvcml0eTEZMBcGA1UEAwwQTml0cGlj
a3N5IFRMUyBDQTAeFw0yMDEyMDYyMjA4MjRaFw0yMjEyMDYyMjA4MjRaMFoxCzAJ
BgNVBAYTAk5PMRIwEAYDVQQKDAlOaXRwaWNrc3kxKDAmBgNVBAsMH05pdHBpY2tz
eSBDZXJ0aWZpY2F0ZSBBdXRob3JpdHkxDTALBgNVBAMMBEJhbmswggIiMA0GCSqG
SIb3DQEBAQUAA4ICDwAwggIKAoICAQCnUFI7djFeENgUA+8lKf5E2ONRlfF8zx0p
bAmx1wW9W/Pe1SyVij6SN7i7kh/A1bDAa2I1CnvZR2R8w5NM9/b0iC/sUuTnfYHo
mzWgDIiL8D/h+KM+7sIUqRTeW1kAzwpQ3kzeLCbl6v6iGJtwVgG75o01+rxnqy6x
lgNc5lCEcW2G7Z7PSvM02hFzvBuoz1ABECy1XwX7aQtiTrlP91sqHNebglo+k+RB
2zTzDJ6M9l2dTTqMhCnLTmIAZfzRembYxDdwdyCyT8jt43yIlicS4WkDqiF4TnzP
6YTvp7kjsXgp3FRhAcJIaSkQhsavKR2TBeR1k1mG/biyZ8C28YyWX4BCy/pBREWT
bKAauE3rxGJt8GhlS6UNO2BdL9TFwCzt1iPllsjtOcVAmz7T3xMnjOz79dTfiMPw
jpwVVW6yVJ1Zm5XD0sminLOggJs2HJtbgSRtkjnqG3C4hwjgB3Fef9GmYR7IGcmv
+W80sZl3jbEtohJ/UFPj/IH6FsgNUqsKTmW4R/QtwX7msAGTmYvO3EKvfOM9T6l7
WNJba8ANzkqrY6+QlLOtfvp848G2rSKlphIPl0mSR3SL3q5uIu19MLI4eGkGqPfw
Jvopy+5JJ7fWOQsjM+fFIL0WDYyvaF/JMLg5hJ0c8ejvZ7GX1eisVtvbrXe5ntoO
UKg5UZfGDQIDAQABo4IBJzCCASMwDgYDVR0PAQH/BAQDAgWgMAkGA1UdEwQCMAAw
HQYDVR0lBBYwFAYIKwYBBQUHAwEGCCsGAQUFBwMCMB0GA1UdDgQWBBRSfFHd/zzm
bksP8D1px+4abB07WjAfBgNVHSMEGDAWgBRGrvPGrYw+RViGcHmWJRfhbPcWqDA9
BggrBgEFBQcBAQQxMC8wLQYIKwYBBQUHMAKGIWh0dHA6Ly9uaXRwaWNrc3kubm8v
Y2EvdGxzLWNhLmNlcjAyBgNVHR8EKzApMCegJaAjhiFodHRwOi8vbml0cGlja3N5
Lm5vL2NhL3Rscy1jYS5jcmwwNAYDVR0RBC0wK4IMbml0cGlja3N5Lm5vghB3d3cu
bml0cGlja3N5Lm5vgglsb2NhbGhvc3QwDQYJKoZIhvcNAQELBQADggIBACzYM5S/
f/Jhs1qnGkihcncoTbTbP4RHojfZnmKycKp9D0Opn+L6+du7x02v1EJYYI9RAHuA
aW+ppmYhQ/DUu3UwOM4lebHD3dw12lhQw12eVIkCTTSBGczgnohTO+ggunD92P01
rwNBSkksmmz7gOVILAA5Wzk6C79hydJ93s8UeZdFumP92V7J1o0rC7acsrTDn/Na
GUillAgxm06lLoQtWyi/ORWik1LKGX4OeklkpHWsK06MG2M4dLgXiRRWWn0BSmSI
CWyjaDaxbk8og3sjxbNgDNGDM6oAx22WIE+NWdS/RQwQb2CzsgMTXkmwEWaephwp
nLy2G56UhghfF16Gl7XO8/8DlL/RADiGiP0jeAzz1xd6HXxXQClHTlTfCLGfyXrM
gq59MqJX6AmpDWPpWJoc4CsGQ1MsWXD0J+vY7pE6k9G/ysXZKh1ODCVQiwMjWNU9
iyuajEsZF+vGANCbBQB/usS/fRTbByXqdEnQFckYntiJfGnC1OBaS1mxoXaobATJ
yHaTicVrKa0KXpgSjQVykl6v6IhAHcsgOpl1b8k6L0yb4K60vJIraoiliYjFp0wp
8RSwZfHhLxQHwllJVoduoy7WEf/woMtdOefh77wrM6DBGXpTkPQluPsue5O95Kms
KJExXtmclaeuNlMO/N6Vge2qgXQWLLo33qlF
-----END CERTIFICATE-----
