Certificate:
    Data:
        Version: 3 (0x2)
        Serial Number:
            30:2a:9c:22:57:b4:8c:82:10:64:6e:78:63:af:f3:c0:de:1a:a0:94
        Signature Algorithm: sha256WithRSAEncryption
        Issuer: C=NO, O=Nitpicksy, OU=Nitpicksy Certificate Authority, CN=Nitpicksy TLS CA
        Validity
            Not Before: Dec  6 22:39:35 2020 GMT
            Not After : Dec  6 22:39:35 2022 GMT
        Subject: C=NO, O=Nitpicksy, OU=Nitpicksy Certificate Authority, CN=Literary Society
        Subject Public Key Info:
            Public Key Algorithm: rsaEncryption
                RSA Public-Key: (4096 bit)
                Modulus:
                    00:a6:d5:90:a0:45:18:01:67:34:be:7e:c0:72:21:
                    5f:6e:cd:bf:6b:57:00:69:6a:b8:b5:c1:d2:d6:68:
                    e3:dc:3b:22:6d:55:38:97:07:d9:d7:f0:9f:36:b2:
                    61:5d:af:fc:7c:aa:a6:45:07:61:95:ab:52:6c:80:
                    78:75:86:a1:8a:9b:98:35:19:a2:c5:c1:75:d6:72:
                    e3:d7:e2:2c:8e:c9:fa:cf:6e:ed:87:e0:00:a8:28:
                    9f:71:d8:da:cb:ea:16:a5:00:47:a4:ae:3a:0d:75:
                    a5:c2:5d:c1:5b:7a:9a:9c:2f:a6:1d:69:00:7d:25:
                    8a:80:7a:f9:e2:f0:73:fb:e3:bc:07:b2:dd:60:4e:
                    bf:55:31:8c:07:1b:2f:48:41:35:13:d2:3a:fa:4d:
                    ee:11:c7:3a:ec:a8:6b:3d:b8:ee:c5:fa:c4:2a:39:
                    3c:62:9a:0c:3d:3c:67:f5:64:6b:10:ca:b1:fb:4c:
                    9b:d6:44:43:78:a7:b0:b9:fb:50:1c:b5:a0:26:40:
                    d3:d1:3b:08:94:88:ef:fa:55:60:3d:5c:85:72:45:
                    c2:a1:23:2e:37:1a:de:22:ed:88:7f:f4:9a:04:1f:
                    80:12:77:77:33:b6:1c:a9:d9:a3:42:3c:34:96:e2:
                    28:7a:e9:50:a1:58:06:03:88:08:8e:97:cd:e0:46:
                    92:87:d9:c7:eb:f3:e8:d0:59:16:66:a0:42:9f:4d:
                    19:f1:b7:49:ec:eb:ba:7e:70:cd:82:fd:39:02:56:
                    b0:bc:85:43:4d:f9:92:88:1b:58:d0:9f:fa:63:9d:
                    0c:9a:34:cc:f3:27:ee:fa:f4:a2:51:a3:47:79:8f:
                    69:5e:b1:c0:8d:6d:eb:6e:b8:fe:d3:13:64:49:fe:
                    2b:cc:d1:cf:8e:8f:78:6b:0a:fc:28:b5:98:4e:66:
                    71:2c:6a:6f:67:32:c4:e6:21:48:4f:fc:9b:2e:12:
                    ad:7e:1d:85:ce:74:21:03:32:92:30:02:93:24:7f:
                    8e:8b:84:91:b5:71:89:ab:d2:d0:3f:fd:4f:f7:36:
                    8c:ac:13:50:6b:ef:d2:bf:b1:9e:77:0c:98:50:f9:
                    c6:a3:25:4a:7e:e8:28:29:85:00:ab:3c:37:57:70:
                    08:1a:39:31:aa:40:3e:c0:e0:06:ac:df:c5:17:6b:
                    bc:56:2a:57:65:11:4d:ba:dd:bf:12:55:b8:17:07:
                    77:6b:e0:30:a9:1a:21:dd:d3:88:31:4f:e0:8f:4a:
                    2a:ce:e4:8b:49:9d:5e:7e:60:9d:31:ae:d0:30:b0:
                    c0:65:cb:3d:9d:ef:b2:45:a2:aa:d4:d1:66:92:33:
                    af:27:fd:7b:94:69:17:e8:70:fa:e8:32:38:a8:b4:
                    76:78:77
                Exponent: 65537 (0x10001)
        X509v3 extensions:
            X509v3 Key Usage: critical
                Digital Signature, Key Encipherment
            X509v3 Basic Constraints: 
                CA:FALSE
            X509v3 Extended Key Usage: 
                TLS Web Server Authentication, TLS Web Client Authentication
            X509v3 Subject Key Identifier: 
                B3:E3:A2:44:D0:8A:DC:5D:FC:58:B6:6E:E0:82:DA:03:BE:02:77:C7
            X509v3 Authority Key Identifier: 
                keyid:83:CC:02:D6:E0:31:A6:2D:8E:F8:85:43:99:55:48:F6:21:22:90:49

            Authority Information Access: 
                CA Issuers - URI:http://nitpicksy.no/ca/tls-ca.cer

            X509v3 CRL Distribution Points: 

                Full Name:
                  URI:http://nitpicksy.no/ca/tls-ca.crl

            X509v3 Subject Alternative Name: 
                DNS:nitpicksy.no, DNS:www.nitpicksy.no, DNS:localhost
    Signature Algorithm: sha256WithRSAEncryption
         89:6f:b1:6d:c4:95:d1:a9:7d:21:34:10:e8:6f:c9:bc:ef:77:
         f1:4e:03:2b:c0:03:59:da:06:2e:a2:f5:fb:81:f4:4c:9d:59:
         20:a5:0f:48:28:88:6c:d4:1d:e7:18:cd:d4:fa:1e:db:29:08:
         8b:32:29:08:bf:d3:cf:e5:59:51:56:62:4f:9b:c3:ac:4a:74:
         75:c9:b3:d6:51:26:9f:02:b9:ea:64:1d:ff:7c:1b:cd:48:a8:
         92:5d:ea:9f:17:6c:d4:77:42:0b:9a:87:10:34:26:e8:2c:ee:
         d4:73:62:33:40:8f:81:40:97:3b:11:9f:3c:ff:ff:fd:7f:7e:
         f0:87:42:28:6b:41:9a:7c:83:3f:26:b2:ab:c3:e4:f9:56:44:
         f3:59:84:dc:00:53:b9:23:cd:69:f8:f6:a5:3f:05:76:bd:4e:
         74:b7:1f:05:b5:0f:fc:91:25:91:5c:a3:9e:92:38:99:90:4c:
         7b:78:7f:84:c1:5b:09:dc:0c:32:39:38:4c:c8:d4:30:e8:7e:
         08:2b:70:da:6b:cf:3a:10:ce:3d:d1:ae:da:d5:62:4d:2f:93:
         88:d4:54:94:33:9a:e0:e7:d1:61:e3:0f:e9:1e:ca:e2:c6:93:
         61:83:16:91:6c:c4:e8:31:65:41:89:26:5d:ae:ec:20:e7:2d:
         d2:f2:d0:30:a7:db:26:1e:aa:0e:18:e6:6b:b0:69:06:c6:06:
         b4:b8:84:85:71:c5:a1:4c:99:ff:19:c0:da:3d:4f:c3:8d:10:
         64:c1:fa:37:d9:14:24:ea:91:7b:e3:11:d3:7c:fb:a2:71:5c:
         85:8e:c8:93:9d:21:f7:42:98:09:38:c3:98:7b:21:5e:c6:2f:
         52:43:c6:5e:65:74:59:97:72:7f:fa:b8:e5:8c:90:3d:16:60:
         18:44:e9:68:7f:ac:87:7e:33:58:6c:fc:93:b7:5c:f3:e6:f8:
         af:6f:e8:24:48:63:f1:02:cc:51:e9:f5:f0:ae:97:28:de:05:
         ae:e9:00:96:22:b4:b8:0f:f1:6a:21:0c:f3:5f:d8:58:51:76:
         c0:57:cb:1a:1e:e1:5e:fd:e6:ee:0b:92:8a:62:45:ed:80:6f:
         26:db:3d:75:6d:8e:c4:ab:d2:56:e8:2f:dc:2d:34:55:24:2f:
         2b:48:41:29:72:09:33:8c:14:27:9e:0a:4d:55:61:58:52:8d:
         b3:40:df:a1:bc:20:33:84:0e:32:4a:97:7a:21:09:ef:d0:f5:
         86:1e:f8:30:bd:6d:0a:09:d8:d3:21:e6:43:bc:52:f3:98:07:
         ad:fe:47:b0:f9:a4:7d:94:76:e2:3b:21:86:f1:b6:2d:b2:12:
         e0:85:ed:74:70:27:b6:81
-----BEGIN CERTIFICATE-----
MIIGgzCCBGugAwIBAgIUMCqcIle0jIIQZG54Y6/zwN4aoJQwDQYJKoZIhvcNAQEL
BQAwZjELMAkGA1UEBhMCTk8xEjAQBgNVBAoMCU5pdHBpY2tzeTEoMCYGA1UECwwf
Tml0cGlja3N5IENlcnRpZmljYXRlIEF1dGhvcml0eTEZMBcGA1UEAwwQTml0cGlj
a3N5IFRMUyBDQTAeFw0yMDEyMDYyMjM5MzVaFw0yMjEyMDYyMjM5MzVaMGYxCzAJ
BgNVBAYTAk5PMRIwEAYDVQQKDAlOaXRwaWNrc3kxKDAmBgNVBAsMH05pdHBpY2tz
eSBDZXJ0aWZpY2F0ZSBBdXRob3JpdHkxGTAXBgNVBAMMEExpdGVyYXJ5IFNvY2ll
dHkwggIiMA0GCSqGSIb3DQEBAQUAA4ICDwAwggIKAoICAQCm1ZCgRRgBZzS+fsBy
IV9uzb9rVwBpari1wdLWaOPcOyJtVTiXB9nX8J82smFdr/x8qqZFB2GVq1JsgHh1
hqGKm5g1GaLFwXXWcuPX4iyOyfrPbu2H4ACoKJ9x2NrL6halAEekrjoNdaXCXcFb
epqcL6YdaQB9JYqAevni8HP747wHst1gTr9VMYwHGy9IQTUT0jr6Te4RxzrsqGs9
uO7F+sQqOTximgw9PGf1ZGsQyrH7TJvWREN4p7C5+1ActaAmQNPROwiUiO/6VWA9
XIVyRcKhIy43Gt4i7Yh/9JoEH4ASd3czthyp2aNCPDSW4ih66VChWAYDiAiOl83g
RpKH2cfr8+jQWRZmoEKfTRnxt0ns67p+cM2C/TkCVrC8hUNN+ZKIG1jQn/pjnQya
NMzzJ+769KJRo0d5j2lescCNbetuuP7TE2RJ/ivM0c+Oj3hrCvwotZhOZnEsam9n
MsTmIUhP/JsuEq1+HYXOdCEDMpIwApMkf46LhJG1cYmr0tA//U/3NoysE1Br79K/
sZ53DJhQ+cajJUp+6CgphQCrPDdXcAgaOTGqQD7A4Aas38UXa7xWKldlEU263b8S
VbgXB3dr4DCpGiHd04gxT+CPSirO5ItJnV5+YJ0xrtAwsMBlyz2d77JFoqrU0WaS
M68n/XuUaRfocProMjiotHZ4dwIDAQABo4IBJzCCASMwDgYDVR0PAQH/BAQDAgWg
MAkGA1UdEwQCMAAwHQYDVR0lBBYwFAYIKwYBBQUHAwEGCCsGAQUFBwMCMB0GA1Ud
DgQWBBSz46JE0IrcXfxYtm7ggtoDvgJ3xzAfBgNVHSMEGDAWgBSDzALW4DGmLY74
hUOZVUj2ISKQSTA9BggrBgEFBQcBAQQxMC8wLQYIKwYBBQUHMAKGIWh0dHA6Ly9u
aXRwaWNrc3kubm8vY2EvdGxzLWNhLmNlcjAyBgNVHR8EKzApMCegJaAjhiFodHRw
Oi8vbml0cGlja3N5Lm5vL2NhL3Rscy1jYS5jcmwwNAYDVR0RBC0wK4IMbml0cGlj
a3N5Lm5vghB3d3cubml0cGlja3N5Lm5vgglsb2NhbGhvc3QwDQYJKoZIhvcNAQEL
BQADggIBAIlvsW3EldGpfSE0EOhvybzvd/FOAyvAA1naBi6i9fuB9EydWSClD0go
iGzUHecYzdT6HtspCIsyKQi/08/lWVFWYk+bw6xKdHXJs9ZRJp8CuepkHf98G81I
qJJd6p8XbNR3QguahxA0Jugs7tRzYjNAj4FAlzsRnzz///1/fvCHQihrQZp8gz8m
sqvD5PlWRPNZhNwAU7kjzWn49qU/BXa9TnS3HwW1D/yRJZFco56SOJmQTHt4f4TB
WwncDDI5OEzI1DDofggrcNprzzoQzj3RrtrVYk0vk4jUVJQzmuDn0WHjD+keyuLG
k2GDFpFsxOgxZUGJJl2u7CDnLdLy0DCn2yYeqg4Y5muwaQbGBrS4hIVxxaFMmf8Z
wNo9T8ONEGTB+jfZFCTqkXvjEdN8+6JxXIWOyJOdIfdCmAk4w5h7IV7GL1JDxl5l
dFmXcn/6uOWMkD0WYBhE6Wh/rId+M1hs/JO3XPPm+K9v6CRIY/ECzFHp9fCulyje
Ba7pAJYitLgP8WohDPNf2FhRdsBXyxoe4V795u4LkopiRe2AbybbPXVtjsSr0lbo
L9wtNFUkLytIQSlyCTOMFCeeCk1VYVhSjbNA36G8IDOEDjJKl3ohCe/Q9YYe+DC9
bQoJ2NMh5kO8UvOYB63+R7D5pH2UduI7IYbxti2yEuCF7XRwJ7aB
-----END CERTIFICATE-----
