Certificate:
    Data:
        Version: 3 (0x2)
        Serial Number:
            32:1c:f6:c9:7c:52:ba:64:3c:76:f1:9e:b1:ea:da:95:31:02:d0:74
        Signature Algorithm: sha256WithRSAEncryption
        Issuer: C=NO, O=Nitpicksy, OU=Nitpicksy Certificate Authority, CN=Nitpicksy TLS CA
        Validity
            Not Before: Dec  6 22:08:18 2020 GMT
            Not After : Dec  6 22:08:18 2022 GMT
        Subject: C=NO, O=Nitpicksy, OU=Nitpicksy Certificate Authority, CN=zuul
        Subject Public Key Info:
            Public Key Algorithm: rsaEncryption
                RSA Public-Key: (4096 bit)
                Modulus:
                    00:d5:e1:a5:97:2b:00:9f:77:db:f5:68:10:dc:40:
                    c7:dd:7f:58:e5:f0:ea:41:87:c9:f6:40:7d:d0:29:
                    53:b7:fd:0d:24:fc:a1:29:0d:4f:74:32:9a:d3:02:
                    55:eb:b3:bc:e1:55:f9:a9:9e:ff:93:d8:fd:f8:05:
                    c2:21:e0:bf:b7:f1:2d:4f:c0:18:54:62:5d:0c:9c:
                    88:1c:f3:28:37:4f:1a:14:b8:e5:a7:1b:5b:ca:20:
                    99:5d:ae:8e:9a:ae:d0:a4:2f:d8:76:f5:3f:38:09:
                    79:cc:0d:0f:1c:08:d5:43:74:6a:30:44:26:7b:89:
                    be:38:32:61:c3:ba:f9:7c:0e:33:a8:ea:c8:c4:a4:
                    1a:5e:e0:4d:49:bb:14:90:26:a5:ca:be:27:22:1e:
                    24:ad:02:a6:ab:7b:90:4f:5b:d6:ed:22:a9:22:d1:
                    3a:72:f9:10:2f:82:fc:83:4f:a7:62:9c:6b:78:a0:
                    8b:4c:98:db:79:00:3b:15:59:f8:fe:ce:da:37:4d:
                    1b:41:a0:55:14:7c:cd:45:7f:43:e3:ab:a2:ad:e7:
                    f5:66:d0:6a:6c:3c:74:36:6f:cf:4d:21:48:3d:07:
                    d9:82:d0:a8:aa:ff:de:05:55:91:a0:4d:75:ad:e9:
                    95:6f:53:0c:06:74:6d:9b:d2:fb:6c:85:66:28:a3:
                    b1:ad:21:94:26:4d:67:dd:07:2c:4e:0f:85:59:33:
                    92:fb:87:29:f3:53:a9:ed:59:11:71:9a:ad:0e:14:
                    55:d4:d1:f0:0e:23:5b:10:7b:e0:20:32:52:f9:f7:
                    90:28:6f:55:00:d1:b1:f4:28:49:c3:35:f9:fe:ef:
                    a3:9d:a8:2b:48:08:b6:ae:5a:44:2a:6a:c8:d8:80:
                    11:5e:4b:8c:0f:24:34:96:8b:0e:d7:69:2b:d4:82:
                    29:21:3c:2a:3f:39:b3:c9:e7:08:ec:e4:ee:6b:75:
                    bc:b1:4f:a1:7b:78:10:2b:fa:e2:3a:f3:58:d9:81:
                    df:d9:a3:a9:f3:be:1c:39:42:8b:70:46:5a:9b:87:
                    b0:b1:51:b2:1b:e3:c4:d3:9f:28:6a:57:15:9f:54:
                    64:84:1e:b0:31:b1:68:8b:e3:56:49:d3:ab:92:01:
                    52:54:af:4a:56:79:ec:11:c7:25:41:4c:8f:ae:e7:
                    c1:3c:13:86:71:2e:bb:0e:13:0a:0a:2d:e7:95:62:
                    e4:af:34:af:80:d7:05:01:eb:67:51:3f:8f:02:66:
                    e6:6e:a2:37:e0:4f:e2:6e:b9:69:79:c9:13:9d:7d:
                    69:d4:3a:f3:f0:82:b5:59:24:b3:86:3a:be:9c:0d:
                    c7:2f:45:85:b7:0b:71:a4:cc:fe:90:d3:71:d9:6f:
                    9b:55:49
                Exponent: 65537 (0x10001)
        X509v3 extensions:
            X509v3 Key Usage: critical
                Digital Signature, Key Encipherment
            X509v3 Basic Constraints: 
                CA:FALSE
            X509v3 Extended Key Usage: 
                TLS Web Server Authentication, TLS Web Client Authentication
            X509v3 Subject Key Identifier: 
                5F:CF:40:BF:C6:A0:E7:F9:5B:BD:E9:A0:CD:F1:55:BC:65:91:E1:8E
            X509v3 Authority Key Identifier: 
                keyid:46:AE:F3:C6:AD:8C:3E:45:58:86:70:79:96:25:17:E1:6C:F7:16:A8

            Authority Information Access: 
                CA Issuers - URI:http://nitpicksy.no/ca/tls-ca.cer

            X509v3 CRL Distribution Points: 

                Full Name:
                  URI:http://nitpicksy.no/ca/tls-ca.crl

            X509v3 Subject Alternative Name: 
                DNS:nitpicksy.no, DNS:www.nitpicksy.no, DNS:localhost
    Signature Algorithm: sha256WithRSAEncryption
         0d:68:ff:91:90:36:c2:a8:b0:5e:c1:fc:13:a8:58:89:50:20:
         25:65:83:d7:37:fd:e8:76:d3:be:f8:8f:ca:de:45:42:eb:69:
         54:2c:c8:99:cc:9a:63:ed:fd:52:c7:7c:c7:53:a6:b7:c1:29:
         69:99:bf:90:1e:6c:cd:e2:df:44:4a:34:b3:a8:e3:30:7d:ff:
         9b:bc:0e:63:6a:90:d9:37:97:87:8e:98:8c:a5:ac:99:1a:76:
         15:00:3a:4f:09:81:f9:ff:57:64:98:c0:4a:77:8e:8b:27:b8:
         a6:95:90:cc:13:05:aa:61:25:58:e2:97:ae:6d:e1:a9:ca:61:
         8f:94:de:75:10:34:9a:0d:f7:e0:b2:8f:a6:2b:16:5f:15:2a:
         44:71:50:83:80:9c:da:e5:14:14:1c:d2:a4:f9:3c:e9:ba:85:
         ea:75:de:02:f3:90:30:01:77:f1:07:96:f8:32:61:f1:f6:95:
         7d:02:60:a0:44:b7:ad:05:c5:d5:c2:ff:db:02:9d:d7:e4:6d:
         4f:bf:2b:f8:78:cc:ca:74:9d:ca:ec:a1:e1:ff:08:c9:09:b9:
         d3:b3:0a:71:a9:f9:0a:d8:59:03:00:d6:7e:41:52:05:f2:b2:
         8c:a2:57:4a:6e:4e:f3:7a:51:19:ef:8a:9d:20:0e:b3:67:e0:
         69:d0:77:bb:e3:bc:7b:21:79:ab:81:88:a2:d9:e4:0c:2e:a7:
         7f:ce:eb:a6:52:6f:4c:fd:f2:e4:aa:f9:ce:ce:65:fc:b9:d2:
         ee:e9:62:fe:71:e0:09:51:60:f3:b7:2d:07:67:32:b7:eb:7f:
         1e:9f:c2:52:75:17:20:49:b9:d8:e6:f8:01:9a:74:0e:f8:b5:
         42:c2:88:b6:57:f3:b4:da:50:81:f5:cc:82:ca:d9:7c:3d:b9:
         70:4b:cc:3a:03:dc:37:18:49:ec:a4:4f:b2:fe:e6:be:22:8e:
         74:e6:e3:5b:3e:95:b1:17:80:31:cd:43:b1:f5:f9:97:79:f6:
         e2:aa:26:d3:f9:e1:b9:2e:0e:72:86:3b:1c:42:10:a5:39:74:
         f4:ee:c5:6b:17:1b:18:3e:e8:25:4b:25:7b:85:d2:4e:68:7b:
         a1:e1:5c:9d:82:43:71:6b:e2:f3:13:d1:45:b2:a9:9a:84:58:
         9d:48:e0:27:62:ed:d9:03:c7:1e:e6:1f:45:1a:a4:30:06:7f:
         f6:52:8c:7d:48:cd:9f:72:8b:e7:58:08:bc:ca:b0:da:f7:9a:
         2a:27:8f:34:a2:88:e9:bf:67:b0:47:3e:88:af:e7:0e:f6:ea:
         5a:6c:7b:5e:64:28:d4:50:2f:66:c7:58:73:95:ce:ee:f0:80:
         16:12:b6:20:18:c7:4f:f6
-----BEGIN CERTIFICATE-----
MIIGdzCCBF+gAwIBAgIUMhz2yXxSumQ8dvGeseralTEC0HQwDQYJKoZIhvcNAQEL
BQAwZjELMAkGA1UEBhMCTk8xEjAQBgNVBAoMCU5pdHBpY2tzeTEoMCYGA1UECwwf
Tml0cGlja3N5IENlcnRpZmljYXRlIEF1dGhvcml0eTEZMBcGA1UEAwwQTml0cGlj
a3N5IFRMUyBDQTAeFw0yMDEyMDYyMjA4MThaFw0yMjEyMDYyMjA4MThaMFoxCzAJ
BgNVBAYTAk5PMRIwEAYDVQQKDAlOaXRwaWNrc3kxKDAmBgNVBAsMH05pdHBpY2tz
eSBDZXJ0aWZpY2F0ZSBBdXRob3JpdHkxDTALBgNVBAMMBHp1dWwwggIiMA0GCSqG
SIb3DQEBAQUAA4ICDwAwggIKAoICAQDV4aWXKwCfd9v1aBDcQMfdf1jl8OpBh8n2
QH3QKVO3/Q0k/KEpDU90MprTAlXrs7zhVfmpnv+T2P34BcIh4L+38S1PwBhUYl0M
nIgc8yg3TxoUuOWnG1vKIJldro6artCkL9h29T84CXnMDQ8cCNVDdGowRCZ7ib44
MmHDuvl8DjOo6sjEpBpe4E1JuxSQJqXKviciHiStAqare5BPW9btIqki0Tpy+RAv
gvyDT6dinGt4oItMmNt5ADsVWfj+zto3TRtBoFUUfM1Ff0Pjq6Kt5/Vm0GpsPHQ2
b89NIUg9B9mC0Kiq/94FVZGgTXWt6ZVvUwwGdG2b0vtshWYoo7GtIZQmTWfdByxO
D4VZM5L7hynzU6ntWRFxmq0OFFXU0fAOI1sQe+AgMlL595Aob1UA0bH0KEnDNfn+
76OdqCtICLauWkQqasjYgBFeS4wPJDSWiw7XaSvUgikhPCo/ObPJ5wjs5O5rdbyx
T6F7eBAr+uI681jZgd/Zo6nzvhw5QotwRlqbh7CxUbIb48TTnyhqVxWfVGSEHrAx
sWiL41ZJ06uSAVJUr0pWeewRxyVBTI+u58E8E4ZxLrsOEwoKLeeVYuSvNK+A1wUB
62dRP48CZuZuojfgT+JuuWl5yROdfWnUOvPwgrVZJLOGOr6cDccvRYW3C3GkzP6Q
03HZb5tVSQIDAQABo4IBJzCCASMwDgYDVR0PAQH/BAQDAgWgMAkGA1UdEwQCMAAw
HQYDVR0lBBYwFAYIKwYBBQUHAwEGCCsGAQUFBwMCMB0GA1UdDgQWBBRfz0C/xqDn
+Vu96aDN8VW8ZZHhjjAfBgNVHSMEGDAWgBRGrvPGrYw+RViGcHmWJRfhbPcWqDA9
BggrBgEFBQcBAQQxMC8wLQYIKwYBBQUHMAKGIWh0dHA6Ly9uaXRwaWNrc3kubm8v
Y2EvdGxzLWNhLmNlcjAyBgNVHR8EKzApMCegJaAjhiFodHRwOi8vbml0cGlja3N5
Lm5vL2NhL3Rscy1jYS5jcmwwNAYDVR0RBC0wK4IMbml0cGlja3N5Lm5vghB3d3cu
bml0cGlja3N5Lm5vgglsb2NhbGhvc3QwDQYJKoZIhvcNAQELBQADggIBAA1o/5GQ
NsKosF7B/BOoWIlQICVlg9c3/eh20774j8reRULraVQsyJnMmmPt/VLHfMdTprfB
KWmZv5AebM3i30RKNLOo4zB9/5u8DmNqkNk3l4eOmIylrJkadhUAOk8Jgfn/V2SY
wEp3josnuKaVkMwTBaphJVjil65t4anKYY+U3nUQNJoN9+Cyj6YrFl8VKkRxUIOA
nNrlFBQc0qT5POm6hep13gLzkDABd/EHlvgyYfH2lX0CYKBEt60FxdXC/9sCndfk
bU+/K/h4zMp0ncrsoeH/CMkJudOzCnGp+QrYWQMA1n5BUgXysoyiV0puTvN6URnv
ip0gDrNn4GnQd7vjvHsheauBiKLZ5Awup3/O66ZSb0z98uSq+c7OZfy50u7pYv5x
4AlRYPO3LQdnMrfrfx6fwlJ1FyBJudjm+AGadA74tULCiLZX87TaUIH1zILK2Xw9
uXBLzDoD3DcYSeykT7L+5r4ijnTm41s+lbEXgDHNQ7H1+Zd59uKqJtP54bkuDnKG
OxxCEKU5dPTuxWsXGxg+6CVLJXuF0k5oe6HhXJ2CQ3Fr4vMT0UWyqZqEWJ1I4Cdi
7dkDxx7mH0UapDAGf/ZSjH1IzZ9yi+dYCLzKsNr3mionjzSiiOm/Z7BHPoiv5w72
6lpse15kKNRQL2bHWHOVzu7wgBYStiAYx0/2
-----END CERTIFICATE-----
