Certificate:
    Data:
        Version: 3 (0x2)
        Serial Number:
            32:76:37:93:59:ed:37:67:c6:13:80:66:31:a8:8b:b0:75:89:bb:66
        Signature Algorithm: sha256WithRSAEncryption
        Issuer: C=NO, O=Nitpicksy, OU=Nitpicksy Certificate Authority, CN=Nitpicksy TLS CA
        Validity
            Not Before: Dec 11 20:36:50 2020 GMT
            Not After : Dec 11 20:36:50 2022 GMT
        Subject: C=NO, O=Nitpicksy, OU=Nitpicksy Certificate Authority, CN=Literary Society
        Subject Public Key Info:
            Public Key Algorithm: rsaEncryption
                RSA Public-Key: (4096 bit)
                Modulus:
                    00:c2:f2:57:0b:5b:9d:71:64:ba:c8:e5:fd:32:e5:
                    2c:6c:50:8f:81:5b:80:e4:72:89:9c:6f:1e:cd:a8:
                    31:1c:52:30:94:ff:17:32:39:08:a6:44:a6:c1:99:
                    11:3a:b5:76:ed:da:aa:90:72:21:97:8d:f7:37:7e:
                    de:a5:f1:21:df:27:c0:74:06:d6:e7:3f:98:96:02:
                    b0:99:9c:52:bb:d0:72:b2:74:1a:1f:c5:be:bf:86:
                    52:ae:9c:76:94:c1:ad:39:ed:49:31:70:20:9f:1a:
                    32:d2:bf:24:a6:2c:e8:5d:61:86:4d:53:eb:8d:34:
                    33:25:48:82:e1:bf:1f:e6:a0:7d:4d:43:39:32:ba:
                    f5:eb:71:23:4a:6f:8a:3a:95:93:77:da:b8:bb:7d:
                    6e:85:4e:00:d7:f1:1a:33:9d:3d:f4:d2:5f:37:c6:
                    ec:4a:c0:39:60:20:8d:7d:fb:47:da:1d:79:c5:1f:
                    f2:d0:1f:c6:f7:8f:75:65:ef:54:e4:d0:2e:fb:fc:
                    7b:88:e5:c5:35:16:b2:66:61:8d:a5:6e:46:7d:47:
                    da:e2:83:d1:be:88:22:51:8f:ac:dd:47:a6:81:5c:
                    c2:75:02:33:90:a4:9f:75:d2:8b:af:58:72:c2:73:
                    79:44:b4:bc:96:bc:bf:e3:5f:c8:98:9e:84:7a:41:
                    d2:6c:92:47:3d:1e:78:06:be:df:6d:fe:7d:97:b6:
                    59:20:58:28:54:eb:8c:01:89:0f:ac:a6:25:fc:76:
                    d2:46:fa:47:40:ec:36:62:a9:a8:98:bd:b0:9b:92:
                    04:8f:6e:92:b6:fd:37:08:fd:2b:5e:0f:aa:49:7b:
                    df:e2:1b:75:73:77:61:bc:61:5e:1d:de:e0:49:81:
                    0d:c5:fa:11:4a:63:0c:74:35:0e:53:cc:c8:2d:c5:
                    af:d6:4e:77:be:7d:5f:c3:67:62:92:b5:f2:44:78:
                    f8:2d:52:ea:1e:20:bc:3b:2e:ad:2e:1b:dc:9c:e0:
                    64:f5:7c:68:f8:f4:69:34:f9:50:a8:9b:13:02:c3:
                    b8:8f:8b:fd:5f:d9:81:bf:85:5f:18:04:87:95:48:
                    d0:9a:bf:08:c5:47:8c:a4:ac:78:a6:d8:51:c2:af:
                    e1:9c:4d:7d:54:60:0d:86:0b:d1:47:8d:27:94:54:
                    01:4f:1e:aa:97:a1:6c:74:76:01:aa:41:4e:bc:7a:
                    3d:74:74:2d:39:17:cd:c4:dc:79:ab:fb:ce:3c:5a:
                    ca:7b:36:44:d5:b9:b5:5c:02:5a:6d:3f:09:7b:e8:
                    1d:7a:bc:53:83:9d:b0:5c:d0:ea:7a:f3:c9:c0:7f:
                    01:c8:fa:c5:56:69:7d:b4:4b:d8:42:49:78:9a:8a:
                    3b:2d:df
                Exponent: 65537 (0x10001)
        X509v3 extensions:
            X509v3 Key Usage: critical
                Digital Signature, Key Encipherment
            X509v3 Basic Constraints: 
                CA:FALSE
            X509v3 Extended Key Usage: 
                TLS Web Server Authentication, TLS Web Client Authentication
            X509v3 Subject Key Identifier: 
                EC:A0:44:2F:FC:0E:CB:7A:DB:04:3A:73:01:01:16:B2:8C:69:4B:99
            X509v3 Authority Key Identifier: 
                keyid:CC:B0:B8:BC:D8:35:9B:94:9B:C9:52:8E:84:33:E7:D3:46:B9:14:ED

            Authority Information Access: 
                CA Issuers - URI:http://nitpicksy.no/ca/tls-ca.cer

            X509v3 CRL Distribution Points: 

                Full Name:
                  URI:http://nitpicksy.no/ca/tls-ca.crl

            X509v3 Subject Alternative Name: 
                DNS:nitpicksy.no, DNS:www.nitpicksy.no, DNS:localhost, IP Address:127.0.0.1
    Signature Algorithm: sha256WithRSAEncryption
         99:67:ad:8d:c3:65:c6:c0:45:ae:bb:d6:8c:ac:e8:22:d5:13:
         d0:19:46:27:36:6e:cb:0d:66:35:7c:54:cb:bf:fa:77:ed:42:
         41:30:e0:bb:e4:3d:fd:2c:21:67:d7:98:99:cb:65:35:fc:99:
         90:0f:cd:4c:3b:0b:9f:14:de:f3:c9:a9:ba:16:54:cd:f6:90:
         70:94:26:33:9d:d3:02:7d:30:fa:aa:d7:de:d5:92:8f:20:a6:
         ca:38:d3:73:bb:46:bb:e6:b4:bf:71:27:67:3d:55:23:c5:db:
         f5:06:b4:35:3e:ed:f2:7d:51:71:98:65:00:5d:1f:26:ba:12:
         e2:d7:36:7a:05:47:3f:3c:ed:2b:12:c8:6e:f9:93:82:d7:9d:
         da:40:4a:7e:0a:dc:73:01:e2:6e:06:7d:6b:0e:95:98:5a:a0:
         b8:9a:bd:ab:d9:41:49:95:1c:e1:9c:35:fc:ff:6a:fc:ef:42:
         ed:23:84:ca:1c:56:e6:c1:08:06:09:f8:02:6e:35:8f:3e:ad:
         40:d9:6a:7e:e1:e7:72:36:f1:58:a7:97:8c:cb:13:76:a1:e7:
         32:a0:44:e8:23:52:15:70:35:e7:9c:03:92:6e:aa:72:eb:93:
         fa:15:bd:87:23:8f:63:8d:47:33:3d:30:2b:39:89:3a:e0:a2:
         40:73:59:c1:18:2c:db:19:cf:df:c2:c9:34:6b:45:51:13:ae:
         1b:7b:ed:82:69:5d:33:1c:10:33:00:24:d4:0a:82:4a:1a:60:
         59:1b:6a:28:a9:11:76:e9:d1:25:2e:b2:0c:61:07:31:03:7c:
         04:9b:d3:80:55:e9:bb:db:b6:66:80:c8:e7:32:32:d1:2b:5c:
         cc:57:8d:84:ca:b0:a1:3f:0d:a6:c0:83:03:f6:57:d2:01:53:
         24:2d:4f:6f:f3:da:46:d1:fd:ab:6a:2b:e6:b6:1b:15:5d:1c:
         fa:9f:d0:46:d1:ae:ca:fd:3f:f9:fa:14:5f:11:b2:6d:8c:b0:
         f4:8d:5d:0d:9c:ce:fb:5e:e3:07:de:38:be:d2:07:57:6f:e9:
         77:e2:7a:37:e0:ef:6f:c7:a9:3a:64:2d:f6:b9:2e:f8:a6:9d:
         6f:57:93:ce:2a:58:db:c8:53:6b:94:b9:c4:be:e1:19:4b:04:
         46:6c:7d:84:2c:20:46:70:ee:82:c8:24:08:2e:62:51:2b:0e:
         a0:f4:ed:ca:33:59:52:04:20:a6:4c:87:9e:d5:ba:28:ad:10:
         6f:d8:11:5b:30:17:7a:a8:44:cd:6d:67:63:ca:ea:e6:9a:64:
         8a:94:d9:bf:69:5e:a3:57:ff:d0:80:2b:d1:83:f8:e7:d9:cd:
         e3:c9:83:ce:8c:c0:27:3c
-----BEGIN CERTIFICATE-----
MIIGiTCCBHGgAwIBAgIUMnY3k1ntN2fGE4BmMaiLsHWJu2YwDQYJKoZIhvcNAQEL
BQAwZjELMAkGA1UEBhMCTk8xEjAQBgNVBAoMCU5pdHBpY2tzeTEoMCYGA1UECwwf
Tml0cGlja3N5IENlcnRpZmljYXRlIEF1dGhvcml0eTEZMBcGA1UEAwwQTml0cGlj
a3N5IFRMUyBDQTAeFw0yMDEyMTEyMDM2NTBaFw0yMjEyMTEyMDM2NTBaMGYxCzAJ
BgNVBAYTAk5PMRIwEAYDVQQKDAlOaXRwaWNrc3kxKDAmBgNVBAsMH05pdHBpY2tz
eSBDZXJ0aWZpY2F0ZSBBdXRob3JpdHkxGTAXBgNVBAMMEExpdGVyYXJ5IFNvY2ll
dHkwggIiMA0GCSqGSIb3DQEBAQUAA4ICDwAwggIKAoICAQDC8lcLW51xZLrI5f0y
5SxsUI+BW4Dkcomcbx7NqDEcUjCU/xcyOQimRKbBmRE6tXbt2qqQciGXjfc3ft6l
8SHfJ8B0BtbnP5iWArCZnFK70HKydBofxb6/hlKunHaUwa057UkxcCCfGjLSvySm
LOhdYYZNU+uNNDMlSILhvx/moH1NQzkyuvXrcSNKb4o6lZN32ri7fW6FTgDX8Roz
nT300l83xuxKwDlgII19+0faHXnFH/LQH8b3j3Vl71Tk0C77/HuI5cU1FrJmYY2l
bkZ9R9rig9G+iCJRj6zdR6aBXMJ1AjOQpJ910ouvWHLCc3lEtLyWvL/jX8iYnoR6
QdJskkc9HngGvt9t/n2XtlkgWChU64wBiQ+spiX8dtJG+kdA7DZiqaiYvbCbkgSP
bpK2/TcI/SteD6pJe9/iG3Vzd2G8YV4d3uBJgQ3F+hFKYwx0NQ5TzMgtxa/WTne+
fV/DZ2KStfJEePgtUuoeILw7Lq0uG9yc4GT1fGj49Gk0+VComxMCw7iPi/1f2YG/
hV8YBIeVSNCavwjFR4ykrHim2FHCr+GcTX1UYA2GC9FHjSeUVAFPHqqXoWx0dgGq
QU68ej10dC05F83E3Hmr+848Wsp7NkTVubVcAlptPwl76B16vFODnbBc0Op688nA
fwHI+sVWaX20S9hCSXiaijst3wIDAQABo4IBLTCCASkwDgYDVR0PAQH/BAQDAgWg
MAkGA1UdEwQCMAAwHQYDVR0lBBYwFAYIKwYBBQUHAwEGCCsGAQUFBwMCMB0GA1Ud
DgQWBBTsoEQv/A7LetsEOnMBARayjGlLmTAfBgNVHSMEGDAWgBTMsLi82DWblJvJ
Uo6EM+fTRrkU7TA9BggrBgEFBQcBAQQxMC8wLQYIKwYBBQUHMAKGIWh0dHA6Ly9u
aXRwaWNrc3kubm8vY2EvdGxzLWNhLmNlcjAyBgNVHR8EKzApMCegJaAjhiFodHRw
Oi8vbml0cGlja3N5Lm5vL2NhL3Rscy1jYS5jcmwwOgYDVR0RBDMwMYIMbml0cGlj
a3N5Lm5vghB3d3cubml0cGlja3N5Lm5vgglsb2NhbGhvc3SHBH8AAAEwDQYJKoZI
hvcNAQELBQADggIBAJlnrY3DZcbARa671oys6CLVE9AZRic2bssNZjV8VMu/+nft
QkEw4LvkPf0sIWfXmJnLZTX8mZAPzUw7C58U3vPJqboWVM32kHCUJjOd0wJ9MPqq
197Vko8gpso403O7RrvmtL9xJ2c9VSPF2/UGtDU+7fJ9UXGYZQBdHya6EuLXNnoF
Rz887SsSyG75k4LXndpASn4K3HMB4m4GfWsOlZhaoLiavavZQUmVHOGcNfz/avzv
Qu0jhMocVubBCAYJ+AJuNY8+rUDZan7h53I28Vinl4zLE3ah5zKgROgjUhVwNeec
A5JuqnLrk/oVvYcjj2ONRzM9MCs5iTrgokBzWcEYLNsZz9/CyTRrRVETrht77YJp
XTMcEDMAJNQKgkoaYFkbaiipEXbp0SUusgxhBzEDfASb04BV6bvbtmaAyOcyMtEr
XMxXjYTKsKE/DabAgwP2V9IBUyQtT2/z2kbR/atqK+a2GxVdHPqf0EbRrsr9P/n6
FF8Rsm2MsPSNXQ2czvte4wfeOL7SB1dv6Xfiejfg72/HqTpkLfa5LvimnW9Xk84q
WNvIU2uUucS+4RlLBEZsfYQsIEZw7oLIJAguYlErDqD07cozWVIEIKZMh57Vuiit
EG/YEVswF3qoRM1tZ2PK6uaaZIqU2b9pXqNX/9CAK9GD+OfZzePJg86MwCc8
-----END CERTIFICATE-----
