Certificate:
    Data:
        Version: 3 (0x2)
        Serial Number:
            35:60:66:5a:61:9c:2a:a5:1b:3f:c9:ff:e1:4c:e5:d6:46:07:b3:24
        Signature Algorithm: sha256WithRSAEncryption
        Issuer: C=NO, O=Nitpicksy, OU=Nitpicksy Certificate Authority, CN=Nitpicksy TLS CA
        Validity
            Not Before: Dec  6 21:39:35 2020 GMT
            Not After : Dec  6 21:39:35 2022 GMT
        Subject: C=NO, O=Nitpicksy, OU=Nitpicksy Certificate Authority, CN=Cloud
        Subject Public Key Info:
            Public Key Algorithm: rsaEncryption
                RSA Public-Key: (4096 bit)
                Modulus:
                    00:bd:89:5a:bd:ca:fd:35:b8:c7:81:b0:af:da:6a:
                    b3:c0:3d:e7:7f:97:08:b4:d4:00:63:7f:ed:64:61:
                    aa:99:1a:40:87:36:32:3e:43:55:4a:ae:d0:f9:ba:
                    85:26:dc:03:53:d2:cc:d2:66:f3:82:5f:52:e1:50:
                    18:6f:3b:fc:08:65:61:6d:67:24:63:9b:dd:24:23:
                    7a:7e:c2:9c:ef:f1:7a:9d:85:cb:97:27:e4:9e:b8:
                    80:48:7a:81:e4:c0:eb:c4:87:5c:91:70:fc:be:64:
                    6c:57:9d:86:9e:99:02:59:c0:40:65:59:96:f0:f4:
                    69:a0:a9:d0:92:18:1a:90:94:24:f0:a5:1b:a6:1a:
                    b3:02:33:4b:28:74:c8:08:46:a6:4a:2a:a6:a9:5d:
                    d4:ce:4b:94:a6:4f:ff:e0:33:17:21:48:44:b2:03:
                    c4:25:d7:1e:ca:bb:c1:3d:32:bb:48:30:e7:f8:57:
                    7c:d1:8c:fb:0a:d0:84:6c:31:c9:35:8b:a9:1e:66:
                    eb:e8:b2:61:17:5f:81:f1:65:f4:9c:95:7c:92:8e:
                    e8:c4:b9:48:40:11:16:16:d0:fb:64:b6:87:3f:57:
                    10:52:33:f2:15:ed:b8:73:34:e0:d3:53:9a:7e:49:
                    a0:e3:88:02:48:af:f9:8e:c2:79:61:f7:df:5d:e5:
                    a2:48:04:3e:de:8f:4a:3c:4c:06:7c:da:96:5c:81:
                    86:db:39:0d:3d:7d:04:da:5b:4e:af:81:69:bb:07:
                    97:f3:96:74:3f:7e:b4:6c:a1:7c:a9:6a:7d:54:19:
                    54:9d:35:e8:4a:2d:76:9f:3e:1a:2a:d1:f3:b2:85:
                    ed:33:5a:1b:11:a9:7a:e6:52:90:a3:7d:87:15:6b:
                    c0:65:db:64:7b:7f:59:f7:b0:a1:fc:86:a6:a9:2b:
                    18:07:81:72:b8:a8:14:ff:54:fd:4c:f3:8b:a5:f5:
                    11:a6:97:b3:0b:cc:10:57:be:06:bd:e9:4e:4c:ed:
                    03:5c:f2:71:21:c2:d5:d8:10:e9:49:09:65:2a:2a:
                    1b:cb:6f:c9:48:09:bc:66:0f:39:80:6e:ed:68:ed:
                    c0:67:04:20:91:ff:a6:37:19:71:34:01:25:29:14:
                    be:f0:75:60:b7:e5:39:d5:25:41:06:ad:be:03:d2:
                    7c:bd:31:33:05:ca:f7:30:90:15:15:54:76:6c:63:
                    ff:3b:8a:56:f0:af:76:5f:aa:60:e5:2a:5f:a0:07:
                    13:b8:72:b5:aa:e9:e7:b5:ff:21:f4:e3:90:5b:79:
                    4b:f4:77:70:3c:7f:61:d8:b7:45:2d:94:85:ac:eb:
                    dd:4f:62:5b:ba:e3:74:18:af:7f:e4:40:bd:d4:80:
                    36:fa:55
                Exponent: 65537 (0x10001)
        X509v3 extensions:
            X509v3 Key Usage: critical
                Digital Signature, Key Encipherment
            X509v3 Basic Constraints: 
                CA:FALSE
            X509v3 Extended Key Usage: 
                TLS Web Server Authentication, TLS Web Client Authentication
            X509v3 Subject Key Identifier: 
                7A:46:56:2B:57:7A:CC:28:54:67:0F:90:65:20:92:2F:C2:E8:EF:74
            X509v3 Authority Key Identifier: 
                keyid:73:22:F9:68:31:83:E6:3A:55:0D:D5:B0:7B:20:10:F1:2E:0B:77:9F

            Authority Information Access: 
                CA Issuers - URI:http://nitpicksy.no/ca/tls-ca.cer

            X509v3 CRL Distribution Points: 

                Full Name:
                  URI:http://nitpicksy.no/ca/tls-ca.crl

            X509v3 Subject Alternative Name: 
                DNS:nitpicksy.no, DNS:www.nitpicksy.no, DNS:localhost
    Signature Algorithm: sha256WithRSAEncryption
         7e:51:2f:c9:c4:12:36:ee:af:f5:83:8a:a6:53:b6:b8:0d:a1:
         46:03:c4:80:e1:65:db:95:50:34:c4:d0:e5:cb:ae:18:20:6a:
         05:be:b7:3a:06:5d:ff:df:15:fe:22:a7:fd:26:6b:61:6d:34:
         5b:e1:cc:26:30:da:c0:dd:f9:b8:c5:17:2b:45:02:52:dd:8f:
         51:f9:44:da:22:7d:2c:17:48:40:d8:8f:1d:81:15:24:c9:d9:
         59:a6:0e:f8:61:67:0f:80:dc:a0:5a:60:9c:10:17:8c:ae:7e:
         24:a7:fb:5c:b0:36:a4:9d:88:a0:0c:62:a8:98:3a:76:6e:59:
         a0:4b:40:e3:9f:d8:81:6c:98:7f:7f:72:38:94:04:73:7a:d3:
         c0:ad:f1:b6:94:4b:b5:31:d4:84:c6:a1:69:83:ce:db:da:9f:
         e2:ab:52:70:cd:63:e4:46:dd:c7:d7:c5:e1:a1:7a:77:74:e0:
         ec:a3:80:29:28:85:bd:47:0a:95:9a:c6:ef:d5:33:43:3c:0e:
         5f:cf:6c:0c:f6:56:75:70:35:c7:af:df:6e:c4:0d:fb:28:1a:
         f0:dc:c0:ea:e8:a3:33:d2:97:28:77:a9:d0:ec:87:d4:23:09:
         af:3f:d4:84:5f:7c:19:0d:2c:73:ce:36:a3:5b:58:5f:be:81:
         63:ee:9f:3d:14:35:4f:56:a5:2d:ae:20:fc:8b:26:a7:1c:dc:
         80:e0:1f:6b:d6:4d:f9:c0:c7:15:57:84:c5:7e:5c:37:cc:5c:
         87:0f:6c:84:4a:ff:72:e2:fd:b2:af:62:60:5c:7e:35:53:33:
         2c:dc:8f:ba:42:dd:28:d8:d6:a7:2f:e1:d5:47:d4:48:06:df:
         f4:9f:1c:30:11:a4:db:84:01:e3:6e:de:dc:09:5a:3b:f3:43:
         61:d7:14:1f:a6:3a:71:85:f7:55:5c:8d:c0:d7:e7:0f:7b:4e:
         4c:96:f0:7d:9b:b5:27:0a:0d:86:d5:c3:ff:25:df:f0:f8:41:
         9b:d8:ec:25:06:80:21:b0:02:a2:7c:c9:94:20:36:f7:5d:cc:
         93:ba:97:14:a7:2f:62:88:66:63:3b:9b:79:12:80:ef:a3:69:
         47:e5:83:38:ee:ec:26:80:49:1b:2e:46:57:b6:ae:cb:37:c5:
         b8:0b:af:4c:42:43:bb:03:af:b4:57:c2:0e:a1:f4:db:e4:f3:
         52:03:82:f7:69:38:9b:b0:59:53:ce:6e:f7:43:b5:12:93:d5:
         23:52:7b:f7:cd:71:bd:b0:87:f6:19:5c:d4:ef:36:96:53:dd:
         bb:44:5d:c7:29:3a:01:5d:8b:cd:ee:f9:f1:42:9f:98:49:6a:
         a9:f9:6f:b8:03:05:c2:bf
-----BEGIN CERTIFICATE-----
MIIGeDCCBGCgAwIBAgIUNWBmWmGcKqUbP8n/4Uzl1kYHsyQwDQYJKoZIhvcNAQEL
BQAwZjELMAkGA1UEBhMCTk8xEjAQBgNVBAoMCU5pdHBpY2tzeTEoMCYGA1UECwwf
Tml0cGlja3N5IENlcnRpZmljYXRlIEF1dGhvcml0eTEZMBcGA1UEAwwQTml0cGlj
a3N5IFRMUyBDQTAeFw0yMDEyMDYyMTM5MzVaFw0yMjEyMDYyMTM5MzVaMFsxCzAJ
BgNVBAYTAk5PMRIwEAYDVQQKDAlOaXRwaWNrc3kxKDAmBgNVBAsMH05pdHBpY2tz
eSBDZXJ0aWZpY2F0ZSBBdXRob3JpdHkxDjAMBgNVBAMMBUNsb3VkMIICIjANBgkq
hkiG9w0BAQEFAAOCAg8AMIICCgKCAgEAvYlavcr9NbjHgbCv2mqzwD3nf5cItNQA
Y3/tZGGqmRpAhzYyPkNVSq7Q+bqFJtwDU9LM0mbzgl9S4VAYbzv8CGVhbWckY5vd
JCN6fsKc7/F6nYXLlyfknriASHqB5MDrxIdckXD8vmRsV52GnpkCWcBAZVmW8PRp
oKnQkhgakJQk8KUbphqzAjNLKHTICEamSiqmqV3UzkuUpk//4DMXIUhEsgPEJdce
yrvBPTK7SDDn+Fd80Yz7CtCEbDHJNYupHmbr6LJhF1+B8WX0nJV8ko7oxLlIQBEW
FtD7ZLaHP1cQUjPyFe24czTg01Oafkmg44gCSK/5jsJ5YfffXeWiSAQ+3o9KPEwG
fNqWXIGG2zkNPX0E2ltOr4FpuweX85Z0P360bKF8qWp9VBlUnTXoSi12nz4aKtHz
soXtM1obEal65lKQo32HFWvAZdtke39Z97Ch/IamqSsYB4FyuKgU/1T9TPOLpfUR
ppezC8wQV74GvelOTO0DXPJxIcLV2BDpSQllKioby2/JSAm8Zg85gG7taO3AZwQg
kf+mNxlxNAElKRS+8HVgt+U51SVBBq2+A9J8vTEzBcr3MJAVFVR2bGP/O4pW8K92
X6pg5SpfoAcTuHK1qunntf8h9OOQW3lL9HdwPH9h2LdFLZSFrOvdT2JbuuN0GK9/
5EC91IA2+lUCAwEAAaOCAScwggEjMA4GA1UdDwEB/wQEAwIFoDAJBgNVHRMEAjAA
MB0GA1UdJQQWMBQGCCsGAQUFBwMBBggrBgEFBQcDAjAdBgNVHQ4EFgQUekZWK1d6
zChUZw+QZSCSL8Lo73QwHwYDVR0jBBgwFoAUcyL5aDGD5jpVDdWweyAQ8S4Ld58w
PQYIKwYBBQUHAQEEMTAvMC0GCCsGAQUFBzAChiFodHRwOi8vbml0cGlja3N5Lm5v
L2NhL3Rscy1jYS5jZXIwMgYDVR0fBCswKTAnoCWgI4YhaHR0cDovL25pdHBpY2tz
eS5uby9jYS90bHMtY2EuY3JsMDQGA1UdEQQtMCuCDG5pdHBpY2tzeS5ub4IQd3d3
Lm5pdHBpY2tzeS5ub4IJbG9jYWxob3N0MA0GCSqGSIb3DQEBCwUAA4ICAQB+US/J
xBI27q/1g4qmU7a4DaFGA8SA4WXblVA0xNDly64YIGoFvrc6Bl3/3xX+Iqf9Jmth
bTRb4cwmMNrA3fm4xRcrRQJS3Y9R+UTaIn0sF0hA2I8dgRUkydlZpg74YWcPgNyg
WmCcEBeMrn4kp/tcsDaknYigDGKomDp2blmgS0Djn9iBbJh/f3I4lARzetPArfG2
lEu1MdSExqFpg87b2p/iq1JwzWPkRt3H18XhoXp3dODso4ApKIW9RwqVmsbv1TND
PA5fz2wM9lZ1cDXHr99uxA37KBrw3MDq6KMz0pcod6nQ7IfUIwmvP9SEX3wZDSxz
zjajW1hfvoFj7p89FDVPVqUtriD8iyanHNyA4B9r1k35wMcVV4TFflw3zFyHD2yE
Sv9y4v2yr2JgXH41UzMs3I+6Qt0o2NanL+HVR9RIBt/0nxwwEaTbhAHjbt7cCVo7
80Nh1xQfpjpxhfdVXI3A1+cPe05MlvB9m7UnCg2G1cP/Jd/w+EGb2OwlBoAhsAKi
fMmUIDb3XcyTupcUpy9iiGZjO5t5EoDvo2lH5YM47uwmgEkbLkZXtq7LN8W4C69M
QkO7A6+0V8IOofTb5PNSA4L3aTibsFlTzm73Q7USk9UjUnv3zXG9sIf2GVzU7zaW
U927RF3HKToBXYvN7vnxQp+YSWqp+W+4AwXCvw==
-----END CERTIFICATE-----
