Certificate:
    Data:
        Version: 3 (0x2)
        Serial Number:
            37:1d:cc:dd:e8:ef:b8:62:aa:7f:47:1e:ac:9d:b0:1e:39:80:35:01
        Signature Algorithm: sha256WithRSAEncryption
        Issuer: C=NO, O=Nitpicksy, OU=Nitpicksy Certificate Authority, CN=Nitpicksy TLS CA
        Validity
            Not Before: Dec  6 21:59:53 2020 GMT
            Not After : Dec  6 21:59:53 2022 GMT
        Subject: C=NO, O=Nitpicksy, OU=Nitpicksy Certificate Authority, CN=Bitcoin
        Subject Public Key Info:
            Public Key Algorithm: rsaEncryption
                RSA Public-Key: (4096 bit)
                Modulus:
                    00:bc:c4:5f:ba:5e:1b:37:3d:c2:9d:9b:3e:62:4e:
                    f7:b0:06:6b:31:c4:5f:c6:cd:91:0d:30:9c:bd:3b:
                    d5:3f:a8:7a:72:e4:45:f3:8b:aa:5e:bb:12:14:6e:
                    0d:b1:36:f5:5d:31:9a:e1:a5:af:3e:27:96:1c:07:
                    02:ca:a3:d3:26:98:52:13:c8:03:34:68:16:a5:0c:
                    ff:15:cd:3b:35:09:e1:77:e8:45:c3:99:eb:d0:72:
                    6a:4d:94:bb:24:e5:75:5b:20:78:ce:80:c0:9c:37:
                    f5:7d:39:6d:ab:52:cc:d6:8e:a7:0f:d9:d1:14:73:
                    ce:04:7e:96:e9:a2:6c:97:a2:6d:b8:01:32:a0:59:
                    7e:48:6f:77:8c:59:c8:fc:b3:6f:75:d1:e3:df:7b:
                    01:db:06:65:fe:2b:09:ef:9c:62:aa:bb:69:3e:c7:
                    57:2d:3c:0e:d1:e6:11:f9:3c:1b:c8:be:c8:86:d9:
                    b3:11:91:e7:cf:8b:70:0c:39:d2:72:0f:dc:ce:07:
                    6c:48:f4:c6:45:ac:10:b7:c0:e0:e2:d5:82:72:58:
                    67:ee:d6:61:62:8a:f7:c5:d2:b0:90:c8:bf:42:e3:
                    69:c1:63:08:64:2c:89:60:15:8d:75:99:08:19:5d:
                    c8:d1:e8:d2:f1:85:9a:c3:51:e9:53:e8:eb:7c:4c:
                    51:de:e2:bd:6e:bb:59:26:83:91:29:93:c2:bb:4f:
                    35:21:77:be:a9:6f:8c:0e:72:b1:7c:ec:fd:f5:40:
                    00:ba:c5:3c:01:db:02:2a:6d:d9:6d:3d:f5:eb:c1:
                    25:ad:83:b0:6c:c2:1b:f2:e9:d1:9f:45:ff:23:37:
                    aa:09:71:be:4f:58:4c:ce:c3:98:c8:c1:6b:2d:49:
                    96:60:a5:96:6d:5a:57:bd:fc:e8:a4:16:ca:b2:34:
                    8c:7c:7a:7b:ba:65:04:0f:ab:79:c7:83:62:17:c0:
                    03:d0:7b:db:c3:ef:70:62:ad:ba:18:28:85:36:5a:
                    52:9a:d8:6f:c1:7d:42:99:35:1d:c1:2f:24:88:cf:
                    50:a0:30:f5:81:5d:99:d2:f2:a0:75:75:57:db:e8:
                    fc:cf:04:4d:ec:42:f2:e5:9c:a6:8c:3c:b9:6a:a9:
                    38:98:e4:04:73:85:9a:99:00:4e:0c:7b:48:f8:4b:
                    d6:24:1b:0f:9d:d9:96:cb:e7:9b:9f:aa:25:7c:94:
                    a9:3a:30:cd:56:46:36:0c:90:bc:af:de:e1:cc:98:
                    7f:41:9e:9a:05:9d:51:7a:ac:d1:32:be:52:1c:2b:
                    19:dc:fa:52:a5:94:29:16:a5:7a:05:88:3c:83:67:
                    8f:8b:22:c2:7f:8c:ed:13:e7:88:8c:7a:f5:cc:c3:
                    b9:85:a5
                Exponent: 65537 (0x10001)
        X509v3 extensions:
            X509v3 Key Usage: critical
                Digital Signature, Key Encipherment
            X509v3 Basic Constraints: 
                CA:FALSE
            X509v3 Extended Key Usage: 
                TLS Web Server Authentication, TLS Web Client Authentication
            X509v3 Subject Key Identifier: 
                1E:C8:9B:CB:D5:E8:2E:DA:8B:FE:A0:FC:2E:F8:9A:50:20:16:5C:20
            X509v3 Authority Key Identifier: 
                keyid:F8:9E:02:FC:4A:0D:42:21:E6:18:5C:50:21:68:5A:34:79:23:14:65

            Authority Information Access: 
                CA Issuers - URI:http://nitpicksy.no/ca/tls-ca.cer

            X509v3 CRL Distribution Points: 

                Full Name:
                  URI:http://nitpicksy.no/ca/tls-ca.crl

            X509v3 Subject Alternative Name: 
                DNS:nitpicksy.no, DNS:www.nitpicksy.no, DNS:localhost
    Signature Algorithm: sha256WithRSAEncryption
         aa:ab:5f:bd:63:b1:53:f1:20:38:9a:30:cb:e7:31:5e:4d:dd:
         47:ec:7a:66:76:e9:be:1b:7f:44:82:6e:81:8f:df:70:65:8a:
         81:cc:75:d1:07:06:dd:5f:8f:c8:a3:48:99:5b:e3:a9:b5:c7:
         f0:e8:1d:7e:e5:a7:2a:4e:6d:a4:d6:35:de:85:15:ad:e7:a6:
         3e:95:63:90:d4:20:e9:6e:57:cd:b4:86:c7:e0:ae:0b:e4:67:
         90:0b:5f:f0:e0:35:86:bf:3e:4b:b4:17:c2:30:38:28:80:9e:
         8c:57:40:5d:94:b2:75:77:5c:75:1e:6e:ec:ca:ce:0d:7e:4a:
         0a:18:60:fd:8f:75:12:4d:d3:74:d5:29:08:8f:b8:ee:6c:b9:
         de:a3:c1:7f:ff:e5:1b:20:06:3b:ca:33:78:b2:b8:9d:48:b0:
         ea:3d:3d:7e:57:29:05:dd:ff:c2:ef:7b:be:25:77:3e:70:87:
         60:cb:65:2e:0d:13:df:b7:dd:9e:7f:9c:e8:81:bc:00:f8:4f:
         93:12:c6:cc:78:cf:82:f6:9d:fb:f9:96:b1:fb:d2:3d:ce:a0:
         67:b2:8c:2e:34:1f:c2:70:3b:8b:52:55:50:0f:7d:db:25:55:
         e2:3e:80:22:4f:c2:98:13:8d:3e:0a:6a:e0:98:fc:54:f7:37:
         3c:ed:b2:80:76:da:59:16:7b:06:a1:f8:7a:24:9e:6d:3b:8a:
         b6:eb:73:7f:28:63:88:3f:d6:84:5b:2d:b2:17:57:6f:41:54:
         f4:d2:d4:0e:40:1b:41:8c:88:ac:78:1c:00:af:86:a4:ec:50:
         ca:e5:71:17:69:54:85:a1:9e:e4:94:1b:f1:e9:51:7a:f8:ed:
         e5:02:76:cc:43:c8:69:0e:07:a8:3c:48:b4:44:d7:b0:94:b0:
         86:cb:41:13:03:d6:95:55:3d:72:c7:28:cc:54:5c:e1:98:e4:
         f4:dc:90:73:d0:66:c0:6e:d0:8c:06:e0:2a:15:16:a0:3d:a7:
         10:11:18:62:6b:a4:b7:5e:b3:34:73:bd:b5:2b:28:87:54:93:
         f7:40:4f:dd:fb:6c:e7:74:40:8f:7d:d6:5b:3f:d2:a9:7b:2c:
         f8:e9:46:86:fa:ff:79:e9:15:60:95:5c:4e:16:54:f7:99:4a:
         df:b8:2b:0f:7c:6d:25:7f:3c:c1:99:0a:64:b7:74:24:2f:05:
         20:83:85:9d:9a:6d:ef:6b:f0:bd:72:69:be:61:df:1b:f0:24:
         10:63:6a:38:ba:e2:0e:1e:9a:db:7e:f6:b3:c5:01:14:b3:74:
         0c:aa:d5:20:e8:92:69:b4:6e:8f:eb:7a:4f:a5:21:1c:fe:dd:
         c5:4f:6c:1d:27:ba:dc:8b
-----BEGIN CERTIFICATE-----
MIIGejCCBGKgAwIBAgIUNx3M3ejvuGKqf0cerJ2wHjmANQEwDQYJKoZIhvcNAQEL
BQAwZjELMAkGA1UEBhMCTk8xEjAQBgNVBAoMCU5pdHBpY2tzeTEoMCYGA1UECwwf
Tml0cGlja3N5IENlcnRpZmljYXRlIEF1dGhvcml0eTEZMBcGA1UEAwwQTml0cGlj
a3N5IFRMUyBDQTAeFw0yMDEyMDYyMTU5NTNaFw0yMjEyMDYyMTU5NTNaMF0xCzAJ
BgNVBAYTAk5PMRIwEAYDVQQKDAlOaXRwaWNrc3kxKDAmBgNVBAsMH05pdHBpY2tz
eSBDZXJ0aWZpY2F0ZSBBdXRob3JpdHkxEDAOBgNVBAMMB0JpdGNvaW4wggIiMA0G
CSqGSIb3DQEBAQUAA4ICDwAwggIKAoICAQC8xF+6Xhs3PcKdmz5iTvewBmsxxF/G
zZENMJy9O9U/qHpy5EXzi6peuxIUbg2xNvVdMZrhpa8+J5YcBwLKo9MmmFITyAM0
aBalDP8VzTs1CeF36EXDmevQcmpNlLsk5XVbIHjOgMCcN/V9OW2rUszWjqcP2dEU
c84EfpbpomyXom24ATKgWX5Ib3eMWcj8s2910ePfewHbBmX+KwnvnGKqu2k+x1ct
PA7R5hH5PBvIvsiG2bMRkefPi3AMOdJyD9zOB2xI9MZFrBC3wODi1YJyWGfu1mFi
ivfF0rCQyL9C42nBYwhkLIlgFY11mQgZXcjR6NLxhZrDUelT6Ot8TFHe4r1uu1km
g5Epk8K7TzUhd76pb4wOcrF87P31QAC6xTwB2wIqbdltPfXrwSWtg7Bswhvy6dGf
Rf8jN6oJcb5PWEzOw5jIwWstSZZgpZZtWle9/OikFsqyNIx8enu6ZQQPq3nHg2IX
wAPQe9vD73BirboYKIU2WlKa2G/BfUKZNR3BLySIz1CgMPWBXZnS8qB1dVfb6PzP
BE3sQvLlnKaMPLlqqTiY5ARzhZqZAE4Me0j4S9YkGw+d2ZbL55ufqiV8lKk6MM1W
RjYMkLyv3uHMmH9BnpoFnVF6rNEyvlIcKxnc+lKllCkWpXoFiDyDZ4+LIsJ/jO0T
54iMevXMw7mFpQIDAQABo4IBJzCCASMwDgYDVR0PAQH/BAQDAgWgMAkGA1UdEwQC
MAAwHQYDVR0lBBYwFAYIKwYBBQUHAwEGCCsGAQUFBwMCMB0GA1UdDgQWBBQeyJvL
1egu2ov+oPwu+JpQIBZcIDAfBgNVHSMEGDAWgBT4ngL8Sg1CIeYYXFAhaFo0eSMU
ZTA9BggrBgEFBQcBAQQxMC8wLQYIKwYBBQUHMAKGIWh0dHA6Ly9uaXRwaWNrc3ku
bm8vY2EvdGxzLWNhLmNlcjAyBgNVHR8EKzApMCegJaAjhiFodHRwOi8vbml0cGlj
a3N5Lm5vL2NhL3Rscy1jYS5jcmwwNAYDVR0RBC0wK4IMbml0cGlja3N5Lm5vghB3
d3cubml0cGlja3N5Lm5vgglsb2NhbGhvc3QwDQYJKoZIhvcNAQELBQADggIBAKqr
X71jsVPxIDiaMMvnMV5N3UfsemZ26b4bf0SCboGP33BlioHMddEHBt1fj8ijSJlb
46m1x/DoHX7lpypObaTWNd6FFa3npj6VY5DUIOluV820hsfgrgvkZ5ALX/DgNYa/
Pku0F8IwOCiAnoxXQF2UsnV3XHUebuzKzg1+SgoYYP2PdRJN03TVKQiPuO5sud6j
wX//5RsgBjvKM3iyuJ1IsOo9PX5XKQXd/8Lve74ldz5wh2DLZS4NE9+33Z5/nOiB
vAD4T5MSxsx4z4L2nfv5lrH70j3OoGeyjC40H8JwO4tSVVAPfdslVeI+gCJPwpgT
jT4KauCY/FT3NzztsoB22lkWewah+Hoknm07irbrc38oY4g/1oRbLbIXV29BVPTS
1A5AG0GMiKx4HACvhqTsUMrlcRdpVIWhnuSUG/HpUXr47eUCdsxDyGkOB6g8SLRE
17CUsIbLQRMD1pVVPXLHKMxUXOGY5PTckHPQZsBu0IwG4CoVFqA9pxARGGJrpLde
szRzvbUrKIdUk/dAT937bOd0QI991ls/0ql7LPjpRob6/3npFWCVXE4WVPeZSt+4
Kw98bSV/PMGZCmS3dCQvBSCDhZ2abe9r8L1yab5h3xvwJBBjaji64g4emtt+9rPF
ARSzdAyq1SDokmm0bo/rek+lIRz+3cVPbB0nutyL
-----END CERTIFICATE-----
