Certificate:
    Data:
        Version: 3 (0x2)
        Serial Number:
            38:7e:43:cc:06:ae:b3:6c:b2:52:85:e5:1a:89:a6:dd:a3:bb:68:6b
        Signature Algorithm: sha256WithRSAEncryption
        Issuer: C=NO, O=Nitpicksy, OU=Nitpicksy Certificate Authority, CN=Nitpicksy TLS CA
        Validity
            Not Before: Dec  6 21:59:54 2020 GMT
            Not After : Dec  6 21:59:54 2022 GMT
        Subject: C=NO, O=Nitpicksy, OU=Nitpicksy Certificate Authority, CN=PCC
        Subject Public Key Info:
            Public Key Algorithm: rsaEncryption
                RSA Public-Key: (4096 bit)
                Modulus:
                    00:bc:45:ca:f3:c0:bd:36:da:67:2b:ec:eb:25:da:
                    39:90:a2:28:ad:53:12:ef:45:8a:a9:be:53:40:f8:
                    c2:e3:b3:07:86:c3:6f:8f:56:3f:28:db:a6:b4:00:
                    06:92:b7:83:f8:40:42:3b:ea:c8:b6:d1:8f:6c:0d:
                    d9:07:ce:33:58:80:e4:fa:59:6c:1e:d1:b0:69:dd:
                    b8:49:d4:4b:2b:8e:e8:9c:c8:fb:a1:7e:bc:82:d3:
                    5a:ef:91:3b:89:a2:b1:2e:06:6c:db:07:0b:a9:55:
                    d8:c2:f5:9b:7f:39:9a:7c:77:06:0b:35:e3:83:f4:
                    4d:d0:6d:19:1a:78:7e:d1:d5:3b:3d:d6:bd:09:5e:
                    61:ce:4f:f2:54:82:3b:9d:5f:0b:f9:e1:58:35:d2:
                    f3:46:18:c0:12:eb:ca:b1:df:40:04:24:c1:ab:b5:
                    14:23:79:e0:8b:94:23:26:54:64:2f:9c:06:63:fe:
                    0f:f4:94:03:c0:f7:5d:9a:ad:d6:ad:52:5b:fe:a2:
                    8b:41:0b:b7:0a:41:5a:b5:81:f1:ee:a3:31:3a:02:
                    74:6a:ae:f2:c2:5e:8f:09:68:7d:56:39:78:69:e9:
                    b0:f2:d1:8d:a3:ea:a3:ed:6b:1c:e6:e7:f4:cc:1a:
                    27:0b:6c:4a:49:2c:15:7c:e9:18:13:8d:ba:96:62:
                    d5:b9:d5:87:f0:4e:30:1e:16:e4:77:19:46:3f:62:
                    f6:8c:45:90:da:13:a6:a7:1a:e0:e3:65:b0:00:86:
                    22:bb:c1:66:7d:21:86:a3:35:22:21:85:e4:3b:74:
                    31:57:52:51:eb:c0:be:7b:31:fe:ac:93:89:be:59:
                    97:17:04:e8:68:05:60:79:81:79:20:65:6c:43:d3:
                    8b:04:29:79:07:19:c3:22:9f:f8:b7:9e:d9:46:9c:
                    b7:64:b0:21:92:ab:62:3c:b3:ff:d1:74:35:a6:d7:
                    fa:24:ff:23:9f:e0:b9:5d:18:30:31:d9:b3:5b:2f:
                    1f:a8:52:a0:8e:e6:2c:9d:3b:f4:0d:4d:e3:c2:65:
                    87:da:a4:dc:03:ef:de:22:19:8d:df:5b:6c:19:e2:
                    5a:30:0a:96:80:c2:4c:66:9f:0b:67:05:db:23:b8:
                    d9:e2:26:ce:30:ae:01:17:26:e2:4e:40:9b:4c:a6:
                    a3:d3:a0:e7:1e:0c:17:fc:60:72:fe:59:12:42:76:
                    e4:06:06:6f:c9:b2:4d:ce:a9:48:cd:ab:26:84:90:
                    63:a5:2a:eb:27:53:43:c3:bc:37:4f:60:fe:f6:5d:
                    53:ce:a6:f7:64:bb:cb:99:8f:a6:89:ce:cd:a7:65:
                    53:bb:c6:1b:dc:98:ee:8b:7f:8a:e1:03:ba:d9:e1:
                    b0:36:27
                Exponent: 65537 (0x10001)
        X509v3 extensions:
            X509v3 Key Usage: critical
                Digital Signature, Key Encipherment
            X509v3 Basic Constraints: 
                CA:FALSE
            X509v3 Extended Key Usage: 
                TLS Web Server Authentication, TLS Web Client Authentication
            X509v3 Subject Key Identifier: 
                7A:8B:9C:F8:87:63:CD:D6:1C:C9:93:65:0A:28:08:D2:19:F4:EF:1E
            X509v3 Authority Key Identifier: 
                keyid:F8:9E:02:FC:4A:0D:42:21:E6:18:5C:50:21:68:5A:34:79:23:14:65

            Authority Information Access: 
                CA Issuers - URI:http://nitpicksy.no/ca/tls-ca.cer

            X509v3 CRL Distribution Points: 

                Full Name:
                  URI:http://nitpicksy.no/ca/tls-ca.crl

            X509v3 Subject Alternative Name: 
                DNS:nitpicksy.no, DNS:www.nitpicksy.no, DNS:localhost
    Signature Algorithm: sha256WithRSAEncryption
         7b:c1:d8:8c:43:6f:02:c9:e4:be:0d:82:61:83:d3:1d:55:f3:
         03:20:0d:a0:ff:fc:d9:5a:08:cf:63:cc:57:4d:22:26:04:84:
         68:29:4f:0e:77:78:28:a2:af:11:9d:fd:2b:71:4d:04:81:b8:
         d0:59:d2:20:70:f6:d7:53:8f:01:4d:d8:45:43:28:50:91:34:
         0a:16:f2:2b:4a:a2:27:ae:ae:58:f6:b2:2b:01:c5:ac:c1:33:
         1b:95:32:89:f7:7f:10:3c:40:a3:70:91:73:af:4b:7b:03:a8:
         e4:6a:0c:1b:32:46:fd:be:14:79:0c:18:47:94:ec:12:26:e5:
         82:1a:21:4b:1c:a8:1b:ee:ad:50:43:7e:3f:fd:c7:c8:61:97:
         95:89:70:a8:02:3a:52:84:c6:96:36:a5:eb:7e:00:df:dc:05:
         d9:5e:c4:66:b1:f7:a1:d3:d7:73:3c:5e:6a:c0:6c:54:65:17:
         70:9e:40:02:2b:57:1e:ec:22:63:6c:f2:72:4a:fb:81:d9:15:
         41:29:ca:5c:48:f8:62:d4:1e:0b:9d:32:50:b2:a5:42:d3:86:
         18:ab:d5:4d:70:da:0d:1e:09:c5:8d:8a:0c:b8:b6:5f:85:e8:
         b2:00:e3:19:22:93:5a:ed:0b:a2:83:9e:de:8c:ad:1a:f9:a2:
         51:a2:cf:26:60:8c:0d:dd:1c:42:b3:13:09:ed:3e:7d:a8:71:
         59:26:62:73:b2:49:02:4a:66:9a:fd:34:0f:4e:d0:e7:ef:64:
         8a:13:0e:c8:bc:85:b1:e6:b4:92:d0:e9:fc:c1:c6:89:9b:f7:
         9e:06:bf:56:39:23:87:20:1c:81:83:41:04:29:9a:b4:93:d7:
         72:8a:44:0b:00:aa:9f:52:7f:e0:10:fe:54:60:25:cc:4d:47:
         b9:2d:8e:22:e1:c4:a0:84:8d:dd:ea:4a:05:21:d5:b7:3b:a5:
         e4:95:5c:40:6e:48:4d:20:6e:79:b8:2d:a7:97:0b:1c:54:6c:
         a7:69:c6:5f:71:2f:67:47:dc:85:a7:52:e8:d5:5c:a9:c5:aa:
         b5:3c:27:7f:ea:d5:f5:bd:dd:5e:33:f2:d9:31:58:7b:67:8f:
         d1:88:ea:89:3c:be:fb:92:58:13:6f:d6:53:24:3a:13:3f:57:
         94:7a:e4:e3:9c:94:7e:9c:30:c7:50:56:52:47:d3:12:b6:b8:
         2b:51:90:da:b4:f4:5d:b3:d0:25:50:29:7a:67:1a:1c:ce:9d:
         c6:62:62:2d:4c:49:0c:3b:e4:73:23:56:36:59:23:3e:ed:e4:
         6b:b8:29:43:6b:25:28:61:31:94:70:18:e6:8a:b7:2b:26:08:
         7e:ea:57:f9:7e:7c:94:51
-----BEGIN CERTIFICATE-----
MIIGdjCCBF6gAwIBAgIUOH5DzAaus2yyUoXlGomm3aO7aGswDQYJKoZIhvcNAQEL
BQAwZjELMAkGA1UEBhMCTk8xEjAQBgNVBAoMCU5pdHBpY2tzeTEoMCYGA1UECwwf
Tml0cGlja3N5IENlcnRpZmljYXRlIEF1dGhvcml0eTEZMBcGA1UEAwwQTml0cGlj
a3N5IFRMUyBDQTAeFw0yMDEyMDYyMTU5NTRaFw0yMjEyMDYyMTU5NTRaMFkxCzAJ
BgNVBAYTAk5PMRIwEAYDVQQKDAlOaXRwaWNrc3kxKDAmBgNVBAsMH05pdHBpY2tz
eSBDZXJ0aWZpY2F0ZSBBdXRob3JpdHkxDDAKBgNVBAMMA1BDQzCCAiIwDQYJKoZI
hvcNAQEBBQADggIPADCCAgoCggIBALxFyvPAvTbaZyvs6yXaOZCiKK1TEu9Fiqm+
U0D4wuOzB4bDb49WPyjbprQABpK3g/hAQjvqyLbRj2wN2QfOM1iA5PpZbB7RsGnd
uEnUSyuO6JzI+6F+vILTWu+RO4misS4GbNsHC6lV2ML1m385mnx3Bgs144P0TdBt
GRp4ftHVOz3WvQleYc5P8lSCO51fC/nhWDXS80YYwBLryrHfQAQkwau1FCN54IuU
IyZUZC+cBmP+D/SUA8D3XZqt1q1SW/6ii0ELtwpBWrWB8e6jMToCdGqu8sJejwlo
fVY5eGnpsPLRjaPqo+1rHObn9MwaJwtsSkksFXzpGBONupZi1bnVh/BOMB4W5HcZ
Rj9i9oxFkNoTpqca4ONlsACGIrvBZn0hhqM1IiGF5Dt0MVdSUevAvnsx/qyTib5Z
lxcE6GgFYHmBeSBlbEPTiwQpeQcZwyKf+Lee2Uact2SwIZKrYjyz/9F0NabX+iT/
I5/guV0YMDHZs1svH6hSoI7mLJ079A1N48Jlh9qk3APv3iIZjd9bbBniWjAKloDC
TGafC2cF2yO42eImzjCuARcm4k5Am0ymo9Og5x4MF/xgcv5ZEkJ25AYGb8myTc6p
SM2rJoSQY6Uq6ydTQ8O8N09g/vZdU86m92S7y5mPponOzadlU7vGG9yY7ot/iuED
utnhsDYnAgMBAAGjggEnMIIBIzAOBgNVHQ8BAf8EBAMCBaAwCQYDVR0TBAIwADAd
BgNVHSUEFjAUBggrBgEFBQcDAQYIKwYBBQUHAwIwHQYDVR0OBBYEFHqLnPiHY83W
HMmTZQooCNIZ9O8eMB8GA1UdIwQYMBaAFPieAvxKDUIh5hhcUCFoWjR5IxRlMD0G
CCsGAQUFBwEBBDEwLzAtBggrBgEFBQcwAoYhaHR0cDovL25pdHBpY2tzeS5uby9j
YS90bHMtY2EuY2VyMDIGA1UdHwQrMCkwJ6AloCOGIWh0dHA6Ly9uaXRwaWNrc3ku
bm8vY2EvdGxzLWNhLmNybDA0BgNVHREELTArggxuaXRwaWNrc3kubm+CEHd3dy5u
aXRwaWNrc3kubm+CCWxvY2FsaG9zdDANBgkqhkiG9w0BAQsFAAOCAgEAe8HYjENv
Asnkvg2CYYPTHVXzAyANoP/82VoIz2PMV00iJgSEaClPDnd4KKKvEZ39K3FNBIG4
0FnSIHD211OPAU3YRUMoUJE0ChbyK0qiJ66uWPayKwHFrMEzG5Uyifd/EDxAo3CR
c69LewOo5GoMGzJG/b4UeQwYR5TsEiblghohSxyoG+6tUEN+P/3HyGGXlYlwqAI6
UoTGljal634A39wF2V7EZrH3odPXczxeasBsVGUXcJ5AAitXHuwiY2zyckr7gdkV
QSnKXEj4YtQeC50yULKlQtOGGKvVTXDaDR4JxY2KDLi2X4XosgDjGSKTWu0LooOe
3oytGvmiUaLPJmCMDd0cQrMTCe0+fahxWSZic7JJAkpmmv00D07Q5+9kihMOyLyF
sea0ktDp/MHGiZv3nga/VjkjhyAcgYNBBCmatJPXcopECwCqn1J/4BD+VGAlzE1H
uS2OIuHEoISN3epKBSHVtzul5JVcQG5ITSBuebgtp5cLHFRsp2nGX3EvZ0fchadS
6NVcqcWqtTwnf+rV9b3dXjPy2TFYe2eP0YjqiTy++5JYE2/WUyQ6Ez9XlHrk45yU
fpwwx1BWUkfTEra4K1GQ2rT0XbPQJVApemcaHM6dxmJiLUxJDDvkcyNWNlkjPu3k
a7gpQ2slKGExlHAY5oq3KyYIfupX+X58lFE=
-----END CERTIFICATE-----
