Certificate:
    Data:
        Version: 3 (0x2)
        Serial Number:
            38:e0:29:c8:aa:2b:ac:39:ff:7f:1b:e8:d8:4c:15:8d:f5:27:8f:f0
        Signature Algorithm: sha256WithRSAEncryption
        Issuer: C=NO, O=Nitpicksy, OU=Nitpicksy Certificate Authority, CN=Nitpicksy TLS CA
        Validity
            Not Before: Dec 11 20:36:52 2020 GMT
            Not After : Dec 11 20:36:52 2022 GMT
        Subject: C=NO, O=Nitpicksy, OU=Nitpicksy Certificate Authority, CN=Bitcoin
        Subject Public Key Info:
            Public Key Algorithm: rsaEncryption
                RSA Public-Key: (4096 bit)
                Modulus:
                    00:b7:8d:bf:f2:98:0e:ed:0f:ca:19:b7:ef:9c:42:
                    64:75:4b:37:82:da:bb:6f:a7:96:a4:b3:b9:b0:c5:
                    30:9c:73:d3:35:cb:49:a4:56:dd:14:be:b4:fd:e5:
                    b7:fe:8a:78:59:0e:46:eb:e4:6f:fa:eb:89:68:31:
                    f9:33:8f:42:c8:9a:5a:00:15:27:68:44:d8:be:7c:
                    b0:1d:3f:68:23:a2:45:72:ff:af:d1:2b:f0:a7:2c:
                    cd:35:6b:a6:b5:38:14:88:ba:96:ef:d4:1d:16:62:
                    e5:18:90:a4:f3:22:b0:09:f1:66:71:f9:0e:d8:ee:
                    c4:e3:be:2a:2b:2d:89:f4:17:7d:6d:6f:b5:4f:38:
                    b8:80:8b:d4:6a:e2:10:6a:66:50:70:83:22:75:e6:
                    28:56:2a:9e:cf:15:93:fe:a6:4e:65:b9:f9:fd:1a:
                    8d:32:aa:93:e9:23:70:b5:65:0f:0f:90:f3:12:97:
                    f4:12:69:38:c9:39:6f:bb:b6:41:52:86:c4:e1:54:
                    54:6d:69:bc:fb:dd:b9:64:10:e5:cb:b1:a0:30:5e:
                    c8:27:24:69:7d:6f:c8:04:fa:92:98:c3:75:ef:d1:
                    bd:f7:9a:40:53:7e:d6:2b:d6:90:54:ba:ea:a9:a6:
                    ae:59:7f:22:b4:17:33:de:e6:5e:00:37:02:35:09:
                    a0:65:39:0d:fa:cf:84:da:ba:57:3c:7b:ff:00:57:
                    d1:5c:53:4c:23:bb:26:77:bb:be:13:8a:25:df:0f:
                    3f:7f:8b:f7:fe:8c:e7:8c:cd:69:fe:dd:1f:71:28:
                    50:d5:b4:62:2e:d7:9d:b5:ca:db:5d:f3:09:7e:6c:
                    c4:23:ef:93:71:27:34:46:60:4c:a2:8f:7e:45:26:
                    d6:f2:c9:7e:56:e6:bc:b9:1e:5c:c6:d8:31:81:37:
                    b8:ba:b8:ca:33:3d:d3:54:5f:d7:68:5e:95:06:6e:
                    cc:61:b9:5d:26:46:f9:f1:d7:e5:1a:19:55:39:52:
                    07:b6:a6:34:3e:3e:da:1e:f7:db:8f:84:11:c1:ec:
                    46:c0:7f:97:6b:51:e1:79:a7:03:bf:4e:f3:eb:de:
                    1a:46:dd:62:6a:1c:cb:58:22:f8:00:25:0d:91:16:
                    aa:6f:de:90:57:b3:7d:bc:3b:9e:54:b4:0e:4a:f0:
                    e1:5a:9d:22:b6:d1:92:cc:16:bd:a0:a0:a2:5a:d1:
                    72:83:19:82:6b:54:b4:df:79:cb:06:d9:21:d4:08:
                    2f:25:7d:fd:f7:61:d2:ae:9c:2c:42:62:56:b0:bb:
                    05:04:f0:00:55:11:18:c5:cb:e7:45:71:3b:50:84:
                    7b:f5:1d:e6:94:28:95:6f:3b:17:2c:13:2d:77:fc:
                    d8:fa:2b
                Exponent: 65537 (0x10001)
        X509v3 extensions:
            X509v3 Key Usage: critical
                Digital Signature, Key Encipherment
            X509v3 Basic Constraints: 
                CA:FALSE
            X509v3 Extended Key Usage: 
                TLS Web Server Authentication, TLS Web Client Authentication
            X509v3 Subject Key Identifier: 
                01:7C:39:FF:E1:4A:DB:90:16:23:4E:9E:3E:53:E3:1E:C8:5E:8D:8C
            X509v3 Authority Key Identifier: 
                keyid:CC:B0:B8:BC:D8:35:9B:94:9B:C9:52:8E:84:33:E7:D3:46:B9:14:ED

            Authority Information Access: 
                CA Issuers - URI:http://nitpicksy.no/ca/tls-ca.cer

            X509v3 CRL Distribution Points: 

                Full Name:
                  URI:http://nitpicksy.no/ca/tls-ca.crl

            X509v3 Subject Alternative Name: 
                DNS:nitpicksy.no, DNS:www.nitpicksy.no, DNS:localhost, IP Address:127.0.0.1
    Signature Algorithm: sha256WithRSAEncryption
         31:dc:56:90:05:dc:0b:a7:f6:7f:90:6e:63:8e:be:1d:ca:6e:
         e0:6f:1f:48:30:12:8c:51:0d:68:c0:61:97:40:3b:d1:44:95:
         21:61:77:32:30:95:6a:6c:9d:44:fc:09:e7:fb:ad:ee:40:3a:
         ba:73:70:ef:4f:8b:5c:c2:65:7d:71:ce:bc:84:8f:51:37:a9:
         d0:b4:5e:c5:4c:2f:9b:8a:db:ba:b5:06:5b:d9:56:48:b0:31:
         92:74:95:ee:80:3c:57:16:a7:98:5e:13:06:2d:57:03:20:5e:
         2a:03:ff:d0:03:70:2a:ff:d9:a4:f8:18:b6:fc:80:aa:aa:96:
         74:f2:5a:e6:93:d8:a5:9b:15:78:d7:ab:1e:69:19:61:b5:09:
         a1:dc:d5:7d:4a:7a:fe:11:fa:64:85:15:d0:90:ba:f2:3d:c8:
         31:5c:95:1e:0f:c0:b6:e9:9b:2c:bc:e7:16:29:d2:64:70:39:
         77:d3:f8:1b:30:1f:31:f4:3a:a3:23:ef:31:09:54:71:e2:96:
         0e:5a:05:10:86:8b:41:8a:8b:d0:bd:e2:2f:55:42:35:7e:b9:
         f8:f8:a3:27:d7:00:1c:ba:a4:5e:3e:b4:88:f9:b5:f2:3e:52:
         f2:f7:a0:da:c2:a6:45:3c:88:9e:65:92:f2:40:20:ad:bd:8b:
         f3:8b:61:7e:87:6d:5f:1a:26:6e:98:f8:68:a3:6d:8a:79:8d:
         de:d3:06:a1:20:20:06:7e:e0:3f:f2:4b:2f:c4:60:c2:36:ef:
         ab:68:4d:63:e8:f7:ee:bf:d2:66:ed:89:71:1a:c1:43:eb:1b:
         47:b6:71:66:72:09:2f:da:d0:85:e7:f8:22:56:4a:3f:3e:6c:
         ba:04:67:72:37:2d:26:1d:ea:e1:5f:6e:3a:85:3a:ad:26:ca:
         29:0e:4c:80:a5:76:34:95:a8:22:90:66:16:bd:d5:b8:1a:30:
         a1:7d:4d:6d:9e:53:89:20:be:25:44:a4:18:b9:fe:30:72:a0:
         4b:f5:78:61:bb:66:11:79:6c:d1:9e:74:3a:3e:ee:6f:b6:bf:
         7b:06:08:92:89:d3:a4:5f:06:6e:6b:19:e9:e8:c4:55:3d:04:
         30:2a:eb:e6:db:6c:eb:9e:8c:28:a3:f4:c3:10:c2:ac:88:7f:
         07:b3:36:92:aa:d4:9c:ac:9c:ec:b9:fa:08:82:83:05:35:23:
         6d:6c:c1:fd:3f:24:75:de:37:0e:9f:76:98:69:75:4c:87:eb:
         1f:c2:d9:a5:87:80:1e:c5:5b:80:86:95:04:c8:93:11:04:0b:
         0e:ae:b6:f6:0d:19:f3:f6:d5:b4:cf:1a:28:33:b3:ce:ca:b5:
         e1:01:fa:72:99:28:80:69
-----BEGIN CERTIFICATE-----
MIIGgDCCBGigAwIBAgIUOOApyKorrDn/fxvo2EwVjfUnj/AwDQYJKoZIhvcNAQEL
BQAwZjELMAkGA1UEBhMCTk8xEjAQBgNVBAoMCU5pdHBpY2tzeTEoMCYGA1UECwwf
Tml0cGlja3N5IENlcnRpZmljYXRlIEF1dGhvcml0eTEZMBcGA1UEAwwQTml0cGlj
a3N5IFRMUyBDQTAeFw0yMDEyMTEyMDM2NTJaFw0yMjEyMTEyMDM2NTJaMF0xCzAJ
BgNVBAYTAk5PMRIwEAYDVQQKDAlOaXRwaWNrc3kxKDAmBgNVBAsMH05pdHBpY2tz
eSBDZXJ0aWZpY2F0ZSBBdXRob3JpdHkxEDAOBgNVBAMMB0JpdGNvaW4wggIiMA0G
CSqGSIb3DQEBAQUAA4ICDwAwggIKAoICAQC3jb/ymA7tD8oZt++cQmR1SzeC2rtv
p5aks7mwxTCcc9M1y0mkVt0UvrT95bf+inhZDkbr5G/664loMfkzj0LImloAFSdo
RNi+fLAdP2gjokVy/6/RK/CnLM01a6a1OBSIupbv1B0WYuUYkKTzIrAJ8WZx+Q7Y
7sTjviorLYn0F31tb7VPOLiAi9Rq4hBqZlBwgyJ15ihWKp7PFZP+pk5lufn9Go0y
qpPpI3C1ZQ8PkPMSl/QSaTjJOW+7tkFShsThVFRtabz73blkEOXLsaAwXsgnJGl9
b8gE+pKYw3Xv0b33mkBTftYr1pBUuuqppq5ZfyK0FzPe5l4ANwI1CaBlOQ36z4Ta
ulc8e/8AV9FcU0wjuyZ3u74TiiXfDz9/i/f+jOeMzWn+3R9xKFDVtGIu1521yttd
8wl+bMQj75NxJzRGYEyij35FJtbyyX5W5ry5HlzG2DGBN7i6uMozPdNUX9doXpUG
bsxhuV0mRvnx1+UaGVU5Uge2pjQ+Ptoe99uPhBHB7EbAf5drUeF5pwO/TvPr3hpG
3WJqHMtYIvgAJQ2RFqpv3pBXs328O55UtA5K8OFanSK20ZLMFr2goKJa0XKDGYJr
VLTfecsG2SHUCC8lff33YdKunCxCYlawuwUE8ABVERjFy+dFcTtQhHv1HeaUKJVv
OxcsEy13/Nj6KwIDAQABo4IBLTCCASkwDgYDVR0PAQH/BAQDAgWgMAkGA1UdEwQC
MAAwHQYDVR0lBBYwFAYIKwYBBQUHAwEGCCsGAQUFBwMCMB0GA1UdDgQWBBQBfDn/
4UrbkBYjTp4+U+MeyF6NjDAfBgNVHSMEGDAWgBTMsLi82DWblJvJUo6EM+fTRrkU
7TA9BggrBgEFBQcBAQQxMC8wLQYIKwYBBQUHMAKGIWh0dHA6Ly9uaXRwaWNrc3ku
bm8vY2EvdGxzLWNhLmNlcjAyBgNVHR8EKzApMCegJaAjhiFodHRwOi8vbml0cGlj
a3N5Lm5vL2NhL3Rscy1jYS5jcmwwOgYDVR0RBDMwMYIMbml0cGlja3N5Lm5vghB3
d3cubml0cGlja3N5Lm5vgglsb2NhbGhvc3SHBH8AAAEwDQYJKoZIhvcNAQELBQAD
ggIBADHcVpAF3Aun9n+QbmOOvh3KbuBvH0gwEoxRDWjAYZdAO9FElSFhdzIwlWps
nUT8Cef7re5AOrpzcO9Pi1zCZX1xzryEj1E3qdC0XsVML5uK27q1BlvZVkiwMZJ0
le6APFcWp5heEwYtVwMgXioD/9ADcCr/2aT4GLb8gKqqlnTyWuaT2KWbFXjXqx5p
GWG1CaHc1X1Kev4R+mSFFdCQuvI9yDFclR4PwLbpmyy85xYp0mRwOXfT+BswHzH0
OqMj7zEJVHHilg5aBRCGi0GKi9C94i9VQjV+ufj4oyfXABy6pF4+tIj5tfI+UvL3
oNrCpkU8iJ5lkvJAIK29i/OLYX6HbV8aJm6Y+GijbYp5jd7TBqEgIAZ+4D/ySy/E
YMI276toTWPo9+6/0mbtiXEawUPrG0e2cWZyCS/a0IXn+CJWSj8+bLoEZ3I3LSYd
6uFfbjqFOq0myikOTICldjSVqCKQZha91bgaMKF9TW2eU4kgviVEpBi5/jByoEv1
eGG7ZhF5bNGedDo+7m+2v3sGCJKJ06RfBm5rGenoxFU9BDAq6+bbbOuejCij9MMQ
wqyIfwezNpKq1JysnOy5+giCgwU1I21swf0/JHXeNw6fdphpdUyH6x/C2aWHgB7F
W4CGlQTIkxEECw6utvYNGfP21bTPGigzs87KteEB+nKZKIBp
-----END CERTIFICATE-----
