Certificate:
    Data:
        Version: 3 (0x2)
        Serial Number:
            39:67:c3:bb:93:bb:b6:2b:80:a4:15:56:bb:46:cf:fe:f1:fa:68:95
        Signature Algorithm: sha256WithRSAEncryption
        Issuer: C=NO, O=Nitpicksy, OU=Nitpicksy Certificate Authority, CN=Nitpicksy TLS CA
        Validity
            Not Before: Dec  4 12:02:37 2020 GMT
            Not After : Dec  4 12:02:37 2022 GMT
        Subject: C=NO, O=Nitpicksy, OU=Nitpicksy Certificate Authority, CN=Cloud
        Subject Public Key Info:
            Public Key Algorithm: rsaEncryption
                RSA Public-Key: (4096 bit)
                Modulus:
                    00:b2:bd:7f:0d:c6:a5:9a:2a:a3:bd:72:6f:38:75:
                    5d:b5:ff:f3:3a:07:9b:88:df:49:86:38:f1:a7:62:
                    65:f4:1b:e6:3e:7d:b9:f8:d8:aa:df:74:f6:a2:3a:
                    3e:c8:a5:0a:44:43:38:88:f8:46:18:35:43:f0:e2:
                    ad:95:9f:21:5f:7f:70:21:44:8f:75:a0:13:2a:57:
                    9c:19:3c:14:77:76:6f:8f:72:78:90:01:08:cc:2c:
                    b5:7b:34:dc:7e:55:8c:f0:ba:72:e8:6a:15:a0:79:
                    68:c2:29:a0:84:66:11:68:bc:67:40:ac:29:41:71:
                    d2:0d:a6:56:fc:3c:b8:8a:c5:ff:a8:08:fd:75:0d:
                    e8:a1:fb:87:fb:3d:63:f1:17:f1:b7:fd:d2:c4:9e:
                    89:d4:ef:1a:4e:4b:0b:14:d4:15:5f:6c:32:11:81:
                    ca:a5:c6:71:35:8e:95:f1:ec:2f:b3:ba:4b:a2:bf:
                    d5:9b:04:fc:90:76:88:3a:5c:57:68:e4:72:1b:94:
                    51:21:7b:9d:d1:59:1f:11:a2:1a:3b:26:3e:57:ae:
                    da:7a:04:1d:cf:ea:3e:b8:33:3c:3e:d3:c5:21:93:
                    a5:f1:69:e0:7e:3d:cf:0c:96:da:3c:26:da:0c:a4:
                    34:a3:11:b0:22:41:4c:48:bb:01:70:51:28:7c:e7:
                    0e:cf:b7:e1:e0:9f:7a:98:78:82:a6:f3:94:a9:b9:
                    d8:3b:16:7a:70:d8:48:dd:7a:83:cc:33:8a:32:64:
                    ff:01:ed:f7:d9:c6:78:22:3d:72:5e:57:a1:5b:77:
                    82:90:de:17:65:3a:7c:23:c0:80:21:28:42:81:3c:
                    c9:bd:a0:85:6d:96:1e:86:f6:f6:2c:83:e7:39:6f:
                    83:57:b1:0a:f1:0b:9f:eb:7a:54:af:c8:6f:fe:ca:
                    d1:9e:4e:75:7f:da:bf:6e:99:e1:1e:3e:8a:3f:79:
                    4f:84:76:7e:51:7c:f4:58:fe:1f:24:9b:34:77:f9:
                    4a:f8:97:90:22:0e:c7:0d:b9:06:4b:0c:d4:87:83:
                    e5:65:1f:7e:ab:1a:a1:1a:17:30:d2:9c:f9:72:93:
                    79:7c:a3:af:6c:4c:b4:c1:b0:58:3a:a0:f6:da:45:
                    3b:b2:dc:de:f9:28:db:a4:ca:05:a3:5e:ba:75:21:
                    25:78:a7:19:47:da:94:db:5e:0b:1b:c5:2c:a6:81:
                    d2:07:6b:78:55:bd:df:12:0f:db:48:ce:f9:93:98:
                    79:e2:11:23:71:d8:31:ec:84:d6:43:81:f3:fa:67:
                    99:67:43:08:00:ac:dc:11:3e:7f:b0:1b:19:81:27:
                    e8:21:05:0d:49:a9:2a:b0:08:85:19:a7:e6:91:c9:
                    fa:1d:6f
                Exponent: 65537 (0x10001)
        X509v3 extensions:
            X509v3 Key Usage: critical
                Digital Signature, Key Encipherment
            X509v3 Basic Constraints: 
                CA:FALSE
            X509v3 Extended Key Usage: 
                TLS Web Server Authentication, TLS Web Client Authentication
            X509v3 Subject Key Identifier: 
                1F:D3:6B:67:6C:5D:10:BA:12:E4:05:D7:8E:41:E3:A3:42:97:8C:3D
            X509v3 Authority Key Identifier: 
                keyid:D2:53:26:CF:E6:F6:19:54:29:73:17:A2:0D:1B:AF:E6:C8:8B:AC:46

            Authority Information Access: 
                CA Issuers - URI:http://nitpicksy.no/ca/tls-ca.cer

            X509v3 CRL Distribution Points: 

                Full Name:
                  URI:http://nitpicksy.no/ca/tls-ca.crl

            X509v3 Subject Alternative Name: 
                DNS:nitpicksy.no, DNS:www.nitpicksy.no, DNS:localhost
    Signature Algorithm: sha256WithRSAEncryption
         56:54:a4:0a:54:8c:aa:0c:68:47:1e:43:58:95:dd:1d:55:db:
         07:25:02:82:df:ab:48:a1:83:80:f7:2d:75:00:a1:55:c7:b5:
         2f:3d:bb:f5:ac:66:5f:84:ba:d6:2e:85:64:dc:f8:d7:a0:1f:
         d8:8c:34:35:1e:2c:0c:92:73:5c:7a:c1:6e:d5:88:40:96:8e:
         e9:54:52:ab:bd:19:d8:6c:24:b2:c3:c1:bf:71:74:22:30:27:
         3f:66:35:36:57:ca:be:a6:e3:36:7d:c0:5e:5d:b8:bb:4a:0b:
         34:7c:7d:fe:97:39:67:a8:c2:dc:9d:65:80:9e:2f:cb:8a:4e:
         ec:f0:47:66:54:02:c5:f4:1d:15:24:ef:dd:54:2c:f3:c3:95:
         c4:6c:6b:e7:52:20:d1:7f:f1:e0:2d:94:af:12:ea:95:08:cb:
         fa:48:36:a9:f3:a7:66:6d:4f:35:9a:28:84:83:89:31:14:75:
         7d:52:b3:5d:a3:10:a3:2f:aa:02:5c:e0:2a:dd:91:7f:c3:ae:
         c7:d3:07:37:6f:98:7a:4b:d3:c5:ea:3e:fd:20:3f:73:ac:44:
         1b:38:a1:8e:c6:08:3f:02:f2:f0:b9:34:2b:f5:33:01:fd:23:
         52:ef:b0:9f:70:e7:bb:fb:9b:94:c6:be:66:11:f0:1a:18:3e:
         6e:a5:30:45:ff:14:3a:e5:4a:a0:62:4c:82:c3:60:c5:54:8b:
         5f:42:9a:ea:e5:d2:61:a8:03:8d:50:40:eb:5e:a1:a2:a6:64:
         af:5c:61:d1:ed:0c:d2:e1:b0:dd:cf:e5:e5:b1:49:64:9b:66:
         a1:d6:26:01:8e:f6:3f:03:4e:d7:67:21:7e:06:df:cb:22:1e:
         ab:d5:b6:d6:bb:86:37:87:22:8e:42:78:03:df:c2:49:8d:b4:
         b3:f6:b3:c4:71:b7:44:9c:ca:1c:9e:38:1e:91:61:a0:06:07:
         9c:3d:15:f2:04:f6:fe:87:08:9a:00:e1:3f:43:7a:c0:e8:cd:
         8d:22:5e:b8:24:f3:ac:50:e5:bd:69:f1:e3:c2:59:14:17:d4:
         0c:f5:4e:cb:0b:0d:9b:3e:ab:73:f8:26:6d:81:82:d4:4e:0b:
         0b:ff:87:67:b5:be:f0:2d:3e:b9:ba:ec:fe:38:cb:30:8e:69:
         b8:e9:ba:b5:0d:b0:6e:62:43:d1:b0:bf:3a:d2:28:c1:2d:cd:
         8d:21:9b:6f:1c:86:a9:c9:7b:05:3a:b5:48:df:5f:5c:47:9d:
         73:e4:93:b1:b5:0f:02:b5:f5:16:94:dd:06:39:83:79:f8:f6:
         ca:99:b0:3d:ed:07:5e:d0:f6:90:ba:c4:0a:d0:cb:f2:9b:d3:
         26:c9:6d:aa:d9:2d:c7:d4
-----BEGIN CERTIFICATE-----
MIIGeDCCBGCgAwIBAgIUOWfDu5O7tiuApBVWu0bP/vH6aJUwDQYJKoZIhvcNAQEL
BQAwZjELMAkGA1UEBhMCTk8xEjAQBgNVBAoMCU5pdHBpY2tzeTEoMCYGA1UECwwf
Tml0cGlja3N5IENlcnRpZmljYXRlIEF1dGhvcml0eTEZMBcGA1UEAwwQTml0cGlj
a3N5IFRMUyBDQTAeFw0yMDEyMDQxMjAyMzdaFw0yMjEyMDQxMjAyMzdaMFsxCzAJ
BgNVBAYTAk5PMRIwEAYDVQQKDAlOaXRwaWNrc3kxKDAmBgNVBAsMH05pdHBpY2tz
eSBDZXJ0aWZpY2F0ZSBBdXRob3JpdHkxDjAMBgNVBAMMBUNsb3VkMIICIjANBgkq
hkiG9w0BAQEFAAOCAg8AMIICCgKCAgEAsr1/DcalmiqjvXJvOHVdtf/zOgebiN9J
hjjxp2Jl9BvmPn25+Niq33T2ojo+yKUKREM4iPhGGDVD8OKtlZ8hX39wIUSPdaAT
KlecGTwUd3Zvj3J4kAEIzCy1ezTcflWM8Lpy6GoVoHlowimghGYRaLxnQKwpQXHS
DaZW/Dy4isX/qAj9dQ3oofuH+z1j8Rfxt/3SxJ6J1O8aTksLFNQVX2wyEYHKpcZx
NY6V8ewvs7pLor/VmwT8kHaIOlxXaORyG5RRIXud0VkfEaIaOyY+V67aegQdz+o+
uDM8PtPFIZOl8Wngfj3PDJbaPCbaDKQ0oxGwIkFMSLsBcFEofOcOz7fh4J96mHiC
pvOUqbnYOxZ6cNhI3XqDzDOKMmT/Ae332cZ4Ij1yXlehW3eCkN4XZTp8I8CAIShC
gTzJvaCFbZYehvb2LIPnOW+DV7EK8Quf63pUr8hv/srRnk51f9q/bpnhHj6KP3lP
hHZ+UXz0WP4fJJs0d/lK+JeQIg7HDbkGSwzUh4PlZR9+qxqhGhcw0pz5cpN5fKOv
bEy0wbBYOqD22kU7stze+SjbpMoFo166dSEleKcZR9qU214LG8UspoHSB2t4Vb3f
Eg/bSM75k5h54hEjcdgx7ITWQ4Hz+meZZ0MIAKzcET5/sBsZgSfoIQUNSakqsAiF
Gafmkcn6HW8CAwEAAaOCAScwggEjMA4GA1UdDwEB/wQEAwIFoDAJBgNVHRMEAjAA
MB0GA1UdJQQWMBQGCCsGAQUFBwMBBggrBgEFBQcDAjAdBgNVHQ4EFgQUH9NrZ2xd
ELoS5AXXjkHjo0KXjD0wHwYDVR0jBBgwFoAU0lMmz+b2GVQpcxeiDRuv5siLrEYw
PQYIKwYBBQUHAQEEMTAvMC0GCCsGAQUFBzAChiFodHRwOi8vbml0cGlja3N5Lm5v
L2NhL3Rscy1jYS5jZXIwMgYDVR0fBCswKTAnoCWgI4YhaHR0cDovL25pdHBpY2tz
eS5uby9jYS90bHMtY2EuY3JsMDQGA1UdEQQtMCuCDG5pdHBpY2tzeS5ub4IQd3d3
Lm5pdHBpY2tzeS5ub4IJbG9jYWxob3N0MA0GCSqGSIb3DQEBCwUAA4ICAQBWVKQK
VIyqDGhHHkNYld0dVdsHJQKC36tIoYOA9y11AKFVx7UvPbv1rGZfhLrWLoVk3PjX
oB/YjDQ1HiwMknNcesFu1YhAlo7pVFKrvRnYbCSyw8G/cXQiMCc/ZjU2V8q+puM2
fcBeXbi7Sgs0fH3+lzlnqMLcnWWAni/Lik7s8EdmVALF9B0VJO/dVCzzw5XEbGvn
UiDRf/HgLZSvEuqVCMv6SDap86dmbU81miiEg4kxFHV9UrNdoxCjL6oCXOAq3ZF/
w67H0wc3b5h6S9PF6j79ID9zrEQbOKGOxgg/AvLwuTQr9TMB/SNS77CfcOe7+5uU
xr5mEfAaGD5upTBF/xQ65UqgYkyCw2DFVItfQprq5dJhqAONUEDrXqGipmSvXGHR
7QzS4bDdz+XlsUlkm2ah1iYBjvY/A07XZyF+Bt/LIh6r1bbWu4Y3hyKOQngD38JJ
jbSz9rPEcbdEnMocnjgekWGgBgecPRXyBPb+hwiaAOE/Q3rA6M2NIl64JPOsUOW9
afHjwlkUF9QM9U7LCw2bPqtz+CZtgYLUTgsL/4dntb7wLT65uuz+OMswjmm46bq1
DbBuYkPRsL860ijBLc2NIZtvHIapyXsFOrVI319cR51z5JOxtQ8CtfUWlN0GOYN5
+PbKmbA97Qde0PaQusQK0Mvym9MmyW2q2S3H1A==
-----END CERTIFICATE-----
