Certificate:
    Data:
        Version: 3 (0x2)
        Serial Number:
            3a:46:82:d7:bf:b2:b5:22:26:d8:42:d8:80:91:9f:4a:b6:d9:e0:c1
        Signature Algorithm: sha256WithRSAEncryption
        Issuer: C=NO, O=Nitpicksy, OU=Nitpicksy Certificate Authority, CN=Nitpicksy TLS CA
        Validity
            Not Before: Dec 11 23:35:54 2020 GMT
            Not After : Dec 11 23:35:54 2022 GMT
        Subject: C=NO, O=Nitpicksy, OU=Nitpicksy Certificate Authority, CN=Cloud
        Subject Public Key Info:
            Public Key Algorithm: rsaEncryption
                RSA Public-Key: (4096 bit)
                Modulus:
                    00:be:07:36:48:c2:73:75:71:0b:1e:ae:72:1e:0f:
                    e9:32:4e:1f:95:ba:d4:22:c5:47:93:31:a9:a8:c5:
                    78:5d:b3:72:20:02:b3:8e:8a:01:97:77:2c:ab:fb:
                    61:cf:c4:9e:db:4d:ba:7b:59:d0:60:46:6b:a7:55:
                    71:92:75:1f:3d:1f:f5:d1:b8:5b:ba:51:19:5e:2d:
                    c8:38:bf:fb:7f:e6:40:3f:8a:48:90:6c:2d:d1:ff:
                    4d:b5:be:75:2e:81:0f:9d:6b:22:44:0d:e3:5e:75:
                    aa:42:63:a5:8e:55:90:a0:5e:ac:75:ae:4f:88:b4:
                    d8:36:48:05:ed:f8:46:96:50:ab:a3:0a:e2:28:92:
                    f8:8a:8f:50:5b:54:54:3a:5f:a9:bb:96:14:ea:f8:
                    14:1e:08:81:1d:72:4b:49:4c:33:9f:17:f6:2c:36:
                    cb:9d:9b:56:8a:1c:82:4e:45:e5:44:37:44:04:04:
                    5e:c0:3a:f3:75:cd:bb:30:49:fb:c4:a8:8c:fc:1d:
                    b1:cf:bd:a2:16:6f:26:ee:6c:6e:bb:5d:7b:f4:64:
                    34:05:c0:3e:da:68:10:7a:dd:02:e5:08:ea:65:5e:
                    fd:81:b8:32:91:97:7f:b2:60:1f:1b:3d:17:53:46:
                    ed:51:04:d6:31:8f:c0:8b:c0:72:46:b6:31:04:1a:
                    7d:77:3c:00:93:cf:42:f5:6f:97:9e:5d:f1:c9:51:
                    80:57:7c:5a:20:04:02:fb:3b:f7:21:9b:27:e0:77:
                    59:e0:13:5e:76:6c:c3:c7:14:c2:ca:f7:7b:81:30:
                    37:9f:4e:d3:ad:73:b0:38:74:73:3c:61:8f:65:94:
                    95:72:4c:c2:11:4f:7b:59:36:5d:0a:d8:bc:01:3f:
                    3f:31:30:35:5c:39:2b:3e:99:5d:38:03:ff:e9:d1:
                    a2:90:14:0e:a0:0f:32:aa:95:ec:42:e2:db:3f:58:
                    63:ae:81:fb:3a:18:39:e1:22:2f:66:93:89:52:00:
                    b4:79:8e:84:e5:ed:9a:12:ab:ea:80:25:ae:82:42:
                    67:c1:9b:13:d2:d0:cf:f8:82:e4:d8:04:dd:b6:f8:
                    2e:2c:59:88:d9:33:38:89:f7:bf:94:42:b9:4f:b9:
                    c6:c5:e6:7f:01:b9:48:80:ff:a3:64:7d:b4:51:20:
                    c2:31:9c:43:8b:15:59:06:9d:88:64:57:50:0d:f4:
                    6e:ac:5e:4c:c0:36:1b:91:fd:20:ed:e5:47:a2:a1:
                    dc:6e:ef:c3:ee:95:23:46:dc:93:7e:79:20:da:e8:
                    a5:4e:81:0e:fc:32:bf:61:a8:4e:65:7e:75:4e:5c:
                    9b:f4:94:cb:eb:d5:ab:7d:de:ca:8a:93:31:20:86:
                    ab:1d:f3
                Exponent: 65537 (0x10001)
        X509v3 extensions:
            X509v3 Key Usage: critical
                Digital Signature, Key Encipherment
            X509v3 Basic Constraints: 
                CA:FALSE
            X509v3 Extended Key Usage: 
                TLS Web Server Authentication, TLS Web Client Authentication
            X509v3 Subject Key Identifier: 
                43:99:69:16:3D:48:D2:7C:1B:1C:B5:0F:33:67:90:50:78:79:9F:2D
            X509v3 Authority Key Identifier: 
                keyid:99:B8:0A:C6:F9:8F:63:32:21:3F:40:58:30:B1:09:38:21:F0:EA:62

            Authority Information Access: 
                CA Issuers - URI:http://nitpicksy.no/ca/tls-ca.cer

            X509v3 CRL Distribution Points: 

                Full Name:
                  URI:http://nitpicksy.no/ca/tls-ca.crl

            X509v3 Subject Alternative Name: 
                DNS:nitpicksy.no, DNS:www.nitpicksy.no, DNS:localhost, IP Address:127.0.0.1
    Signature Algorithm: sha256WithRSAEncryption
         d2:2e:03:85:b3:d8:a7:15:2c:a0:1b:9d:21:79:64:24:c1:c0:
         9c:95:a0:5a:aa:72:32:65:0a:55:59:ef:8a:37:81:ff:87:91:
         8e:fb:49:22:db:7f:a4:01:d4:6e:74:27:ee:66:64:1c:5d:20:
         80:7e:ea:1e:d1:5f:de:fd:91:9c:88:7b:43:67:43:d9:2f:c9:
         9c:23:36:fb:2c:ff:94:80:1e:7a:ed:55:64:c9:a4:86:61:7b:
         54:9c:cd:2f:9d:9a:00:ad:eb:05:87:5a:dd:19:24:90:14:a3:
         0a:d7:f3:f5:9a:02:05:35:43:88:71:30:c9:42:24:41:99:44:
         f1:17:f5:e6:32:36:9f:39:ce:93:38:62:d5:ef:de:1c:c5:cc:
         db:45:73:6d:a1:75:2c:fc:fd:b5:e6:43:a9:df:df:29:17:a8:
         c2:ef:24:74:64:21:69:c9:29:38:f8:77:d6:d1:9d:9a:44:dc:
         c1:c4:44:cd:b6:25:65:7e:ed:9f:a9:97:2c:9d:fb:ed:dd:ea:
         c5:cb:ab:e2:04:b5:c5:5f:68:73:14:28:d0:29:00:d6:32:f1:
         77:a3:74:95:3e:34:99:0a:59:c7:6c:58:f5:52:7b:44:1c:d6:
         46:ea:5c:9b:46:a7:dc:7e:fc:ce:91:04:26:6e:cb:ed:d1:55:
         30:38:70:76:d8:68:81:b8:64:d8:0d:36:8e:04:5a:de:ed:2c:
         db:dd:c4:9a:a0:25:6e:71:da:16:53:72:c0:18:4e:c0:3d:b7:
         9a:87:f7:4d:8b:b2:90:8c:c0:d4:1d:bd:d3:23:58:15:f8:2d:
         c4:60:1c:87:07:82:d1:a5:b4:e8:f5:74:8c:c6:ff:a3:0e:0c:
         c7:e9:2d:20:5b:7a:73:74:0b:26:72:ce:7b:72:70:38:50:fa:
         6e:44:93:09:e8:7b:16:27:fc:11:f0:f3:91:e9:72:7b:05:6a:
         0b:5f:0a:f9:4b:0e:80:35:fa:d5:27:71:0c:ee:a1:5a:c8:31:
         9e:7d:ae:6a:d0:14:95:4f:52:34:ac:ce:a2:0f:61:40:db:c1:
         14:15:e6:e9:09:16:ad:e8:a3:35:61:c5:f4:8b:f1:5b:2e:89:
         4d:58:14:5a:d2:a6:07:72:d5:e4:f4:7a:5a:a1:55:83:d3:49:
         74:48:18:ad:a0:a3:33:b5:6e:20:eb:fb:da:dd:b8:dd:c6:42:
         c5:f4:6e:89:fa:1f:d3:51:c6:81:c9:72:8c:c0:2f:1b:61:8f:
         46:1c:c6:1d:a6:86:1f:76:50:d9:2a:e8:29:33:83:4e:f0:db:
         6b:f5:18:d0:e2:d4:80:94:26:93:98:13:60:22:86:1c:bc:e4:
         b3:3e:57:4d:b5:7f:e3:e0
-----BEGIN CERTIFICATE-----
MIIGfjCCBGagAwIBAgIUOkaC17+ytSIm2ELYgJGfSrbZ4MEwDQYJKoZIhvcNAQEL
BQAwZjELMAkGA1UEBhMCTk8xEjAQBgNVBAoMCU5pdHBpY2tzeTEoMCYGA1UECwwf
Tml0cGlja3N5IENlcnRpZmljYXRlIEF1dGhvcml0eTEZMBcGA1UEAwwQTml0cGlj
a3N5IFRMUyBDQTAeFw0yMDEyMTEyMzM1NTRaFw0yMjEyMTEyMzM1NTRaMFsxCzAJ
BgNVBAYTAk5PMRIwEAYDVQQKDAlOaXRwaWNrc3kxKDAmBgNVBAsMH05pdHBpY2tz
eSBDZXJ0aWZpY2F0ZSBBdXRob3JpdHkxDjAMBgNVBAMMBUNsb3VkMIICIjANBgkq
hkiG9w0BAQEFAAOCAg8AMIICCgKCAgEAvgc2SMJzdXELHq5yHg/pMk4flbrUIsVH
kzGpqMV4XbNyIAKzjooBl3csq/thz8Se2026e1nQYEZrp1VxknUfPR/10bhbulEZ
Xi3IOL/7f+ZAP4pIkGwt0f9Ntb51LoEPnWsiRA3jXnWqQmOljlWQoF6sda5PiLTY
NkgF7fhGllCrowriKJL4io9QW1RUOl+pu5YU6vgUHgiBHXJLSUwznxf2LDbLnZtW
ihyCTkXlRDdEBARewDrzdc27MEn7xKiM/B2xz72iFm8m7mxuu1179GQ0BcA+2mgQ
et0C5QjqZV79gbgykZd/smAfGz0XU0btUQTWMY/Ai8ByRrYxBBp9dzwAk89C9W+X
nl3xyVGAV3xaIAQC+zv3IZsn4HdZ4BNedmzDxxTCyvd7gTA3n07TrXOwOHRzPGGP
ZZSVckzCEU97WTZdCti8AT8/MTA1XDkrPpldOAP/6dGikBQOoA8yqpXsQuLbP1hj
roH7Ohg54SIvZpOJUgC0eY6E5e2aEqvqgCWugkJnwZsT0tDP+ILk2ATdtvguLFmI
2TM4ife/lEK5T7nGxeZ/AblIgP+jZH20USDCMZxDixVZBp2IZFdQDfRurF5MwDYb
kf0g7eVHoqHcbu/D7pUjRtyTfnkg2uilToEO/DK/YahOZX51Tlyb9JTL69Wrfd7K
ipMxIIarHfMCAwEAAaOCAS0wggEpMA4GA1UdDwEB/wQEAwIFoDAJBgNVHRMEAjAA
MB0GA1UdJQQWMBQGCCsGAQUFBwMBBggrBgEFBQcDAjAdBgNVHQ4EFgQUQ5lpFj1I
0nwbHLUPM2eQUHh5ny0wHwYDVR0jBBgwFoAUmbgKxvmPYzIhP0BYMLEJOCHw6mIw
PQYIKwYBBQUHAQEEMTAvMC0GCCsGAQUFBzAChiFodHRwOi8vbml0cGlja3N5Lm5v
L2NhL3Rscy1jYS5jZXIwMgYDVR0fBCswKTAnoCWgI4YhaHR0cDovL25pdHBpY2tz
eS5uby9jYS90bHMtY2EuY3JsMDoGA1UdEQQzMDGCDG5pdHBpY2tzeS5ub4IQd3d3
Lm5pdHBpY2tzeS5ub4IJbG9jYWxob3N0hwR/AAABMA0GCSqGSIb3DQEBCwUAA4IC
AQDSLgOFs9inFSygG50heWQkwcCclaBaqnIyZQpVWe+KN4H/h5GO+0ki23+kAdRu
dCfuZmQcXSCAfuoe0V/e/ZGciHtDZ0PZL8mcIzb7LP+UgB567VVkyaSGYXtUnM0v
nZoAresFh1rdGSSQFKMK1/P1mgIFNUOIcTDJQiRBmUTxF/XmMjafOc6TOGLV794c
xczbRXNtoXUs/P215kOp398pF6jC7yR0ZCFpySk4+HfW0Z2aRNzBxETNtiVlfu2f
qZcsnfvt3erFy6viBLXFX2hzFCjQKQDWMvF3o3SVPjSZClnHbFj1UntEHNZG6lyb
RqfcfvzOkQQmbsvt0VUwOHB22GiBuGTYDTaOBFre7Szb3cSaoCVucdoWU3LAGE7A
Pbeah/dNi7KQjMDUHb3TI1gV+C3EYByHB4LRpbTo9XSMxv+jDgzH6S0gW3pzdAsm
cs57cnA4UPpuRJMJ6HsWJ/wR8POR6XJ7BWoLXwr5Sw6ANfrVJ3EM7qFayDGefa5q
0BSVT1I0rM6iD2FA28EUFebpCRat6KM1YcX0i/FbLolNWBRa0qYHctXk9HpaoVWD
00l0SBitoKMztW4g6/va3bjdxkLF9G6J+h/TUcaByXKMwC8bYY9GHMYdpoYfdlDZ
KugpM4NO8Ntr9RjQ4tSAlCaTmBNgIoYcvOSzPldNtX/j4A==
-----END CERTIFICATE-----
