Certificate:
    Data:
        Version: 3 (0x2)
        Serial Number:
            3e:d6:82:ba:e2:79:cb:2f:81:1a:bc:4b:3e:a7:4e:fb:cc:21:74:70
        Signature Algorithm: sha256WithRSAEncryption
        Issuer: C=NO, O=Nitpicksy, OU=Nitpicksy Certificate Authority, CN=Nitpicksy TLS CA
        Validity
            Not Before: Dec  6 21:52:33 2020 GMT
            Not After : Dec  6 21:52:33 2022 GMT
        Subject: C=NO, O=Nitpicksy, OU=Nitpicksy Certificate Authority, CN=Payment Gateway
        Subject Public Key Info:
            Public Key Algorithm: rsaEncryption
                RSA Public-Key: (4096 bit)
                Modulus:
                    00:c1:16:4e:c1:9f:4b:d3:fa:0a:d4:10:07:74:e0:
                    a2:9c:39:08:34:ce:b2:1b:e1:01:91:65:09:29:8f:
                    3e:45:f6:48:1f:e7:e2:c1:29:37:c5:3b:00:a8:a3:
                    de:f7:5a:c2:24:1b:e7:c9:49:a7:66:1a:9e:13:77:
                    82:b1:d9:07:14:7f:2a:cb:6a:81:fa:96:6c:67:68:
                    31:7b:2b:3e:ea:6d:22:73:12:a0:88:4c:8f:53:71:
                    52:27:f2:fd:2f:d0:dd:19:22:6d:12:bf:68:d3:9f:
                    f9:34:35:0d:81:56:4f:4f:7d:fe:91:ce:41:50:5b:
                    ce:a7:17:8d:94:6e:b4:c9:cc:bc:0f:b1:86:05:73:
                    ad:1b:4d:f4:8f:da:e5:cb:d6:cc:df:43:f2:e8:3d:
                    98:25:43:36:f6:de:13:7a:52:a6:1c:78:6b:1f:47:
                    47:46:ca:85:1f:37:d3:90:84:56:3c:18:95:c5:ff:
                    a3:af:c4:7d:32:da:0b:6e:41:f4:be:e6:ee:d6:fd:
                    80:77:da:52:2d:35:47:3b:c2:f1:60:7d:77:b3:6a:
                    71:67:94:64:4c:c1:ac:cf:22:c0:46:c1:c4:c2:f3:
                    eb:a3:0c:ce:6f:97:00:9d:b1:e9:ab:8a:2f:57:09:
                    25:83:4a:b2:2a:77:a8:a0:25:c1:4b:df:f9:5e:04:
                    cd:5f:9b:82:ef:a1:4c:45:c9:26:5a:c0:cc:ce:69:
                    a1:76:01:2d:1d:a0:e5:ab:8d:50:69:0c:c0:8a:86:
                    69:27:f6:76:27:f8:ed:c2:e5:20:39:38:d2:46:41:
                    97:a2:6b:c7:d0:9d:c8:d8:33:f2:98:7f:36:f5:14:
                    c3:18:75:10:10:e8:b9:51:93:8e:e3:a6:f7:96:62:
                    39:19:ad:c6:0b:96:4d:77:2f:b5:a4:7b:86:e2:c9:
                    b8:68:37:16:8f:82:b3:a7:8d:67:15:cd:23:bc:2f:
                    01:00:75:01:7a:b8:2e:4d:ac:11:4b:33:8a:26:47:
                    79:db:50:b8:b1:fd:c0:ba:d5:66:25:f0:c6:9b:b9:
                    d2:e8:ff:c6:8d:64:96:a9:1a:11:28:ef:57:a1:8d:
                    e8:b2:c8:a4:a7:b2:cc:c9:a0:91:b4:c2:db:6e:46:
                    b6:fd:38:7c:2a:10:58:1a:43:db:09:b2:71:f2:3a:
                    ae:51:f6:c4:00:68:f2:22:aa:ed:72:98:8b:df:a3:
                    7d:28:b5:31:d8:f3:23:98:9a:e9:48:af:d6:a1:e3:
                    c1:ab:2e:6f:8e:46:ef:c0:70:19:c2:87:01:7e:d4:
                    dc:2d:34:18:6a:33:64:97:f5:c9:94:d2:87:6e:bb:
                    28:ed:62:ba:1b:82:3f:9c:dd:57:71:38:8e:90:4e:
                    e9:c7:41
                Exponent: 65537 (0x10001)
        X509v3 extensions:
            X509v3 Key Usage: critical
                Digital Signature, Key Encipherment
            X509v3 Basic Constraints: 
                CA:FALSE
            X509v3 Extended Key Usage: 
                TLS Web Server Authentication, TLS Web Client Authentication
            X509v3 Subject Key Identifier: 
                97:17:0D:3F:DA:65:8F:C5:21:60:EF:CC:B5:DE:E6:52:34:82:69:D9
            X509v3 Authority Key Identifier: 
                keyid:D7:D7:89:7B:D0:D8:5C:D5:C9:27:4E:98:7C:EE:76:73:F6:EB:7E:DB

            Authority Information Access: 
                CA Issuers - URI:http://nitpicksy.no/ca/tls-ca.cer

            X509v3 CRL Distribution Points: 

                Full Name:
                  URI:http://nitpicksy.no/ca/tls-ca.crl

            X509v3 Subject Alternative Name: 
                DNS:nitpicksy.no, DNS:www.nitpicksy.no, DNS:localhost
    Signature Algorithm: sha256WithRSAEncryption
         9e:46:1f:85:4d:7b:ec:65:e6:ce:07:87:d6:ef:1e:67:c7:3d:
         73:45:37:7b:9f:65:cb:8b:ab:1b:c3:5d:55:21:8e:e7:33:cc:
         37:c3:e2:5d:62:27:4f:18:1d:0e:1f:63:d8:f9:44:55:f3:a5:
         b0:2c:eb:f0:2b:7d:6a:88:ca:5a:d4:4f:68:d7:83:97:75:8b:
         96:66:f3:f7:85:a4:6d:66:ab:42:f0:ef:72:e7:84:4a:a3:85:
         3a:87:85:8f:44:af:22:0e:3b:78:e8:bf:c3:a6:57:d5:81:44:
         7d:b8:20:d9:31:83:2c:b7:59:36:a9:0a:6e:fc:ba:ca:c6:4d:
         7d:73:28:4f:18:84:a7:3c:2f:c2:d7:91:5a:fa:ab:28:dd:35:
         d2:1c:07:3b:5d:a8:fa:c6:24:84:bf:c9:6f:90:29:55:c1:3e:
         f1:1e:85:6b:67:53:e0:94:25:f2:e4:33:5f:16:2b:f8:d7:7e:
         db:01:c7:35:db:e4:dd:14:e9:a2:a3:eb:0f:c2:90:66:7c:78:
         72:9c:18:6f:79:cc:f4:01:2d:a6:af:21:88:e0:cf:d9:ae:a8:
         cc:cb:73:75:3c:0e:9d:7c:8d:78:bc:dc:c7:85:82:79:24:db:
         18:aa:fd:21:81:24:7b:3b:09:71:fa:9b:4a:e7:c9:b1:bd:33:
         0e:a5:2d:c7:38:7f:ce:aa:93:7b:69:8d:cd:d3:55:55:5f:c8:
         cb:1f:86:25:b0:5c:fb:cd:18:d0:10:09:0d:50:d3:d5:1d:3d:
         d9:11:88:82:90:d9:7f:6d:4c:6b:bc:96:35:45:2c:4e:5a:5c:
         43:5e:5d:e0:a4:fc:98:d8:9c:a5:d4:21:4b:d8:cb:1d:be:4e:
         51:7a:86:84:3b:df:87:d1:ad:14:09:ac:dd:21:af:51:a2:68:
         48:38:45:73:0f:c7:17:03:4f:49:9f:a1:40:73:b5:52:c2:9c:
         74:68:d6:c8:0e:ca:7d:12:18:53:6c:a8:0a:a8:7d:82:8c:39:
         a6:33:c3:94:d4:98:48:9d:43:94:88:6e:87:4e:4f:6a:c8:4d:
         6c:c8:11:9a:cd:7d:dd:7c:ff:54:3c:c3:70:fc:cc:30:54:ce:
         e0:a8:df:3b:e9:64:6a:61:ac:c1:c6:7d:0d:6b:90:25:05:9c:
         49:47:f6:51:47:ce:b7:f7:f2:c4:c5:44:46:97:f3:bd:b7:1b:
         e8:67:f3:e4:c4:1f:49:2b:bb:38:30:fc:85:29:13:1b:44:82:
         e5:15:6e:8b:41:fa:aa:33:bc:0d:00:10:cd:ca:77:f1:fc:e8:
         a8:9b:9b:bd:1a:18:92:8c:81:53:6e:e9:a7:27:82:f5:66:03:
         f0:56:88:51:fa:51:f8:13
-----BEGIN CERTIFICATE-----
MIIGgjCCBGqgAwIBAgIUPtaCuuJ5yy+BGrxLPqdO+8whdHAwDQYJKoZIhvcNAQEL
BQAwZjELMAkGA1UEBhMCTk8xEjAQBgNVBAoMCU5pdHBpY2tzeTEoMCYGA1UECwwf
Tml0cGlja3N5IENlcnRpZmljYXRlIEF1dGhvcml0eTEZMBcGA1UEAwwQTml0cGlj
a3N5IFRMUyBDQTAeFw0yMDEyMDYyMTUyMzNaFw0yMjEyMDYyMTUyMzNaMGUxCzAJ
BgNVBAYTAk5PMRIwEAYDVQQKDAlOaXRwaWNrc3kxKDAmBgNVBAsMH05pdHBpY2tz
eSBDZXJ0aWZpY2F0ZSBBdXRob3JpdHkxGDAWBgNVBAMMD1BheW1lbnQgR2F0ZXdh
eTCCAiIwDQYJKoZIhvcNAQEBBQADggIPADCCAgoCggIBAMEWTsGfS9P6CtQQB3Tg
opw5CDTOshvhAZFlCSmPPkX2SB/n4sEpN8U7AKij3vdawiQb58lJp2YanhN3grHZ
BxR/KstqgfqWbGdoMXsrPuptInMSoIhMj1NxUify/S/Q3RkibRK/aNOf+TQ1DYFW
T099/pHOQVBbzqcXjZRutMnMvA+xhgVzrRtN9I/a5cvWzN9D8ug9mCVDNvbeE3pS
phx4ax9HR0bKhR8305CEVjwYlcX/o6/EfTLaC25B9L7m7tb9gHfaUi01RzvC8WB9
d7NqcWeUZEzBrM8iwEbBxMLz66MMzm+XAJ2x6auKL1cJJYNKsip3qKAlwUvf+V4E
zV+bgu+hTEXJJlrAzM5poXYBLR2g5auNUGkMwIqGaSf2dif47cLlIDk40kZBl6Jr
x9CdyNgz8ph/NvUUwxh1EBDouVGTjuOm95ZiORmtxguWTXcvtaR7huLJuGg3Fo+C
s6eNZxXNI7wvAQB1AXq4Lk2sEUsziiZHedtQuLH9wLrVZiXwxpu50uj/xo1klqka
ESjvV6GN6LLIpKeyzMmgkbTC225Gtv04fCoQWBpD2wmycfI6rlH2xABo8iKq7XKY
i9+jfSi1MdjzI5ia6Uiv1qHjwasub45G78BwGcKHAX7U3C00GGozZJf1yZTSh267
KO1iuhuCP5zdV3E4jpBO6cdBAgMBAAGjggEnMIIBIzAOBgNVHQ8BAf8EBAMCBaAw
CQYDVR0TBAIwADAdBgNVHSUEFjAUBggrBgEFBQcDAQYIKwYBBQUHAwIwHQYDVR0O
BBYEFJcXDT/aZY/FIWDvzLXe5lI0gmnZMB8GA1UdIwQYMBaAFNfXiXvQ2FzVySdO
mHzudnP2637bMD0GCCsGAQUFBwEBBDEwLzAtBggrBgEFBQcwAoYhaHR0cDovL25p
dHBpY2tzeS5uby9jYS90bHMtY2EuY2VyMDIGA1UdHwQrMCkwJ6AloCOGIWh0dHA6
Ly9uaXRwaWNrc3kubm8vY2EvdGxzLWNhLmNybDA0BgNVHREELTArggxuaXRwaWNr
c3kubm+CEHd3dy5uaXRwaWNrc3kubm+CCWxvY2FsaG9zdDANBgkqhkiG9w0BAQsF
AAOCAgEAnkYfhU177GXmzgeH1u8eZ8c9c0U3e59ly4urG8NdVSGO5zPMN8PiXWIn
TxgdDh9j2PlEVfOlsCzr8Ct9aojKWtRPaNeDl3WLlmbz94WkbWarQvDvcueESqOF
OoeFj0SvIg47eOi/w6ZX1YFEfbgg2TGDLLdZNqkKbvy6ysZNfXMoTxiEpzwvwteR
WvqrKN010hwHO12o+sYkhL/Jb5ApVcE+8R6Fa2dT4JQl8uQzXxYr+Nd+2wHHNdvk
3RTpoqPrD8KQZnx4cpwYb3nM9AEtpq8hiODP2a6ozMtzdTwOnXyNeLzcx4WCeSTb
GKr9IYEkezsJcfqbSufJsb0zDqUtxzh/zqqTe2mNzdNVVV/Iyx+GJbBc+80Y0BAJ
DVDT1R092RGIgpDZf21Ma7yWNUUsTlpcQ15d4KT8mNicpdQhS9jLHb5OUXqGhDvf
h9GtFAms3SGvUaJoSDhFcw/HFwNPSZ+hQHO1UsKcdGjWyA7KfRIYU2yoCqh9gow5
pjPDlNSYSJ1DlIhuh05PashNbMgRms193Xz/VDzDcPzMMFTO4KjfO+lkamGswcZ9
DWuQJQWcSUf2UUfOt/fyxMVERpfzvbcb6Gfz5MQfSSu7ODD8hSkTG0SC5RVui0H6
qjO8DQAQzcp38fzoqJubvRoYkoyBU27ppyeC9WYD8FaIUfpR+BM=
-----END CERTIFICATE-----
