Certificate:
    Data:
        Version: 3 (0x2)
        Serial Number:
            42:43:b9:0e:c7:d9:6e:cf:0a:2c:dc:16:7c:06:18:71:24:9e:fd:42
        Signature Algorithm: sha256WithRSAEncryption
        Issuer: C=NO, O=Nitpicksy, OU=Nitpicksy Certificate Authority, CN=Nitpicksy TLS CA
        Validity
            Not Before: Dec  6 21:51:57 2020 GMT
            Not After : Dec  6 21:51:57 2022 GMT
        Subject: C=NO, O=Nitpicksy, OU=Nitpicksy Certificate Authority, CN=zuul
        Subject Public Key Info:
            Public Key Algorithm: rsaEncryption
                RSA Public-Key: (4096 bit)
                Modulus:
                    00:af:7e:dd:32:12:7e:6b:d1:7c:c4:66:de:a0:25:
                    b3:42:a9:81:9a:4f:93:de:16:83:64:02:91:e9:40:
                    2b:42:4f:5d:de:25:0d:3a:95:24:43:ed:cf:5a:1d:
                    12:a4:f6:16:04:25:23:c3:fa:d4:41:f5:ff:81:85:
                    66:0f:40:13:92:7b:9f:19:7e:79:f0:ac:f1:58:1c:
                    fa:37:3a:13:db:95:83:c4:b0:6e:cf:6a:b3:0c:2c:
                    2b:ba:4e:92:2d:93:23:08:52:3f:26:ff:c7:34:cd:
                    ac:45:5b:68:07:9a:5a:93:2b:07:b3:2a:5e:df:32:
                    f4:56:28:76:f3:d9:3a:c8:7c:f6:a2:85:2b:88:d3:
                    4a:c0:cb:d2:bb:17:19:03:85:2c:2c:44:de:eb:8a:
                    f7:1c:35:95:11:08:92:83:c0:2f:63:af:b8:b6:ae:
                    28:78:7c:05:b7:07:54:f7:4b:a7:49:16:4e:dd:26:
                    1c:4a:de:3f:90:e7:92:67:3b:3b:15:c9:63:17:d1:
                    77:7d:a2:0c:36:2e:ca:43:b2:32:02:2f:05:4a:d0:
                    b9:58:11:ba:d8:26:70:70:91:8e:a0:32:a3:59:18:
                    98:09:27:31:fd:83:5a:b5:35:1f:f1:f1:31:1b:30:
                    aa:f1:ab:49:6f:52:e0:ab:1d:cc:c4:7c:11:f8:11:
                    e3:8c:6e:7e:89:e1:d7:a1:2e:0b:5c:7b:29:de:6d:
                    b5:34:73:73:e8:b2:dd:dc:a2:7e:ce:fb:3a:a6:e7:
                    fd:58:a0:16:64:2b:40:54:e3:98:b0:e7:57:d2:78:
                    2d:04:d2:34:27:4a:e7:d0:f4:a7:10:b8:aa:6b:5f:
                    84:4f:53:9b:19:a2:13:8d:a2:4d:cc:da:89:5e:6e:
                    f9:92:97:ac:8e:c7:9a:f3:b4:6f:56:f9:e2:c4:d5:
                    22:27:af:a2:e2:39:14:0a:d5:fa:c1:8d:92:1a:cd:
                    7c:fc:1c:ef:10:f7:fe:c5:7f:35:38:5a:56:73:df:
                    6c:95:45:0a:01:01:b6:74:d9:7d:01:4b:3a:71:ce:
                    89:35:87:60:4e:13:dc:f9:db:e4:bc:1e:7a:0d:44:
                    f6:35:b2:7a:66:b9:93:aa:50:10:98:c0:cc:87:c7:
                    20:67:7f:79:12:ba:3b:d7:95:f6:d1:b7:18:e2:04:
                    e3:05:30:ca:92:38:86:0d:f5:2f:42:1c:96:23:32:
                    f0:f0:2f:0d:7a:2c:9b:68:1e:ce:6e:51:82:1d:d3:
                    f5:44:69:bb:ee:c7:55:6a:5e:a7:31:16:b4:82:00:
                    40:ff:d7:08:d1:ef:a8:2b:80:5f:f3:05:de:be:73:
                    0a:3c:34:ef:ec:a5:69:01:87:4d:be:7f:a3:c1:03:
                    7c:46:47
                Exponent: 65537 (0x10001)
        X509v3 extensions:
            X509v3 Key Usage: critical
                Digital Signature, Key Encipherment
            X509v3 Basic Constraints: 
                CA:FALSE
            X509v3 Extended Key Usage: 
                TLS Web Server Authentication, TLS Web Client Authentication
            X509v3 Subject Key Identifier: 
                68:42:31:6A:66:5F:33:0F:25:B3:E2:37:00:3C:02:AA:7A:8C:85:76
            X509v3 Authority Key Identifier: 
                keyid:20:BF:F7:C1:E5:9F:2D:61:99:7C:FA:1C:22:0D:11:35:06:9D:C9:5C

            Authority Information Access: 
                CA Issuers - URI:http://nitpicksy.no/ca/tls-ca.cer

            X509v3 CRL Distribution Points: 

                Full Name:
                  URI:http://nitpicksy.no/ca/tls-ca.crl

            X509v3 Subject Alternative Name: 
                DNS:nitpicksy.no, DNS:www.nitpicksy.no, DNS:localhost
    Signature Algorithm: sha256WithRSAEncryption
         34:30:d6:d0:bc:07:ff:cc:2c:71:47:da:4a:62:50:c1:c7:74:
         fa:21:78:2e:3b:d6:e5:61:51:57:5d:ee:0d:dd:58:cf:5b:76:
         f2:3b:bd:51:20:91:b7:4d:a2:74:87:4c:a0:a1:24:69:05:13:
         89:7d:89:62:1f:de:20:df:08:9b:28:a7:b4:e4:b9:22:6b:05:
         80:11:1d:6f:c6:81:6f:d6:e5:ed:50:e8:3f:2a:7d:fb:ff:83:
         ae:ff:c9:62:04:a5:28:b9:a5:86:ab:fd:27:70:26:cd:a3:b5:
         a5:8e:fe:36:a4:b1:88:13:3b:98:43:77:e8:5e:6a:8a:74:72:
         26:2f:2b:95:55:35:6e:cd:96:7e:48:2f:3c:e4:c4:b0:ea:7c:
         1d:24:32:7e:71:dd:74:08:ae:39:46:27:3d:1c:5c:eb:53:2c:
         f5:de:24:ec:17:d4:34:43:7b:fb:29:53:a8:da:8e:c5:41:da:
         88:5e:b0:a8:08:6b:6a:d7:f1:7e:7d:b2:08:48:b2:c5:74:fd:
         d5:cf:ac:0d:30:73:e6:e0:bd:ee:93:3e:ae:e4:bf:07:08:d3:
         fc:ca:e4:ec:08:c2:02:37:44:e8:0b:81:32:ab:aa:0c:14:40:
         8f:b7:a6:c0:91:44:76:d5:4a:dd:60:6c:2a:da:36:e7:8f:2b:
         b9:3b:3c:a7:6b:da:75:c8:ce:b0:2e:55:da:8d:3b:0e:e4:24:
         6b:b8:8a:65:b7:6f:bd:e9:e0:94:70:83:7f:2c:d5:f8:65:44:
         08:c5:91:08:1a:e5:c9:20:b2:92:ce:ca:76:78:b7:c8:f0:23:
         52:dd:3e:c8:2c:b7:ff:37:6e:0f:b8:32:89:df:5a:2f:9b:52:
         0a:7b:59:27:5d:5b:73:64:68:76:b1:7f:49:78:cb:0f:43:f3:
         a2:8e:18:d0:ed:f0:91:d3:2a:0b:62:b8:99:dc:9a:c4:e6:36:
         d2:21:35:87:31:da:61:04:ac:64:9b:2a:6a:df:bd:24:0c:9d:
         42:2c:a1:90:ef:0e:c4:b1:8b:c3:ec:03:aa:e6:64:00:3c:fc:
         03:3a:ec:01:1c:b1:7e:ef:53:aa:a8:cf:c8:e4:30:26:08:8e:
         b0:96:94:62:7d:2f:2d:64:96:31:a1:2f:b9:97:2c:2d:5b:de:
         68:84:71:0f:ba:4c:0c:64:46:b1:ce:59:39:dc:1a:4c:c1:42:
         e9:5b:c9:07:7a:34:e2:30:e2:3b:1d:2b:79:9c:ac:7a:18:e7:
         ff:b6:8e:94:48:1f:42:00:7a:69:9a:eb:0c:11:ee:39:81:ed:
         77:ed:5b:9c:f5:dd:fd:3b:77:f2:69:68:98:0e:39:9f:c8:00:
         93:73:19:37:61:80:5d:c3
-----BEGIN CERTIFICATE-----
MIIGdzCCBF+gAwIBAgIUQkO5DsfZbs8KLNwWfAYYcSSe/UIwDQYJKoZIhvcNAQEL
BQAwZjELMAkGA1UEBhMCTk8xEjAQBgNVBAoMCU5pdHBpY2tzeTEoMCYGA1UECwwf
Tml0cGlja3N5IENlcnRpZmljYXRlIEF1dGhvcml0eTEZMBcGA1UEAwwQTml0cGlj
a3N5IFRMUyBDQTAeFw0yMDEyMDYyMTUxNTdaFw0yMjEyMDYyMTUxNTdaMFoxCzAJ
BgNVBAYTAk5PMRIwEAYDVQQKDAlOaXRwaWNrc3kxKDAmBgNVBAsMH05pdHBpY2tz
eSBDZXJ0aWZpY2F0ZSBBdXRob3JpdHkxDTALBgNVBAMMBHp1dWwwggIiMA0GCSqG
SIb3DQEBAQUAA4ICDwAwggIKAoICAQCvft0yEn5r0XzEZt6gJbNCqYGaT5PeFoNk
ApHpQCtCT13eJQ06lSRD7c9aHRKk9hYEJSPD+tRB9f+BhWYPQBOSe58ZfnnwrPFY
HPo3OhPblYPEsG7ParMMLCu6TpItkyMIUj8m/8c0zaxFW2gHmlqTKwezKl7fMvRW
KHbz2TrIfPaihSuI00rAy9K7FxkDhSwsRN7rivccNZURCJKDwC9jr7i2rih4fAW3
B1T3S6dJFk7dJhxK3j+Q55JnOzsVyWMX0Xd9ogw2LspDsjICLwVK0LlYEbrYJnBw
kY6gMqNZGJgJJzH9g1q1NR/x8TEbMKrxq0lvUuCrHczEfBH4EeOMbn6J4dehLgtc
eynebbU0c3Post3con7O+zqm5/1YoBZkK0BU45iw51fSeC0E0jQnSufQ9KcQuKpr
X4RPU5sZohONok3M2olebvmSl6yOx5rztG9W+eLE1SInr6LiORQK1frBjZIazXz8
HO8Q9/7FfzU4WlZz32yVRQoBAbZ02X0BSzpxzok1h2BOE9z52+S8HnoNRPY1snpm
uZOqUBCYwMyHxyBnf3kSujvXlfbRtxjiBOMFMMqSOIYN9S9CHJYjMvDwLw16LJto
Hs5uUYId0/VEabvux1VqXqcxFrSCAED/1wjR76grgF/zBd6+cwo8NO/spWkBh02+
f6PBA3xGRwIDAQABo4IBJzCCASMwDgYDVR0PAQH/BAQDAgWgMAkGA1UdEwQCMAAw
HQYDVR0lBBYwFAYIKwYBBQUHAwEGCCsGAQUFBwMCMB0GA1UdDgQWBBRoQjFqZl8z
DyWz4jcAPAKqeoyFdjAfBgNVHSMEGDAWgBQgv/fB5Z8tYZl8+hwiDRE1Bp3JXDA9
BggrBgEFBQcBAQQxMC8wLQYIKwYBBQUHMAKGIWh0dHA6Ly9uaXRwaWNrc3kubm8v
Y2EvdGxzLWNhLmNlcjAyBgNVHR8EKzApMCegJaAjhiFodHRwOi8vbml0cGlja3N5
Lm5vL2NhL3Rscy1jYS5jcmwwNAYDVR0RBC0wK4IMbml0cGlja3N5Lm5vghB3d3cu
bml0cGlja3N5Lm5vgglsb2NhbGhvc3QwDQYJKoZIhvcNAQELBQADggIBADQw1tC8
B//MLHFH2kpiUMHHdPoheC471uVhUVdd7g3dWM9bdvI7vVEgkbdNonSHTKChJGkF
E4l9iWIf3iDfCJsop7TkuSJrBYARHW/GgW/W5e1Q6D8qffv/g67/yWIEpSi5pYar
/SdwJs2jtaWO/jaksYgTO5hDd+heaop0ciYvK5VVNW7Nln5ILzzkxLDqfB0kMn5x
3XQIrjlGJz0cXOtTLPXeJOwX1DRDe/spU6jajsVB2ohesKgIa2rX8X59sghIssV0
/dXPrA0wc+bgve6TPq7kvwcI0/zK5OwIwgI3ROgLgTKrqgwUQI+3psCRRHbVSt1g
bCraNuePK7k7PKdr2nXIzrAuVdqNOw7kJGu4imW3b73p4JRwg38s1fhlRAjFkQga
5ckgspLOynZ4t8jwI1LdPsgst/83bg+4MonfWi+bUgp7WSddW3NkaHaxf0l4yw9D
86KOGNDt8JHTKgtiuJncmsTmNtIhNYcx2mEErGSbKmrfvSQMnUIsoZDvDsSxi8Ps
A6rmZAA8/AM67AEcsX7vU6qoz8jkMCYIjrCWlGJ9Ly1kljGhL7mXLC1b3miEcQ+6
TAxkRrHOWTncGkzBQulbyQd6NOIw4jsdK3mcrHoY5/+2jpRIH0IAemma6wwR7jmB
7XftW5z13f07d/JpaJgOOZ/IAJNzGTdhgF3D
-----END CERTIFICATE-----
