Certificate:
    Data:
        Version: 3 (0x2)
        Serial Number:
            46:87:6f:52:e1:9a:a2:bf:03:29:a0:96:57:2a:88:51:0f:a8:8a:c8
        Signature Algorithm: sha256WithRSAEncryption
        Issuer: C=NO, O=Nitpicksy, OU=Nitpicksy Certificate Authority, CN=Nitpicksy TLS CA
        Validity
            Not Before: Dec 11 23:35:51 2020 GMT
            Not After : Dec 11 23:35:51 2022 GMT
        Subject: C=NO, O=Nitpicksy Client AS, OU=Nitpicksy Certificate Authority, CN=Nitpicksy Client
        Subject Public Key Info:
            Public Key Algorithm: rsaEncryption
                RSA Public-Key: (4096 bit)
                Modulus:
                    00:d5:71:7e:2f:55:cf:a0:e5:2d:4c:83:a7:ad:cf:
                    ff:4f:a3:a6:7f:09:e1:33:d4:62:71:9a:35:70:c2:
                    bb:db:95:37:b6:71:6e:a5:80:3b:36:60:46:0f:ae:
                    24:4d:3e:ae:ea:4a:6c:72:9c:e4:83:a3:1f:a5:da:
                    0a:6c:df:17:e0:34:c6:75:f5:78:29:a6:8c:f7:f5:
                    8a:56:66:e8:8a:ba:d2:9a:05:58:62:82:a2:96:a7:
                    26:f1:e4:a8:92:d7:54:a5:dd:be:2e:51:71:fc:ac:
                    08:33:51:63:53:41:f5:ec:3f:70:da:5f:8a:e3:1e:
                    cd:7b:ce:f4:31:8d:f7:41:a8:d4:e7:b7:57:8f:70:
                    b5:c7:83:13:f8:45:0e:63:ec:04:79:7d:ea:75:9e:
                    30:da:3a:bd:52:87:3b:e6:83:9c:da:7a:a6:2c:05:
                    63:01:df:a8:aa:3d:d1:7b:b2:9f:b0:fa:9b:51:c6:
                    c7:c6:78:08:2d:6c:79:7b:16:0a:8d:e2:4d:d8:30:
                    51:1b:1a:18:c5:90:f8:1e:01:f3:1b:a6:44:e5:53:
                    9a:1a:06:d8:37:97:06:d3:71:d9:f8:0f:c8:ce:bb:
                    b6:86:c7:f1:cb:98:19:f3:7f:95:24:b3:db:c5:eb:
                    e2:55:8b:0a:2b:19:bd:2b:16:cb:f6:63:d7:2f:a1:
                    d1:37:bc:29:3b:80:df:7f:8e:c4:63:a7:d9:3a:82:
                    00:f3:ec:69:09:05:28:39:5c:b6:0e:f6:89:e2:1f:
                    a8:67:89:39:c0:ec:69:0b:c0:78:8e:25:b6:cc:38:
                    af:5e:2e:c1:3a:4c:3c:e7:96:1c:e5:ed:a0:53:8c:
                    6d:f9:e4:0f:af:b2:13:f7:cd:56:8b:6b:c8:06:50:
                    98:98:d7:71:18:d6:b5:75:a4:e0:63:9e:8c:f0:1e:
                    f5:ca:ec:16:c5:77:00:c4:2e:0e:94:16:b8:7d:43:
                    85:09:1a:08:69:e1:b1:2c:af:97:90:06:02:89:d0:
                    f8:24:b2:6f:b6:67:38:48:a0:e4:59:6d:95:62:a6:
                    ba:10:fd:30:2d:bc:d1:a1:7e:80:e5:e9:3b:8c:72:
                    0f:e9:b7:bc:8b:ca:a0:0b:aa:27:49:1a:51:e0:31:
                    be:b2:06:4b:9d:03:fe:65:ac:ad:00:cf:3a:d2:f9:
                    c5:df:96:0a:d2:bb:9b:5e:f9:cf:7c:8a:30:87:17:
                    b8:d0:be:13:ea:c8:09:62:6e:2c:0b:a5:48:06:49:
                    ec:34:46:0c:21:73:17:e6:9a:18:f7:68:ce:c3:c3:
                    09:e8:68:24:0f:ec:2e:b1:1a:7b:eb:fe:6f:03:6d:
                    9a:12:66:10:3e:21:ba:07:9d:98:40:66:e2:69:1f:
                    76:33:e3
                Exponent: 65537 (0x10001)
        X509v3 extensions:
            X509v3 Key Usage: critical
                Digital Signature
            X509v3 Basic Constraints: 
                CA:FALSE
            X509v3 Extended Key Usage: 
                TLS Web Client Authentication
            X509v3 Subject Key Identifier: 
                30:C5:01:FD:69:9C:DF:61:F6:48:22:82:51:9D:1C:DE:3E:AF:16:90
            X509v3 Authority Key Identifier: 
                keyid:99:B8:0A:C6:F9:8F:63:32:21:3F:40:58:30:B1:09:38:21:F0:EA:62

            Authority Information Access: 
                CA Issuers - URI:http://nitpicksy.no/ca/tls-ca.cer

            X509v3 CRL Distribution Points: 

                Full Name:
                  URI:http://nitpicksy.no/ca/tls-ca.crl

    Signature Algorithm: sha256WithRSAEncryption
         cb:e2:eb:1e:7a:a0:9c:a4:97:6f:e8:8d:d5:90:77:54:c4:23:
         d2:39:1a:0c:b5:3b:1c:45:a8:04:bd:ca:e6:48:81:d4:5b:5c:
         84:60:9c:76:4a:da:71:7b:ac:8b:b1:6f:49:75:e8:83:8f:0c:
         d3:f2:60:54:42:f6:2f:b9:0a:c7:31:7f:3d:51:92:aa:08:39:
         a5:99:c9:0d:03:d9:6c:ac:a6:ff:17:32:85:54:f6:7a:d2:c4:
         53:a1:7d:b1:7c:c6:f7:70:67:a6:eb:ea:7e:4f:c5:1a:4b:6c:
         b1:0f:b7:5f:1b:6d:eb:3b:05:53:57:bc:a3:eb:c4:81:c8:7c:
         db:52:20:7f:ef:a6:e1:a6:fb:aa:30:45:32:e0:32:09:81:3f:
         e5:8a:49:1e:62:1c:cf:16:cc:e4:96:a2:57:0f:0d:75:5a:58:
         ce:33:28:9d:7e:50:64:7f:e8:5b:35:84:ad:5f:c1:60:39:7f:
         e4:34:25:fb:6c:e7:e6:fe:56:2a:b6:5f:df:ae:3a:fe:cc:ab:
         e4:a9:fb:00:57:7e:12:d6:bb:0b:0c:b5:30:54:64:a0:17:5e:
         65:53:a8:e1:2d:1d:4d:c0:59:6d:65:a8:a6:7e:3e:62:e9:94:
         2a:54:78:e7:d5:51:15:93:70:d2:5f:78:c1:3c:83:ed:33:a6:
         a4:3b:4a:46:01:ed:c1:64:ca:d4:56:01:ff:b8:bb:74:4b:6e:
         7d:dc:96:a4:6f:e8:df:aa:65:0c:23:2d:46:dc:3c:75:04:3a:
         c5:50:b1:75:dc:05:06:9a:e4:90:4e:8f:e6:80:d0:59:1e:97:
         d8:07:00:55:58:63:ce:0b:30:40:ee:a8:15:80:a3:c4:e5:b8:
         54:19:fe:76:bc:51:e5:ab:07:64:7e:29:31:bc:3e:4e:85:74:
         43:e6:99:fd:43:a8:62:c1:d0:72:f5:cb:a3:93:c3:88:9e:53:
         0f:ed:18:05:dc:20:c3:c1:82:77:2a:b4:17:85:1b:6d:7d:43:
         46:b3:ce:6d:c0:45:a5:37:79:9e:02:66:b4:8c:f5:bb:6c:c7:
         90:8b:19:81:d5:aa:58:9d:24:68:94:27:9a:71:f4:be:4b:dc:
         75:fc:37:6b:bb:02:b8:2e:6b:a0:82:8b:ee:47:32:6d:dd:6a:
         0c:14:04:cb:e3:50:4c:ce:b7:5a:2e:71:88:c3:cb:6b:56:b7:
         24:f1:a8:f6:ca:7f:7b:8d:10:dd:33:f6:0e:f1:40:50:69:bd:
         1b:6b:55:a1:c1:bc:e5:f6:c4:0b:94:69:43:1e:28:bd:99:1c:
         16:e7:08:8b:36:aa:54:45:d8:22:98:82:d9:2f:32:c5:94:b9:
         72:c6:79:20:e9:66:f8:d8
-----BEGIN CERTIFICATE-----
MIIGSzCCBDOgAwIBAgIURodvUuGaor8DKaCWVyqIUQ+oisgwDQYJKoZIhvcNAQEL
BQAwZjELMAkGA1UEBhMCTk8xEjAQBgNVBAoMCU5pdHBpY2tzeTEoMCYGA1UECwwf
Tml0cGlja3N5IENlcnRpZmljYXRlIEF1dGhvcml0eTEZMBcGA1UEAwwQTml0cGlj
a3N5IFRMUyBDQTAeFw0yMDEyMTEyMzM1NTFaFw0yMjEyMTEyMzM1NTFaMHAxCzAJ
BgNVBAYTAk5PMRwwGgYDVQQKDBNOaXRwaWNrc3kgQ2xpZW50IEFTMSgwJgYDVQQL
DB9OaXRwaWNrc3kgQ2VydGlmaWNhdGUgQXV0aG9yaXR5MRkwFwYDVQQDDBBOaXRw
aWNrc3kgQ2xpZW50MIICIjANBgkqhkiG9w0BAQEFAAOCAg8AMIICCgKCAgEA1XF+
L1XPoOUtTIOnrc//T6OmfwnhM9RicZo1cMK725U3tnFupYA7NmBGD64kTT6u6kps
cpzkg6MfpdoKbN8X4DTGdfV4KaaM9/WKVmboirrSmgVYYoKilqcm8eSoktdUpd2+
LlFx/KwIM1FjU0H17D9w2l+K4x7Ne870MY33QajU57dXj3C1x4MT+EUOY+wEeX3q
dZ4w2jq9Uoc75oOc2nqmLAVjAd+oqj3Re7KfsPqbUcbHxngILWx5exYKjeJN2DBR
GxoYxZD4HgHzG6ZE5VOaGgbYN5cG03HZ+A/Izru2hsfxy5gZ83+VJLPbxeviVYsK
Kxm9KxbL9mPXL6HRN7wpO4Dff47EY6fZOoIA8+xpCQUoOVy2DvaJ4h+oZ4k5wOxp
C8B4jiW2zDivXi7BOkw855Yc5e2gU4xt+eQPr7IT981Wi2vIBlCYmNdxGNa1daTg
Y56M8B71yuwWxXcAxC4OlBa4fUOFCRoIaeGxLK+XkAYCidD4JLJvtmc4SKDkWW2V
Yqa6EP0wLbzRoX6A5ek7jHIP6be8i8qgC6onSRpR4DG+sgZLnQP+ZaytAM860vnF
35YK0rubXvnPfIowhxe40L4T6sgJYm4sC6VIBknsNEYMIXMX5poY92jOw8MJ6Ggk
D+wusRp76/5vA22aEmYQPiG6B52YQGbiaR92M+MCAwEAAaOB5jCB4zAOBgNVHQ8B
Af8EBAMCB4AwCQYDVR0TBAIwADATBgNVHSUEDDAKBggrBgEFBQcDAjAdBgNVHQ4E
FgQUMMUB/Wmc32H2SCKCUZ0c3j6vFpAwHwYDVR0jBBgwFoAUmbgKxvmPYzIhP0BY
MLEJOCHw6mIwPQYIKwYBBQUHAQEEMTAvMC0GCCsGAQUFBzAChiFodHRwOi8vbml0
cGlja3N5Lm5vL2NhL3Rscy1jYS5jZXIwMgYDVR0fBCswKTAnoCWgI4YhaHR0cDov
L25pdHBpY2tzeS5uby9jYS90bHMtY2EuY3JsMA0GCSqGSIb3DQEBCwUAA4ICAQDL
4useeqCcpJdv6I3VkHdUxCPSORoMtTscRagEvcrmSIHUW1yEYJx2Stpxe6yLsW9J
deiDjwzT8mBUQvYvuQrHMX89UZKqCDmlmckNA9lsrKb/FzKFVPZ60sRToX2xfMb3
cGem6+p+T8UaS2yxD7dfG23rOwVTV7yj68SByHzbUiB/76bhpvuqMEUy4DIJgT/l
ikkeYhzPFszklqJXDw11WljOMyidflBkf+hbNYStX8FgOX/kNCX7bOfm/lYqtl/f
rjr+zKvkqfsAV34S1rsLDLUwVGSgF15lU6jhLR1NwFltZaimfj5i6ZQqVHjn1VEV
k3DSX3jBPIPtM6akO0pGAe3BZMrUVgH/uLt0S2593Jakb+jfqmUMIy1G3Dx1BDrF
ULF13AUGmuSQTo/mgNBZHpfYBwBVWGPOCzBA7qgVgKPE5bhUGf52vFHlqwdkfikx
vD5OhXRD5pn9Q6hiwdBy9cujk8OInlMP7RgF3CDDwYJ3KrQXhRttfUNGs85twEWl
N3meAma0jPW7bMeQixmB1apYnSRolCeacfS+S9x1/DdruwK4LmuggovuRzJt3WoM
FATL41BMzrdaLnGIw8trVrck8aj2yn97jRDdM/YO8UBQab0ba1Whwbzl9sQLlGlD
Hii9mRwW5wiLNqpURdgimILZLzLFlLlyxnkg6Wb42A==
-----END CERTIFICATE-----
