Certificate:
    Data:
        Version: 3 (0x2)
        Serial Number:
            47:05:ee:7a:38:81:be:20:51:d3:5a:40:75:33:f1:7b:4e:e8:c3:23
        Signature Algorithm: sha256WithRSAEncryption
        Issuer: C=NO, O=Nitpicksy, OU=Nitpicksy Certificate Authority, CN=Nitpicksy TLS CA
        Validity
            Not Before: Dec  6 22:08:25 2020 GMT
            Not After : Dec  6 22:08:25 2022 GMT
        Subject: C=NO, O=Nitpicksy, OU=Nitpicksy Certificate Authority, CN=PCC
        Subject Public Key Info:
            Public Key Algorithm: rsaEncryption
                RSA Public-Key: (4096 bit)
                Modulus:
                    00:ca:ce:a3:20:b1:c4:2a:99:2e:a4:8a:87:c6:6d:
                    2a:c7:d3:e7:05:5e:b4:a0:73:ad:5d:7c:9f:73:ce:
                    ff:dd:fa:5d:e5:c3:52:bf:02:20:fe:1c:ca:c6:43:
                    b8:8c:22:f3:34:b6:f7:5a:47:9e:db:c6:c6:b3:5d:
                    23:b9:61:ed:1f:65:84:2e:b7:04:de:cf:f1:d9:0c:
                    f2:a9:2b:fc:8e:eb:9d:27:f2:73:61:14:22:5c:6c:
                    ec:b4:e4:7a:e9:b8:5d:f5:67:ad:4e:3e:71:0f:56:
                    df:3d:8a:79:d3:a4:61:c7:25:7d:6a:9e:fd:72:8a:
                    63:64:87:18:67:19:d5:b8:dc:5d:0e:b9:c5:21:1a:
                    2d:04:7e:24:9e:24:95:0f:4d:2f:67:df:ac:e3:c6:
                    19:1f:cd:b3:41:a5:1a:cc:08:87:eb:64:cd:39:77:
                    e0:11:2a:e4:22:a7:15:d9:12:60:d2:38:ec:87:bb:
                    a2:92:3e:20:00:cf:f5:e3:e1:ed:9f:fa:86:0a:75:
                    37:74:7a:71:ff:a0:45:de:38:64:1e:64:0e:cf:2d:
                    58:8e:02:62:9c:33:0d:12:52:80:c4:60:13:95:a9:
                    8f:3a:eb:4e:04:e4:7b:ef:8e:38:c5:7e:54:e8:ee:
                    8e:77:c3:bb:6f:f6:60:10:4e:29:46:a8:d1:2f:46:
                    50:59:84:63:13:22:4d:d6:fd:cf:27:0f:28:6b:a5:
                    65:e2:61:c8:22:80:26:ce:21:f8:e4:41:0e:ac:9c:
                    69:9f:a8:e0:5f:05:51:55:a3:d9:2e:e4:44:17:4d:
                    15:a2:38:70:06:00:72:17:79:3e:42:27:14:a0:34:
                    9c:9a:8d:72:94:6f:3c:22:fc:e1:f6:40:92:6e:28:
                    63:02:c2:73:95:9f:cc:e0:a6:d6:ca:12:ca:9d:9b:
                    95:9c:d5:69:44:e1:af:1d:38:50:09:05:08:c1:f6:
                    21:fe:d7:e3:f7:14:4e:24:24:8b:e3:09:60:3d:eb:
                    21:6c:55:e6:9c:28:0f:69:ce:ad:e6:de:16:ee:5b:
                    f0:9b:54:73:86:29:28:18:10:3b:89:b7:f1:21:96:
                    85:4b:69:f2:97:8c:48:4d:bd:be:41:4c:56:a9:f6:
                    8d:bf:9a:34:55:ff:94:2a:67:9d:0b:b8:0e:37:9e:
                    a8:74:6f:24:0f:67:13:04:6f:e1:13:94:2b:24:46:
                    73:a2:c2:a3:6e:5b:12:bb:2b:0e:1a:34:4c:ab:b2:
                    7b:e6:02:94:05:52:99:36:b6:4b:d1:87:1e:d1:70:
                    73:cb:8f:1d:86:57:fd:ba:85:4c:97:2b:44:9e:01:
                    2e:b6:21:26:dc:e8:7c:d9:04:de:24:17:cc:1f:42:
                    c3:3f:e5
                Exponent: 65537 (0x10001)
        X509v3 extensions:
            X509v3 Key Usage: critical
                Digital Signature, Key Encipherment
            X509v3 Basic Constraints: 
                CA:FALSE
            X509v3 Extended Key Usage: 
                TLS Web Server Authentication, TLS Web Client Authentication
            X509v3 Subject Key Identifier: 
                4E:28:D6:16:E9:5C:40:1B:8F:86:3F:16:E0:30:F4:0A:BE:A3:08:64
            X509v3 Authority Key Identifier: 
                keyid:46:AE:F3:C6:AD:8C:3E:45:58:86:70:79:96:25:17:E1:6C:F7:16:A8

            Authority Information Access: 
                CA Issuers - URI:http://nitpicksy.no/ca/tls-ca.cer

            X509v3 CRL Distribution Points: 

                Full Name:
                  URI:http://nitpicksy.no/ca/tls-ca.crl

            X509v3 Subject Alternative Name: 
                DNS:nitpicksy.no, DNS:www.nitpicksy.no, DNS:localhost
    Signature Algorithm: sha256WithRSAEncryption
         a6:ff:da:f5:76:f7:b9:52:e3:42:cd:de:57:39:11:ec:b2:93:
         2a:42:e9:d6:23:d1:4d:bd:99:10:c9:22:b7:35:00:f2:4b:88:
         07:47:7a:3b:5b:0b:40:bd:e9:9f:8b:fe:9b:8b:bc:2e:58:3d:
         93:4d:0a:1e:97:e7:79:d4:22:2e:a6:95:e9:a2:e7:a1:9e:13:
         f3:0f:e6:71:49:fb:dd:c3:2d:a1:22:51:6d:04:45:a9:b7:5b:
         ec:2c:78:a0:fc:f8:ee:10:8b:6c:8c:93:74:0a:98:0d:83:36:
         74:20:67:66:d8:bf:6a:eb:82:3b:1e:06:38:25:66:fa:d2:da:
         8c:33:98:85:54:7e:a5:0b:0d:ea:54:01:5b:6d:db:0d:2e:ec:
         f8:32:4c:20:fa:07:b0:4c:2a:70:c4:37:56:20:0f:34:06:e7:
         72:18:4a:50:64:bc:ec:d7:f4:09:40:9c:6c:4b:af:7f:ed:bc:
         c2:56:e3:93:9f:96:2b:67:c2:0e:b1:91:de:47:e0:a5:b5:ef:
         fa:01:82:58:7f:8b:26:7e:a5:37:07:1e:2d:e7:75:bf:da:10:
         02:20:d9:db:9e:2a:d6:33:01:72:03:e5:06:80:53:96:a1:cc:
         58:15:9e:57:d6:5e:14:bd:0f:5c:35:67:f0:d5:6b:4b:3a:7c:
         2d:48:2b:22:0b:99:3e:ed:f9:f6:22:44:e3:15:90:b5:ba:7c:
         69:94:a5:1b:35:cb:d0:aa:69:62:67:f4:f0:86:5c:3c:62:60:
         37:dd:a5:a6:58:77:af:89:0b:a9:fe:81:08:da:1a:8c:3b:37:
         03:44:a4:a3:0b:31:8b:1c:4d:6e:e4:06:df:86:cc:c7:de:29:
         fe:33:70:4f:1c:0a:30:14:8f:c5:62:9d:66:93:9b:50:58:f3:
         e6:84:53:36:0b:88:f5:69:db:cf:12:cb:ae:72:05:02:3b:7c:
         49:c5:52:3d:b3:9f:5c:80:88:7a:8a:42:fe:48:bf:b2:50:07:
         3f:22:46:86:b3:1e:2e:e4:2b:09:0d:0a:91:df:97:17:5d:a0:
         99:6c:8d:04:8c:40:e7:d8:72:ab:cd:db:f4:55:db:41:a1:1a:
         41:fa:db:7a:ee:0d:0b:47:e3:17:5c:5f:ce:ca:c9:8f:68:30:
         fd:4c:05:04:b9:ec:f8:8f:96:d7:8b:47:5a:68:3c:20:b5:d7:
         fc:8e:4a:e2:d7:87:79:f3:4c:24:ba:ae:15:ec:03:11:3a:dd:
         84:5d:3d:9c:a8:01:19:3d:75:b3:52:ca:29:42:4b:3d:09:19:
         10:43:20:92:08:2d:a2:a6:0c:d5:c2:51:fc:52:4b:09:96:2c:
         0f:d8:c1:13:75:08:7f:70
-----BEGIN CERTIFICATE-----
MIIGdjCCBF6gAwIBAgIURwXuejiBviBR01pAdTPxe07owyMwDQYJKoZIhvcNAQEL
BQAwZjELMAkGA1UEBhMCTk8xEjAQBgNVBAoMCU5pdHBpY2tzeTEoMCYGA1UECwwf
Tml0cGlja3N5IENlcnRpZmljYXRlIEF1dGhvcml0eTEZMBcGA1UEAwwQTml0cGlj
a3N5IFRMUyBDQTAeFw0yMDEyMDYyMjA4MjVaFw0yMjEyMDYyMjA4MjVaMFkxCzAJ
BgNVBAYTAk5PMRIwEAYDVQQKDAlOaXRwaWNrc3kxKDAmBgNVBAsMH05pdHBpY2tz
eSBDZXJ0aWZpY2F0ZSBBdXRob3JpdHkxDDAKBgNVBAMMA1BDQzCCAiIwDQYJKoZI
hvcNAQEBBQADggIPADCCAgoCggIBAMrOoyCxxCqZLqSKh8ZtKsfT5wVetKBzrV18
n3PO/936XeXDUr8CIP4cysZDuIwi8zS291pHntvGxrNdI7lh7R9lhC63BN7P8dkM
8qkr/I7rnSfyc2EUIlxs7LTkeum4XfVnrU4+cQ9W3z2KedOkYcclfWqe/XKKY2SH
GGcZ1bjcXQ65xSEaLQR+JJ4klQ9NL2ffrOPGGR/Ns0GlGswIh+tkzTl34BEq5CKn
FdkSYNI47Ie7opI+IADP9ePh7Z/6hgp1N3R6cf+gRd44ZB5kDs8tWI4CYpwzDRJS
gMRgE5WpjzrrTgTke++OOMV+VOjujnfDu2/2YBBOKUao0S9GUFmEYxMiTdb9zycP
KGulZeJhyCKAJs4h+ORBDqycaZ+o4F8FUVWj2S7kRBdNFaI4cAYAchd5PkInFKA0
nJqNcpRvPCL84fZAkm4oYwLCc5WfzOCm1soSyp2blZzVaUThrx04UAkFCMH2If7X
4/cUTiQki+MJYD3rIWxV5pwoD2nOrebeFu5b8JtUc4YpKBgQO4m38SGWhUtp8peM
SE29vkFMVqn2jb+aNFX/lCpnnQu4DjeeqHRvJA9nEwRv4ROUKyRGc6LCo25bErsr
Dho0TKuye+YClAVSmTa2S9GHHtFwc8uPHYZX/bqFTJcrRJ4BLrYhJtzofNkE3iQX
zB9Cwz/lAgMBAAGjggEnMIIBIzAOBgNVHQ8BAf8EBAMCBaAwCQYDVR0TBAIwADAd
BgNVHSUEFjAUBggrBgEFBQcDAQYIKwYBBQUHAwIwHQYDVR0OBBYEFE4o1hbpXEAb
j4Y/FuAw9Aq+owhkMB8GA1UdIwQYMBaAFEau88atjD5FWIZweZYlF+Fs9xaoMD0G
CCsGAQUFBwEBBDEwLzAtBggrBgEFBQcwAoYhaHR0cDovL25pdHBpY2tzeS5uby9j
YS90bHMtY2EuY2VyMDIGA1UdHwQrMCkwJ6AloCOGIWh0dHA6Ly9uaXRwaWNrc3ku
bm8vY2EvdGxzLWNhLmNybDA0BgNVHREELTArggxuaXRwaWNrc3kubm+CEHd3dy5u
aXRwaWNrc3kubm+CCWxvY2FsaG9zdDANBgkqhkiG9w0BAQsFAAOCAgEApv/a9Xb3
uVLjQs3eVzkR7LKTKkLp1iPRTb2ZEMkitzUA8kuIB0d6O1sLQL3pn4v+m4u8Llg9
k00KHpfnedQiLqaV6aLnoZ4T8w/mcUn73cMtoSJRbQRFqbdb7Cx4oPz47hCLbIyT
dAqYDYM2dCBnZti/auuCOx4GOCVm+tLajDOYhVR+pQsN6lQBW23bDS7s+DJMIPoH
sEwqcMQ3ViAPNAbnchhKUGS87Nf0CUCcbEuvf+28wlbjk5+WK2fCDrGR3kfgpbXv
+gGCWH+LJn6lNwceLed1v9oQAiDZ254q1jMBcgPlBoBTlqHMWBWeV9ZeFL0PXDVn
8NVrSzp8LUgrIguZPu359iJE4xWQtbp8aZSlGzXL0KppYmf08IZcPGJgN92lplh3
r4kLqf6BCNoajDs3A0SkowsxixxNbuQG34bMx94p/jNwTxwKMBSPxWKdZpObUFjz
5oRTNguI9WnbzxLLrnIFAjt8ScVSPbOfXICIeopC/ki/slAHPyJGhrMeLuQrCQ0K
kd+XF12gmWyNBIxA59hyq83b9FXbQaEaQfrbeu4NC0fjF1xfzsrJj2gw/UwFBLns
+I+W14tHWmg8ILXX/I5K4teHefNMJLquFewDETrdhF09nKgBGT11s1LKKUJLPQkZ
EEMgkggtoqYM1cJR/FJLCZYsD9jBE3UIf3A=
-----END CERTIFICATE-----
