Certificate:
    Data:
        Version: 3 (0x2)
        Serial Number:
            4a:26:58:ab:f9:42:0d:c5:87:e6:38:9a:a8:67:43:e4:77:f1:f2:60
        Signature Algorithm: sha256WithRSAEncryption
        Issuer: C=NO, O=Nitpicksy, OU=Nitpicksy Certificate Authority, CN=Nitpicksy TLS CA
        Validity
            Not Before: Dec  6 21:52:30 2020 GMT
            Not After : Dec  6 21:52:30 2022 GMT
        Subject: C=NO, O=Nitpicksy, OU=Nitpicksy Certificate Authority, CN=zuul
        Subject Public Key Info:
            Public Key Algorithm: rsaEncryption
                RSA Public-Key: (4096 bit)
                Modulus:
                    00:bf:41:ee:ca:25:4e:5d:ea:58:41:11:48:63:41:
                    1b:46:9c:bb:62:1a:38:ca:09:e3:41:30:61:50:f9:
                    a0:0d:bc:e9:1b:00:ea:d0:a4:3b:a2:eb:82:be:9a:
                    8a:15:79:22:0f:a2:35:5a:e3:58:a4:57:b6:e3:b0:
                    a4:71:5b:f5:fa:a4:11:fc:3f:4a:29:54:ad:77:0c:
                    5c:be:83:b4:fb:d8:4d:b1:45:62:a2:9e:fe:a7:14:
                    02:5a:b5:e6:02:c0:e9:11:e7:d7:35:ec:49:49:65:
                    0e:3c:cd:d4:af:99:9c:b6:f0:5a:14:cf:7a:a3:13:
                    6c:8a:83:02:bb:32:a6:d5:66:fc:09:68:b5:fd:38:
                    9d:6e:0f:39:bf:bb:94:ec:50:d5:13:76:19:8d:ec:
                    8b:61:df:84:a4:82:f2:e4:0c:36:89:af:77:1d:9f:
                    89:ed:ae:ea:23:6a:bd:aa:72:fd:aa:92:c7:11:44:
                    72:f7:1a:b3:9f:06:71:aa:6f:7b:74:37:e2:7f:64:
                    da:10:0d:df:dc:82:6c:2f:22:41:e2:71:17:e5:d9:
                    30:6a:fd:2f:64:74:74:d6:7b:eb:d6:95:04:45:2b:
                    a0:58:18:a4:9a:15:3b:28:f6:c9:61:66:2a:5d:4f:
                    e4:e9:25:80:f9:95:07:75:a1:bf:16:c9:91:71:02:
                    e5:2e:53:59:c9:cd:aa:b9:45:db:6b:9f:18:f3:ca:
                    91:57:a8:15:7d:d7:f6:59:bf:2f:f1:4b:65:40:73:
                    1c:0d:97:fe:88:69:e2:08:13:95:a1:56:f2:da:5e:
                    76:61:44:ef:35:12:9c:bf:e1:d9:36:89:2e:4a:e8:
                    6b:b5:a1:2a:73:b4:4b:e5:a2:f5:af:3e:62:25:da:
                    4c:fc:d1:c0:54:a1:e5:09:44:85:b5:9a:73:fa:88:
                    a7:12:b8:12:1c:27:13:37:b6:47:72:81:12:6f:98:
                    67:23:8c:ce:29:a2:c0:df:96:b2:14:5c:7f:f6:3e:
                    0a:b7:f9:31:54:71:73:a4:3f:d7:a7:ca:ac:c8:25:
                    61:bd:cf:d8:31:be:e3:11:83:ce:df:92:78:6a:00:
                    17:e4:d8:03:ef:29:00:6f:ce:94:5e:0b:2f:6c:e7:
                    3c:84:55:06:be:49:7d:1d:ce:57:82:4f:08:10:5d:
                    52:d0:f2:3c:15:9f:0c:e5:e8:93:d8:b2:47:0c:ad:
                    ee:b4:b4:d5:08:fe:e1:4f:73:77:74:87:48:c7:14:
                    44:ab:82:75:74:90:44:9b:03:92:f4:6b:ab:18:32:
                    9e:34:ec:2b:2c:fc:0c:5c:c4:ef:e5:b7:14:9f:e0:
                    80:c7:be:f6:24:f3:65:6b:63:f8:83:1c:dc:49:61:
                    d8:bc:4d
                Exponent: 65537 (0x10001)
        X509v3 extensions:
            X509v3 Key Usage: critical
                Digital Signature, Key Encipherment
            X509v3 Basic Constraints: 
                CA:FALSE
            X509v3 Extended Key Usage: 
                TLS Web Server Authentication, TLS Web Client Authentication
            X509v3 Subject Key Identifier: 
                6C:D3:46:76:D6:7F:1B:FE:5B:3F:D9:6B:17:D8:E2:69:8B:D8:A0:61
            X509v3 Authority Key Identifier: 
                keyid:D7:D7:89:7B:D0:D8:5C:D5:C9:27:4E:98:7C:EE:76:73:F6:EB:7E:DB

            Authority Information Access: 
                CA Issuers - URI:http://nitpicksy.no/ca/tls-ca.cer

            X509v3 CRL Distribution Points: 

                Full Name:
                  URI:http://nitpicksy.no/ca/tls-ca.crl

            X509v3 Subject Alternative Name: 
                DNS:nitpicksy.no, DNS:www.nitpicksy.no, DNS:localhost
    Signature Algorithm: sha256WithRSAEncryption
         24:a0:c6:b5:1b:10:c4:22:b4:c2:fd:c6:5c:71:82:71:2c:e5:
         27:75:a6:55:c2:7c:1f:68:e2:0e:9d:49:c9:39:39:5b:8d:4a:
         1d:13:71:32:a0:14:9f:37:80:63:5b:e6:06:86:7f:1d:a8:dc:
         aa:96:cf:83:cf:76:90:e4:5e:1e:e0:76:c1:56:7c:59:ca:3d:
         9c:ab:6f:d7:1e:5c:32:4b:f4:d6:0a:c7:c1:e8:87:46:59:fd:
         48:fd:19:c2:47:4e:66:ec:35:76:8d:74:1b:3a:26:ef:ef:02:
         ac:69:7e:d8:71:6e:13:33:b6:67:ca:27:7f:29:80:44:26:72:
         33:55:77:db:9e:0a:13:0e:7b:a0:2d:17:d3:bf:4c:0a:d7:63:
         d0:e6:ff:41:c8:ee:35:16:fc:ea:c5:a4:2b:fe:d7:70:36:11:
         bd:8c:38:39:a1:bc:ae:f7:71:41:03:b1:87:bb:b6:43:66:1d:
         c6:e7:7b:93:97:16:5c:3f:1b:96:8f:e0:e7:ba:7c:21:a7:03:
         c8:e7:df:ca:4b:ed:d3:ac:da:71:a0:00:f0:32:4d:4e:8d:76:
         4c:1b:b4:e3:48:8d:2c:8b:88:b0:4d:8a:ef:a5:bf:2b:44:27:
         2a:fb:ec:56:d9:fb:b5:84:df:0a:92:ca:85:85:56:ca:4d:f6:
         e4:36:f8:0f:1f:ce:bc:a7:25:41:fe:cc:6e:cd:50:ef:60:c8:
         2d:17:d7:07:92:c7:21:3b:33:fc:e1:30:68:dc:48:b9:5a:48:
         dc:3f:fb:eb:7b:e8:fd:d7:27:4f:5e:0e:1d:ec:d8:ce:2f:6c:
         a0:0b:ef:24:16:33:b3:3d:8d:11:9a:e3:cf:7b:ae:e0:56:7d:
         8e:ac:93:64:74:ab:45:2c:41:ce:63:f5:73:eb:a6:c2:d8:32:
         13:c9:fa:76:d3:e5:5e:a8:ff:72:b7:18:42:13:3f:6c:87:45:
         72:e2:cd:ed:c6:91:e8:13:6d:30:8d:29:8a:d4:3c:00:ca:ae:
         22:95:80:e1:36:14:71:62:9b:c4:94:15:5e:ff:8b:11:23:59:
         ba:a5:28:87:be:95:ae:40:5c:9c:98:1d:05:c7:19:d1:1e:04:
         1e:89:4f:8c:c6:d9:66:74:6a:20:94:ff:05:e7:e2:fc:a5:41:
         cc:fe:a1:d9:39:ab:06:71:fe:da:e8:59:c2:7a:a9:af:bd:12:
         77:a5:24:6a:90:77:2d:7b:fc:b5:28:12:75:98:9b:5e:54:11:
         93:2e:00:d6:c6:fc:e4:d0:32:ac:28:87:db:7f:d6:73:40:39:
         74:04:9b:f7:36:fc:c0:2c:ae:e1:05:8f:19:52:bb:07:52:39:
         b0:bb:13:8f:89:6d:69:21
-----BEGIN CERTIFICATE-----
MIIGdzCCBF+gAwIBAgIUSiZYq/lCDcWH5jiaqGdD5Hfx8mAwDQYJKoZIhvcNAQEL
BQAwZjELMAkGA1UEBhMCTk8xEjAQBgNVBAoMCU5pdHBpY2tzeTEoMCYGA1UECwwf
Tml0cGlja3N5IENlcnRpZmljYXRlIEF1dGhvcml0eTEZMBcGA1UEAwwQTml0cGlj
a3N5IFRMUyBDQTAeFw0yMDEyMDYyMTUyMzBaFw0yMjEyMDYyMTUyMzBaMFoxCzAJ
BgNVBAYTAk5PMRIwEAYDVQQKDAlOaXRwaWNrc3kxKDAmBgNVBAsMH05pdHBpY2tz
eSBDZXJ0aWZpY2F0ZSBBdXRob3JpdHkxDTALBgNVBAMMBHp1dWwwggIiMA0GCSqG
SIb3DQEBAQUAA4ICDwAwggIKAoICAQC/Qe7KJU5d6lhBEUhjQRtGnLtiGjjKCeNB
MGFQ+aANvOkbAOrQpDui64K+mooVeSIPojVa41ikV7bjsKRxW/X6pBH8P0opVK13
DFy+g7T72E2xRWKinv6nFAJateYCwOkR59c17ElJZQ48zdSvmZy28FoUz3qjE2yK
gwK7MqbVZvwJaLX9OJ1uDzm/u5TsUNUTdhmN7Ith34SkgvLkDDaJr3cdn4ntruoj
ar2qcv2qkscRRHL3GrOfBnGqb3t0N+J/ZNoQDd/cgmwvIkHicRfl2TBq/S9kdHTW
e+vWlQRFK6BYGKSaFTso9slhZipdT+TpJYD5lQd1ob8WyZFxAuUuU1nJzaq5Rdtr
nxjzypFXqBV91/ZZvy/xS2VAcxwNl/6IaeIIE5WhVvLaXnZhRO81Epy/4dk2iS5K
6Gu1oSpztEvlovWvPmIl2kz80cBUoeUJRIW1mnP6iKcSuBIcJxM3tkdygRJvmGcj
jM4posDflrIUXH/2Pgq3+TFUcXOkP9enyqzIJWG9z9gxvuMRg87fknhqABfk2APv
KQBvzpReCy9s5zyEVQa+SX0dzleCTwgQXVLQ8jwVnwzl6JPYskcMre60tNUI/uFP
c3d0h0jHFESrgnV0kESbA5L0a6sYMp407Css/AxcxO/ltxSf4IDHvvYk82VrY/iD
HNxJYdi8TQIDAQABo4IBJzCCASMwDgYDVR0PAQH/BAQDAgWgMAkGA1UdEwQCMAAw
HQYDVR0lBBYwFAYIKwYBBQUHAwEGCCsGAQUFBwMCMB0GA1UdDgQWBBRs00Z21n8b
/ls/2WsX2OJpi9igYTAfBgNVHSMEGDAWgBTX14l70Nhc1cknTph87nZz9ut+2zA9
BggrBgEFBQcBAQQxMC8wLQYIKwYBBQUHMAKGIWh0dHA6Ly9uaXRwaWNrc3kubm8v
Y2EvdGxzLWNhLmNlcjAyBgNVHR8EKzApMCegJaAjhiFodHRwOi8vbml0cGlja3N5
Lm5vL2NhL3Rscy1jYS5jcmwwNAYDVR0RBC0wK4IMbml0cGlja3N5Lm5vghB3d3cu
bml0cGlja3N5Lm5vgglsb2NhbGhvc3QwDQYJKoZIhvcNAQELBQADggIBACSgxrUb
EMQitML9xlxxgnEs5Sd1plXCfB9o4g6dSck5OVuNSh0TcTKgFJ83gGNb5gaGfx2o
3KqWz4PPdpDkXh7gdsFWfFnKPZyrb9ceXDJL9NYKx8Hoh0ZZ/Uj9GcJHTmbsNXaN
dBs6Ju/vAqxpfthxbhMztmfKJ38pgEQmcjNVd9ueChMOe6AtF9O/TArXY9Dm/0HI
7jUW/OrFpCv+13A2Eb2MODmhvK73cUEDsYe7tkNmHcbne5OXFlw/G5aP4Oe6fCGn
A8jn38pL7dOs2nGgAPAyTU6NdkwbtONIjSyLiLBNiu+lvytEJyr77FbZ+7WE3wqS
yoWFVspN9uQ2+A8fzrynJUH+zG7NUO9gyC0X1weSxyE7M/zhMGjcSLlaSNw/++t7
6P3XJ09eDh3s2M4vbKAL7yQWM7M9jRGa4897ruBWfY6sk2R0q0UsQc5j9XPrpsLY
MhPJ+nbT5V6o/3K3GEITP2yHRXLize3GkegTbTCNKYrUPADKriKVgOE2FHFim8SU
FV7/ixEjWbqlKIe+la5AXJyYHQXHGdEeBB6JT4zG2WZ0aiCU/wXn4vylQcz+odk5
qwZx/troWcJ6qa+9EnelJGqQdy17/LUoEnWYm15UEZMuANbG/OTQMqwoh9t/1nNA
OXQEm/c2/MAsruEFjxlSuwdSObC7E4+JbWkh
-----END CERTIFICATE-----
