Certificate:
    Data:
        Version: 3 (0x2)
        Serial Number:
            4d:f6:fa:97:ba:a1:08:e2:48:dc:cf:40:20:85:06:01:e6:df:cc:82
        Signature Algorithm: sha256WithRSAEncryption
        Issuer: C=NO, O=Nitpicksy, OU=Nitpicksy Certificate Authority, CN=Nitpicksy TLS CA
        Validity
            Not Before: Dec  6 21:39:33 2020 GMT
            Not After : Dec  6 21:39:33 2022 GMT
        Subject: C=NO, O=Nitpicksy, OU=Nitpicksy Certificate Authority, CN=Eureka
        Subject Public Key Info:
            Public Key Algorithm: rsaEncryption
                RSA Public-Key: (4096 bit)
                Modulus:
                    00:bc:97:5b:e7:c8:b2:42:b4:95:b3:e9:f6:47:5b:
                    0a:80:05:c0:e2:17:de:fd:4a:a3:ce:38:28:dc:a7:
                    06:9d:16:52:79:d1:1a:da:86:e9:9c:1a:27:46:69:
                    7a:2e:56:02:de:d7:b8:07:aa:db:33:ad:fd:28:57:
                    03:9c:07:78:41:24:7b:32:76:c6:20:80:6e:65:b2:
                    55:3f:e0:3c:87:f7:dc:5a:a4:9c:f3:b7:3b:f5:7d:
                    02:4d:19:06:82:d6:65:91:c3:ae:3a:68:5b:e7:01:
                    54:15:60:ea:d8:5f:87:92:0d:24:8b:7f:34:c2:f5:
                    82:c8:2a:67:a8:97:5c:38:92:4b:2c:10:0c:19:33:
                    42:32:60:10:31:af:90:af:37:5f:12:7c:04:2d:69:
                    0d:6c:6c:cf:ef:d2:18:de:23:e1:9f:81:ed:6e:05:
                    26:ca:cb:19:47:47:d8:ea:d5:15:b2:10:59:d0:f6:
                    81:8a:4d:04:68:b6:5f:2e:a0:ef:2d:9a:44:f4:59:
                    2e:14:5b:38:4a:45:09:11:e4:f7:3b:a6:8b:b6:03:
                    86:ee:d8:1d:8a:68:c4:ec:76:39:88:96:75:33:15:
                    32:06:73:9c:f7:af:46:fe:bb:60:98:64:8a:68:40:
                    56:99:ab:17:59:5b:59:27:59:d0:4e:63:88:be:e4:
                    37:2b:28:51:f8:b6:5a:cf:a0:54:8c:69:71:db:8e:
                    91:85:52:5d:3c:38:48:13:d7:06:24:e3:7a:a7:fc:
                    d7:71:13:7d:04:a0:7f:31:2d:b3:1a:60:e7:c2:56:
                    4d:50:74:13:d2:5c:e5:a9:11:7b:04:c3:f6:24:15:
                    fb:a0:ec:1c:e7:bb:30:9b:d9:81:e6:56:46:a7:d6:
                    f8:69:35:af:86:b7:5b:1f:53:f9:da:8e:2a:c4:17:
                    1e:00:da:59:4b:70:fa:b5:75:a1:f5:f0:93:e8:4a:
                    21:b7:6e:67:66:90:56:cb:0e:2f:00:b3:a5:12:8b:
                    87:27:56:05:59:45:d3:40:eb:87:bb:66:f3:e2:13:
                    e7:80:80:5c:07:0c:8e:75:4f:9e:f9:a7:92:78:4c:
                    75:ca:8e:6a:5d:2a:91:6d:59:cb:52:35:a7:3d:4e:
                    67:d2:68:bd:af:97:b0:5c:a8:d0:88:5d:08:a2:ef:
                    e8:32:91:49:38:c0:d4:e6:77:3e:00:74:55:50:24:
                    e4:6c:b9:1d:3f:0a:60:ff:b9:9b:fb:61:e4:c0:56:
                    80:64:6e:a3:3b:da:9d:86:70:40:00:c4:82:86:3c:
                    79:11:8b:62:2e:5b:fd:32:96:c1:8d:63:e6:17:5a:
                    6b:3d:9d:26:c2:5f:df:f8:d1:2b:eb:40:c9:2f:1a:
                    79:d1:21
                Exponent: 65537 (0x10001)
        X509v3 extensions:
            X509v3 Key Usage: critical
                Digital Signature, Key Encipherment
            X509v3 Basic Constraints: 
                CA:FALSE
            X509v3 Extended Key Usage: 
                TLS Web Server Authentication, TLS Web Client Authentication
            X509v3 Subject Key Identifier: 
                5B:62:1A:3D:CC:36:4B:37:C3:E5:BD:25:C1:9A:2C:C4:57:95:7B:1D
            X509v3 Authority Key Identifier: 
                keyid:73:22:F9:68:31:83:E6:3A:55:0D:D5:B0:7B:20:10:F1:2E:0B:77:9F

            Authority Information Access: 
                CA Issuers - URI:http://nitpicksy.no/ca/tls-ca.cer

            X509v3 CRL Distribution Points: 

                Full Name:
                  URI:http://nitpicksy.no/ca/tls-ca.crl

            X509v3 Subject Alternative Name: 
                DNS:nitpicksy.no, DNS:www.nitpicksy.no, DNS:localhost
    Signature Algorithm: sha256WithRSAEncryption
         29:85:fb:03:8f:08:60:47:ab:db:66:c9:d0:8d:ef:c5:35:19:
         cd:5a:eb:42:f8:63:7b:09:fa:ed:7f:29:ea:dd:54:99:6b:6c:
         61:5e:5f:49:7d:7a:1a:b2:9f:9b:26:38:9c:49:07:8e:71:3e:
         e0:64:c2:8a:76:d9:16:54:31:da:f9:0d:f2:52:1d:f4:cc:96:
         10:83:ca:c8:f5:26:02:1b:a0:52:49:7d:a3:3c:d8:43:2f:53:
         5b:38:43:7e:1f:21:69:7c:da:d8:2b:8d:45:db:03:8a:c3:91:
         b7:ea:21:17:42:0f:5d:0f:ef:88:88:da:66:4c:bf:64:b2:c1:
         5b:cf:db:29:32:c2:2f:0d:16:ad:ec:04:74:90:d8:46:15:05:
         bf:52:5a:4e:50:05:63:a4:9e:1e:4f:05:c6:35:63:a7:63:e4:
         f8:b8:03:b9:e1:ad:48:19:b9:0e:8f:cd:db:55:99:02:b8:9c:
         b7:33:2d:82:70:4c:39:aa:ad:6c:d1:5d:45:2a:08:4c:ad:07:
         77:93:fa:3d:01:a7:47:68:39:3d:d1:fb:d0:01:7e:cf:03:c9:
         7a:91:63:c9:00:e2:fb:2a:7d:07:d4:3f:6b:17:63:4f:e5:2c:
         1b:cf:3e:56:6d:91:90:e0:55:ea:c3:ff:43:65:6c:e5:6b:1e:
         b3:60:31:e3:09:b6:f2:f8:4e:c2:eb:f9:e7:f3:1d:ab:10:7b:
         0b:ac:72:c7:13:71:d6:0a:7a:08:5a:cb:13:98:28:1d:81:42:
         87:6f:d0:e6:79:ee:ab:14:de:f6:70:63:10:a1:b7:a3:5a:d9:
         a5:e6:a7:03:c6:b2:96:d0:67:79:63:40:fc:7e:5e:65:16:de:
         9f:40:f4:3c:0c:20:b9:ff:b5:5c:c8:81:26:e8:d7:69:79:07:
         f6:b5:fb:1a:73:a4:b7:3e:e9:7f:de:c0:59:cd:fb:b4:28:50:
         6c:9d:bb:0d:31:45:00:de:7b:d0:8a:42:db:a8:53:e0:fd:43:
         3e:95:01:a1:1b:3c:6a:ae:c0:bb:8b:77:87:b1:4d:ca:70:00:
         cc:d1:e0:3d:7d:c7:b8:85:07:f1:79:fe:4b:1b:04:25:bc:f1:
         03:2a:95:2b:4a:6f:9d:5b:d5:5c:90:16:55:d7:ec:f1:80:a8:
         3b:fd:17:a7:32:a6:fb:82:cf:aa:e0:a3:83:7c:bf:d6:70:2e:
         68:92:57:36:40:8d:72:76:3b:46:28:3b:64:dd:58:16:f2:30:
         a1:2f:6f:19:c9:12:98:b5:15:fe:f0:0f:1f:7c:5e:ed:31:c3:
         9e:eb:38:ca:9b:4a:12:6f:56:87:6e:ed:50:2c:33:a0:19:81:
         a1:9a:7f:ac:10:70:fc:99
-----BEGIN CERTIFICATE-----
MIIGeTCCBGGgAwIBAgIUTfb6l7qhCOJI3M9AIIUGAebfzIIwDQYJKoZIhvcNAQEL
BQAwZjELMAkGA1UEBhMCTk8xEjAQBgNVBAoMCU5pdHBpY2tzeTEoMCYGA1UECwwf
Tml0cGlja3N5IENlcnRpZmljYXRlIEF1dGhvcml0eTEZMBcGA1UEAwwQTml0cGlj
a3N5IFRMUyBDQTAeFw0yMDEyMDYyMTM5MzNaFw0yMjEyMDYyMTM5MzNaMFwxCzAJ
BgNVBAYTAk5PMRIwEAYDVQQKDAlOaXRwaWNrc3kxKDAmBgNVBAsMH05pdHBpY2tz
eSBDZXJ0aWZpY2F0ZSBBdXRob3JpdHkxDzANBgNVBAMMBkV1cmVrYTCCAiIwDQYJ
KoZIhvcNAQEBBQADggIPADCCAgoCggIBALyXW+fIskK0lbPp9kdbCoAFwOIX3v1K
o844KNynBp0WUnnRGtqG6ZwaJ0Zpei5WAt7XuAeq2zOt/ShXA5wHeEEkezJ2xiCA
bmWyVT/gPIf33FqknPO3O/V9Ak0ZBoLWZZHDrjpoW+cBVBVg6thfh5INJIt/NML1
gsgqZ6iXXDiSSywQDBkzQjJgEDGvkK83XxJ8BC1pDWxsz+/SGN4j4Z+B7W4FJsrL
GUdH2OrVFbIQWdD2gYpNBGi2Xy6g7y2aRPRZLhRbOEpFCRHk9zumi7YDhu7YHYpo
xOx2OYiWdTMVMgZznPevRv67YJhkimhAVpmrF1lbWSdZ0E5jiL7kNysoUfi2Ws+g
VIxpcduOkYVSXTw4SBPXBiTjeqf813ETfQSgfzEtsxpg58JWTVB0E9Jc5akRewTD
9iQV+6DsHOe7MJvZgeZWRqfW+Gk1r4a3Wx9T+dqOKsQXHgDaWUtw+rV1ofXwk+hK
IbduZ2aQVssOLwCzpRKLhydWBVlF00Drh7tm8+IT54CAXAcMjnVPnvmnknhMdcqO
al0qkW1Zy1I1pz1OZ9Jova+XsFyo0IhdCKLv6DKRSTjA1OZ3PgB0VVAk5Gy5HT8K
YP+5m/th5MBWgGRuozvanYZwQADEgoY8eRGLYi5b/TKWwY1j5hdaaz2dJsJf3/jR
K+tAyS8aedEhAgMBAAGjggEnMIIBIzAOBgNVHQ8BAf8EBAMCBaAwCQYDVR0TBAIw
ADAdBgNVHSUEFjAUBggrBgEFBQcDAQYIKwYBBQUHAwIwHQYDVR0OBBYEFFtiGj3M
Nks3w+W9JcGaLMRXlXsdMB8GA1UdIwQYMBaAFHMi+Wgxg+Y6VQ3VsHsgEPEuC3ef
MD0GCCsGAQUFBwEBBDEwLzAtBggrBgEFBQcwAoYhaHR0cDovL25pdHBpY2tzeS5u
by9jYS90bHMtY2EuY2VyMDIGA1UdHwQrMCkwJ6AloCOGIWh0dHA6Ly9uaXRwaWNr
c3kubm8vY2EvdGxzLWNhLmNybDA0BgNVHREELTArggxuaXRwaWNrc3kubm+CEHd3
dy5uaXRwaWNrc3kubm+CCWxvY2FsaG9zdDANBgkqhkiG9w0BAQsFAAOCAgEAKYX7
A48IYEer22bJ0I3vxTUZzVrrQvhjewn67X8p6t1UmWtsYV5fSX16GrKfmyY4nEkH
jnE+4GTCinbZFlQx2vkN8lId9MyWEIPKyPUmAhugUkl9ozzYQy9TWzhDfh8haXza
2CuNRdsDisORt+ohF0IPXQ/viIjaZky/ZLLBW8/bKTLCLw0WrewEdJDYRhUFv1Ja
TlAFY6SeHk8FxjVjp2Pk+LgDueGtSBm5Do/N21WZArictzMtgnBMOaqtbNFdRSoI
TK0Hd5P6PQGnR2g5PdH70AF+zwPJepFjyQDi+yp9B9Q/axdjT+UsG88+Vm2RkOBV
6sP/Q2Vs5Wses2Ax4wm28vhOwuv55/MdqxB7C6xyxxNx1gp6CFrLE5goHYFCh2/Q
5nnuqxTe9nBjEKG3o1rZpeanA8ayltBneWNA/H5eZRben0D0PAwguf+1XMiBJujX
aXkH9rX7GnOktz7pf97AWc37tChQbJ27DTFFAN570IpC26hT4P1DPpUBoRs8aq7A
u4t3h7FNynAAzNHgPX3HuIUH8Xn+SxsEJbzxAyqVK0pvnVvVXJAWVdfs8YCoO/0X
pzKm+4LPquCjg3y/1nAuaJJXNkCNcnY7Rig7ZN1YFvIwoS9vGckSmLUV/vAPH3xe
7THDnus4yptKEm9Wh27tUCwzoBmBoZp/rBBw/Jk=
-----END CERTIFICATE-----
