Certificate:
    Data:
        Version: 3 (0x2)
        Serial Number:
            4e:40:14:ee:21:c3:81:2f:c8:2f:f7:6a:f2:03:00:9b:83:f1:53:d4
        Signature Algorithm: sha256WithRSAEncryption
        Issuer: C=NO, O=Nitpicksy, OU=Nitpicksy Certificate Authority, CN=Nitpicksy TLS CA
        Validity
            Not Before: Dec  6 21:59:52 2020 GMT
            Not After : Dec  6 21:59:52 2022 GMT
        Subject: C=NO, O=Nitpicksy, OU=Nitpicksy Certificate Authority, CN=Paypal
        Subject Public Key Info:
            Public Key Algorithm: rsaEncryption
                RSA Public-Key: (4096 bit)
                Modulus:
                    00:a8:80:8e:a1:75:32:d7:3a:4c:46:c9:18:dc:98:
                    1a:8a:94:a2:db:7a:dc:be:f2:cb:0d:d1:3f:f4:6a:
                    30:45:3b:ef:69:56:5d:27:ef:e5:07:f3:3b:93:3e:
                    ca:dc:62:e6:27:66:b6:9c:16:2b:5a:d2:b7:ef:c0:
                    1c:a7:6a:46:2f:80:f5:5e:3b:4f:1f:6b:e4:38:77:
                    c1:6f:b7:c7:da:77:bb:65:b2:74:f8:c4:fe:ca:a4:
                    e6:8f:78:b6:c8:86:9e:6b:0b:90:ca:60:7e:7e:5d:
                    38:41:61:87:8c:99:f0:e7:ef:07:21:8e:6f:2c:63:
                    e4:ce:cd:61:86:94:f2:d6:ce:e1:14:a6:be:04:d2:
                    1d:2e:2c:ae:d8:61:de:93:4c:a5:46:1f:25:7e:33:
                    94:22:74:fa:9d:7e:25:cc:b6:88:0f:63:48:45:6b:
                    94:8e:e9:11:46:4a:8c:ab:ca:ca:d5:0b:ac:ce:fd:
                    c2:2e:af:8a:96:d3:93:4e:5d:41:c6:b8:4e:ee:03:
                    91:fb:09:68:a4:27:8f:3a:2c:d8:ee:12:aa:df:aa:
                    9e:a1:bf:0a:1c:e1:d1:51:87:cf:c5:42:c1:40:a5:
                    a5:b5:7c:cf:1a:2d:e9:25:77:c4:6e:a3:bb:aa:c2:
                    f9:fe:1f:ad:01:ae:e7:a4:b2:fe:a8:17:cb:a9:42:
                    d3:73:4c:e6:31:fb:d4:16:fa:fd:e0:38:dc:ff:21:
                    b8:ab:a2:34:ac:de:cb:68:f2:eb:24:2e:de:c5:95:
                    7e:ce:9a:06:4d:44:b2:93:c8:d0:32:d4:cf:05:bb:
                    c1:8f:c2:6c:49:77:41:a1:19:11:82:77:a2:f5:06:
                    c7:29:cd:f5:e0:be:c6:f4:e8:e3:91:91:1e:3e:62:
                    96:c4:9c:f1:2c:f4:e5:6c:3b:75:1d:56:fc:8d:cb:
                    fe:ce:e0:1e:6a:2d:4b:95:00:b5:90:9e:d8:fd:c6:
                    39:dd:0a:e6:5e:e8:9b:6f:18:ea:51:31:e6:78:73:
                    11:8c:c5:b9:a8:e4:32:4b:c4:b3:a3:57:58:b3:b6:
                    46:08:b6:51:1b:99:3f:16:36:03:05:e8:a5:0d:c3:
                    22:43:9f:da:39:1f:85:8d:13:3b:4c:4d:90:4e:04:
                    08:50:67:a9:72:71:22:08:0d:38:ee:b7:15:a9:9e:
                    67:de:f3:0c:5b:27:b3:b0:2d:7f:c6:5a:60:5b:64:
                    a4:9a:a0:43:c8:f0:52:5f:fc:d4:bb:e8:57:d1:b6:
                    cc:fd:18:6d:8b:7a:f5:5c:75:29:97:c4:93:01:3b:
                    25:06:53:fe:96:4c:60:1c:12:3f:96:63:55:96:b1:
                    b0:1b:a1:9f:ea:95:2b:f1:90:27:4f:e9:d0:ef:99:
                    45:51:d5
                Exponent: 65537 (0x10001)
        X509v3 extensions:
            X509v3 Key Usage: critical
                Digital Signature, Key Encipherment
            X509v3 Basic Constraints: 
                CA:FALSE
            X509v3 Extended Key Usage: 
                TLS Web Server Authentication, TLS Web Client Authentication
            X509v3 Subject Key Identifier: 
                60:3B:7A:13:E8:C3:5A:75:67:D2:81:DB:23:89:34:07:6F:89:F4:3A
            X509v3 Authority Key Identifier: 
                keyid:F8:9E:02:FC:4A:0D:42:21:E6:18:5C:50:21:68:5A:34:79:23:14:65

            Authority Information Access: 
                CA Issuers - URI:http://nitpicksy.no/ca/tls-ca.cer

            X509v3 CRL Distribution Points: 

                Full Name:
                  URI:http://nitpicksy.no/ca/tls-ca.crl

            X509v3 Subject Alternative Name: 
                DNS:nitpicksy.no, DNS:www.nitpicksy.no, DNS:localhost
    Signature Algorithm: sha256WithRSAEncryption
         0e:50:ee:84:95:c7:17:26:65:5a:73:b0:54:10:54:1a:e5:71:
         b0:5c:5d:60:bb:09:d0:5b:49:6b:2a:88:21:3b:3b:29:97:89:
         be:09:58:9f:d1:99:50:a4:ac:a6:ad:f3:ad:78:fa:cf:c5:9c:
         ec:07:6a:85:3b:31:15:03:59:4a:95:03:a9:34:ea:3a:61:65:
         b8:1b:2f:45:87:79:56:c9:88:4d:b1:93:c7:f6:70:9b:60:29:
         5f:76:0d:b4:ef:8b:fe:2a:f5:3b:82:fc:e1:cf:6a:56:2c:d0:
         45:be:c5:0f:da:fc:f9:0b:3e:5a:2a:76:44:ee:0e:93:78:8a:
         a9:96:88:b7:b4:e3:56:23:48:b2:70:cc:c0:c2:33:91:c4:89:
         21:3b:dd:4e:5b:66:4f:57:5d:94:d0:48:b7:87:85:ae:d2:53:
         d9:ad:15:37:ee:76:be:f3:37:33:bb:6e:e6:97:18:c9:17:0a:
         da:f1:e1:41:04:47:13:88:84:8c:f0:56:ce:cc:ae:55:b1:79:
         59:b7:25:00:43:62:b6:22:18:6c:15:b3:39:74:02:9e:b9:f2:
         9d:4b:c3:5e:01:36:10:46:95:89:85:10:8f:9a:e5:55:1e:56:
         b8:0d:f1:4e:d8:57:9e:1d:b3:f1:be:7a:3b:3d:57:f8:83:ef:
         f4:53:d1:44:c9:89:85:92:8e:1f:4a:7c:70:d0:65:10:c0:b6:
         2f:90:c2:2b:dc:2b:e9:ba:f3:0e:11:99:70:1b:a6:bb:80:da:
         9f:f3:85:da:c5:44:bf:6e:1b:21:fa:a1:54:31:44:ae:0d:b9:
         77:c0:93:de:00:86:4b:af:9a:28:0a:fb:ba:01:60:a9:39:21:
         ac:2f:80:91:1e:0f:c3:72:f5:f3:bf:13:27:80:52:2c:1c:16:
         ba:96:39:dc:93:ec:fd:50:da:92:77:cd:89:45:e5:ee:ed:3d:
         76:7d:a6:46:f6:4b:96:32:fe:0a:e5:cb:d2:2c:89:3a:d5:d9:
         9c:30:71:87:98:f4:1e:04:4c:33:67:e2:00:35:fc:08:2a:72:
         85:6d:e9:ee:d4:2d:b0:95:96:61:72:b9:66:e9:e7:ea:bc:32:
         03:31:fd:90:76:de:fb:2a:b6:d3:4a:eb:3d:50:b3:54:c3:e5:
         60:38:c9:23:8d:05:59:0a:6d:6d:f6:5b:b6:ac:65:c4:23:af:
         0d:e2:a5:4b:73:f7:87:c4:41:ff:52:80:85:c4:5e:57:62:39:
         77:5a:ab:51:de:47:79:65:39:7e:a5:bb:a2:b7:f9:25:9d:0c:
         35:ea:3f:14:bf:23:dd:56:f8:3a:de:e5:4f:df:ac:47:8c:97:
         04:d9:0c:1e:17:ba:d4:b6
-----BEGIN CERTIFICATE-----
MIIGeTCCBGGgAwIBAgIUTkAU7iHDgS/IL/dq8gMAm4PxU9QwDQYJKoZIhvcNAQEL
BQAwZjELMAkGA1UEBhMCTk8xEjAQBgNVBAoMCU5pdHBpY2tzeTEoMCYGA1UECwwf
Tml0cGlja3N5IENlcnRpZmljYXRlIEF1dGhvcml0eTEZMBcGA1UEAwwQTml0cGlj
a3N5IFRMUyBDQTAeFw0yMDEyMDYyMTU5NTJaFw0yMjEyMDYyMTU5NTJaMFwxCzAJ
BgNVBAYTAk5PMRIwEAYDVQQKDAlOaXRwaWNrc3kxKDAmBgNVBAsMH05pdHBpY2tz
eSBDZXJ0aWZpY2F0ZSBBdXRob3JpdHkxDzANBgNVBAMMBlBheXBhbDCCAiIwDQYJ
KoZIhvcNAQEBBQADggIPADCCAgoCggIBAKiAjqF1Mtc6TEbJGNyYGoqUott63L7y
yw3RP/RqMEU772lWXSfv5QfzO5M+ytxi5idmtpwWK1rSt+/AHKdqRi+A9V47Tx9r
5Dh3wW+3x9p3u2WydPjE/sqk5o94tsiGnmsLkMpgfn5dOEFhh4yZ8OfvByGObyxj
5M7NYYaU8tbO4RSmvgTSHS4srthh3pNMpUYfJX4zlCJ0+p1+Jcy2iA9jSEVrlI7p
EUZKjKvKytULrM79wi6vipbTk05dQca4Tu4DkfsJaKQnjzos2O4Sqt+qnqG/Chzh
0VGHz8VCwUClpbV8zxot6SV3xG6ju6rC+f4frQGu56Sy/qgXy6lC03NM5jH71Bb6
/eA43P8huKuiNKzey2jy6yQu3sWVfs6aBk1EspPI0DLUzwW7wY/CbEl3QaEZEYJ3
ovUGxynN9eC+xvTo45GRHj5ilsSc8Sz05Ww7dR1W/I3L/s7gHmotS5UAtZCe2P3G
Od0K5l7om28Y6lEx5nhzEYzFuajkMkvEs6NXWLO2Rgi2URuZPxY2AwXopQ3DIkOf
2jkfhY0TO0xNkE4ECFBnqXJxIggNOO63FameZ97zDFsns7Atf8ZaYFtkpJqgQ8jw
Ul/81LvoV9G2zP0YbYt69Vx1KZfEkwE7JQZT/pZMYBwSP5ZjVZaxsBuhn+qVK/GQ
J0/p0O+ZRVHVAgMBAAGjggEnMIIBIzAOBgNVHQ8BAf8EBAMCBaAwCQYDVR0TBAIw
ADAdBgNVHSUEFjAUBggrBgEFBQcDAQYIKwYBBQUHAwIwHQYDVR0OBBYEFGA7ehPo
w1p1Z9KB2yOJNAdvifQ6MB8GA1UdIwQYMBaAFPieAvxKDUIh5hhcUCFoWjR5IxRl
MD0GCCsGAQUFBwEBBDEwLzAtBggrBgEFBQcwAoYhaHR0cDovL25pdHBpY2tzeS5u
by9jYS90bHMtY2EuY2VyMDIGA1UdHwQrMCkwJ6AloCOGIWh0dHA6Ly9uaXRwaWNr
c3kubm8vY2EvdGxzLWNhLmNybDA0BgNVHREELTArggxuaXRwaWNrc3kubm+CEHd3
dy5uaXRwaWNrc3kubm+CCWxvY2FsaG9zdDANBgkqhkiG9w0BAQsFAAOCAgEADlDu
hJXHFyZlWnOwVBBUGuVxsFxdYLsJ0FtJayqIITs7KZeJvglYn9GZUKSspq3zrXj6
z8Wc7AdqhTsxFQNZSpUDqTTqOmFluBsvRYd5VsmITbGTx/Zwm2ApX3YNtO+L/ir1
O4L84c9qVizQRb7FD9r8+Qs+Wip2RO4Ok3iKqZaIt7TjViNIsnDMwMIzkcSJITvd
TltmT1ddlNBIt4eFrtJT2a0VN+52vvM3M7tu5pcYyRcK2vHhQQRHE4iEjPBWzsyu
VbF5WbclAENitiIYbBWzOXQCnrnynUvDXgE2EEaViYUQj5rlVR5WuA3xTthXnh2z
8b56Oz1X+IPv9FPRRMmJhZKOH0p8cNBlEMC2L5DCK9wr6brzDhGZcBumu4Dan/OF
2sVEv24bIfqhVDFErg25d8CT3gCGS6+aKAr7ugFgqTkhrC+AkR4Pw3L1878TJ4BS
LBwWupY53JPs/VDaknfNiUXl7u09dn2mRvZLljL+CuXL0iyJOtXZnDBxh5j0HgRM
M2fiADX8CCpyhW3p7tQtsJWWYXK5Zunn6rwyAzH9kHbe+yq200rrPVCzVMPlYDjJ
I40FWQptbfZbtqxlxCOvDeKlS3P3h8RB/1KAhcReV2I5d1qrUd5HeWU5fqW7orf5
JZ0MNeo/FL8j3Vb4Ot7lT9+sR4yXBNkMHhe61LY=
-----END CERTIFICATE-----
