Certificate:
    Data:
        Version: 3 (0x2)
        Serial Number:
            51:79:a9:0f:0d:e1:9e:5e:71:d1:5f:86:d3:5e:ab:f4:23:21:da:30
        Signature Algorithm: sha256WithRSAEncryption
        Issuer: C=NO, O=Nitpicksy, OU=Nitpicksy Certificate Authority, CN=Nitpicksy TLS CA
        Validity
            Not Before: Dec  6 21:59:49 2020 GMT
            Not After : Dec  6 21:59:49 2022 GMT
        Subject: C=NO, O=Nitpicksy, OU=Nitpicksy Certificate Authority, CN=Eureka
        Subject Public Key Info:
            Public Key Algorithm: rsaEncryption
                RSA Public-Key: (4096 bit)
                Modulus:
                    00:b6:9b:fc:40:07:85:07:2b:3c:79:25:61:18:ef:
                    ca:86:52:0c:94:f3:ab:45:73:be:85:a9:36:98:bd:
                    01:dc:12:0d:d7:d3:11:3f:86:6a:65:44:08:5d:d0:
                    4c:36:c9:d6:53:50:2b:b4:5a:b3:1b:f3:ef:a8:08:
                    dc:09:ee:cd:d4:0d:88:5e:d3:9d:b5:77:31:c6:96:
                    78:4b:78:04:a3:df:c1:01:f9:25:77:eb:bb:65:32:
                    94:d7:eb:fa:b3:4a:95:6c:e3:78:7b:50:24:29:f7:
                    1f:13:f4:d5:d7:9d:46:4d:87:cb:09:1d:3b:e6:6d:
                    b8:ca:3b:1a:16:05:eb:9a:03:85:4f:75:83:1a:39:
                    2d:56:24:1b:12:6d:03:cc:59:67:8b:b9:3f:62:9b:
                    30:68:e6:bf:25:20:2f:67:ab:56:d9:10:77:f1:7b:
                    d3:bf:76:b8:be:8d:fb:06:39:c3:0d:c6:20:e7:72:
                    28:a9:8f:ea:e8:f7:82:52:54:be:b0:55:10:e7:da:
                    b8:81:b2:1d:ec:0a:3a:08:de:b2:7e:44:4d:52:8e:
                    c7:74:5c:ab:1c:e4:1f:bc:6a:48:00:8c:11:b9:e7:
                    0f:be:e3:a8:df:26:65:39:eb:82:2d:f0:2b:7b:9a:
                    f9:a5:a3:d8:66:4c:06:a1:cd:3a:cf:0a:ac:d9:45:
                    77:2a:c7:2c:36:b7:31:48:5e:8a:3d:79:10:96:6a:
                    2a:cf:da:1b:93:13:44:df:c0:1f:3f:28:54:57:08:
                    7b:2d:1e:b1:87:8b:a8:59:cf:4b:ef:1b:89:e6:0b:
                    e4:d2:30:dc:72:bd:66:9b:73:af:9a:ee:cb:1a:a2:
                    34:da:92:c4:37:02:59:45:7f:c4:00:6d:76:44:4b:
                    76:14:91:4a:46:ca:16:a8:74:94:eb:b5:23:58:19:
                    ba:00:d4:eb:1e:04:40:11:62:ea:45:bc:79:a6:57:
                    11:22:34:e4:49:c9:89:cd:8c:31:26:73:f2:84:7a:
                    f6:8a:c0:c8:21:ce:03:04:66:ac:16:36:fc:fc:41:
                    e7:4f:33:b4:d6:cb:0a:79:8c:f2:63:f7:38:e6:7d:
                    f4:03:29:3c:ac:a7:b3:e6:5c:2a:4e:ab:36:e7:5d:
                    f5:24:eb:39:4e:33:bb:f6:9f:d1:61:b2:a5:6a:c5:
                    07:19:98:23:ed:9c:0b:df:d6:2f:2d:d7:ea:fa:e1:
                    72:57:c2:21:d8:f1:e4:70:bf:fc:c4:95:6a:b5:99:
                    a8:5f:0f:64:51:79:2c:44:f1:db:c6:64:cf:92:46:
                    bf:25:ff:19:f8:ca:9b:1b:39:d8:97:4d:50:80:d9:
                    23:62:17:02:a3:d5:a3:8a:9f:3c:dd:31:9c:08:06:
                    c5:9e:2d
                Exponent: 65537 (0x10001)
        X509v3 extensions:
            X509v3 Key Usage: critical
                Digital Signature, Key Encipherment
            X509v3 Basic Constraints: 
                CA:FALSE
            X509v3 Extended Key Usage: 
                TLS Web Server Authentication, TLS Web Client Authentication
            X509v3 Subject Key Identifier: 
                74:95:CA:19:0D:FE:86:CE:73:C4:0A:F7:DE:37:71:3F:22:0F:DD:C2
            X509v3 Authority Key Identifier: 
                keyid:F8:9E:02:FC:4A:0D:42:21:E6:18:5C:50:21:68:5A:34:79:23:14:65

            Authority Information Access: 
                CA Issuers - URI:http://nitpicksy.no/ca/tls-ca.cer

            X509v3 CRL Distribution Points: 

                Full Name:
                  URI:http://nitpicksy.no/ca/tls-ca.crl

            X509v3 Subject Alternative Name: 
                DNS:nitpicksy.no, DNS:www.nitpicksy.no, DNS:localhost
    Signature Algorithm: sha256WithRSAEncryption
         05:3e:5f:2d:5c:ab:4a:f1:54:70:2e:dc:69:e5:3d:22:2a:1a:
         89:e9:3c:87:13:a8:c4:af:f7:f6:31:fa:e6:8b:47:49:67:55:
         3a:96:1f:88:79:49:a8:5e:61:ca:3a:14:cd:d6:5a:0d:20:54:
         ac:99:0c:aa:df:0a:aa:8f:49:b0:bd:34:28:b0:a7:f2:fa:41:
         c0:8e:0f:65:10:d9:52:3b:00:59:40:e3:3c:e2:74:93:00:90:
         76:f8:ff:09:b8:4e:b8:2e:e4:21:76:5e:a6:82:2d:de:71:90:
         ef:a0:bf:06:ac:6a:29:80:74:da:54:10:a8:81:9c:a8:25:f2:
         97:91:87:ec:a5:86:60:d1:6c:07:9d:12:2b:85:48:90:b9:53:
         65:59:98:4a:4e:0c:96:c0:dd:9e:75:1f:5b:4a:27:b5:87:7d:
         a2:8a:e7:dd:d5:fb:e1:66:32:dd:72:df:a6:64:17:13:a3:1e:
         dd:a1:55:15:35:6f:dd:66:e1:f2:7f:aa:4d:18:d2:bb:65:bb:
         d9:fa:7b:72:77:3d:b4:e3:73:49:e3:b5:87:47:30:aa:dc:69:
         8f:38:1b:41:1b:34:c9:26:31:b5:b3:e0:ff:3c:e4:eb:29:57:
         e6:fc:4f:aa:ac:47:c3:96:81:64:47:1d:c0:52:1b:9b:8c:81:
         0c:b6:98:cc:21:c9:cf:d7:ea:41:67:1b:79:65:b9:b3:8c:96:
         42:b5:2d:e6:fa:de:2d:45:af:35:57:99:d7:2c:07:4f:42:9d:
         e5:48:ae:45:7f:eb:63:d3:8a:03:b8:ac:3b:f3:8c:65:7d:19:
         43:9c:93:f7:49:dd:13:88:cb:13:c0:93:96:af:6f:0c:5a:d2:
         f3:56:54:1d:b2:70:c5:90:cf:d1:e4:3b:52:13:df:9c:95:bc:
         4d:16:4d:48:86:71:97:ac:c3:a4:80:0e:9d:63:6a:f4:77:7d:
         7c:7b:97:b3:9e:db:80:4a:d4:a3:39:5e:f3:e5:8a:4b:b1:dd:
         9d:9f:d6:bb:e9:3a:bd:29:8a:72:14:a9:7e:8d:d1:8d:71:4f:
         66:59:6b:96:79:5e:a1:8a:d5:14:51:e5:a2:4c:29:e0:07:fc:
         16:f2:96:6f:0c:4f:f1:90:4c:af:2e:98:e3:86:ac:35:4b:e4:
         25:fd:b5:ca:5c:c0:5f:33:4c:79:57:d3:6f:d4:d1:f4:c6:d1:
         92:14:d1:0d:14:06:a1:38:2d:07:55:8c:fb:4b:2a:43:01:18:
         2b:65:5c:41:7b:e5:41:5f:5a:8f:2f:5f:c6:9f:a4:6e:29:70:
         17:df:f8:50:bf:4d:58:09:5d:8f:aa:28:5e:f5:09:5e:57:00:
         d2:0f:98:a5:5f:84:31:e9
-----BEGIN CERTIFICATE-----
MIIGeTCCBGGgAwIBAgIUUXmpDw3hnl5x0V+G016r9CMh2jAwDQYJKoZIhvcNAQEL
BQAwZjELMAkGA1UEBhMCTk8xEjAQBgNVBAoMCU5pdHBpY2tzeTEoMCYGA1UECwwf
Tml0cGlja3N5IENlcnRpZmljYXRlIEF1dGhvcml0eTEZMBcGA1UEAwwQTml0cGlj
a3N5IFRMUyBDQTAeFw0yMDEyMDYyMTU5NDlaFw0yMjEyMDYyMTU5NDlaMFwxCzAJ
BgNVBAYTAk5PMRIwEAYDVQQKDAlOaXRwaWNrc3kxKDAmBgNVBAsMH05pdHBpY2tz
eSBDZXJ0aWZpY2F0ZSBBdXRob3JpdHkxDzANBgNVBAMMBkV1cmVrYTCCAiIwDQYJ
KoZIhvcNAQEBBQADggIPADCCAgoCggIBALab/EAHhQcrPHklYRjvyoZSDJTzq0Vz
voWpNpi9AdwSDdfTET+GamVECF3QTDbJ1lNQK7Rasxvz76gI3AnuzdQNiF7TnbV3
McaWeEt4BKPfwQH5JXfru2UylNfr+rNKlWzjeHtQJCn3HxP01dedRk2HywkdO+Zt
uMo7GhYF65oDhU91gxo5LVYkGxJtA8xZZ4u5P2KbMGjmvyUgL2erVtkQd/F70792
uL6N+wY5ww3GIOdyKKmP6uj3glJUvrBVEOfauIGyHewKOgjesn5ETVKOx3Rcqxzk
H7xqSACMEbnnD77jqN8mZTnrgi3wK3ua+aWj2GZMBqHNOs8KrNlFdyrHLDa3MUhe
ij15EJZqKs/aG5MTRN/AHz8oVFcIey0esYeLqFnPS+8bieYL5NIw3HK9Zptzr5ru
yxqiNNqSxDcCWUV/xABtdkRLdhSRSkbKFqh0lOu1I1gZugDU6x4EQBFi6kW8eaZX
ESI05EnJic2MMSZz8oR69orAyCHOAwRmrBY2/PxB508ztNbLCnmM8mP3OOZ99AMp
PKyns+ZcKk6rNudd9STrOU4zu/af0WGypWrFBxmYI+2cC9/WLy3X6vrhclfCIdjx
5HC//MSVarWZqF8PZFF5LETx28Zkz5JGvyX/GfjKmxs52JdNUIDZI2IXAqPVo4qf
PN0xnAgGxZ4tAgMBAAGjggEnMIIBIzAOBgNVHQ8BAf8EBAMCBaAwCQYDVR0TBAIw
ADAdBgNVHSUEFjAUBggrBgEFBQcDAQYIKwYBBQUHAwIwHQYDVR0OBBYEFHSVyhkN
/obOc8QK9943cT8iD93CMB8GA1UdIwQYMBaAFPieAvxKDUIh5hhcUCFoWjR5IxRl
MD0GCCsGAQUFBwEBBDEwLzAtBggrBgEFBQcwAoYhaHR0cDovL25pdHBpY2tzeS5u
by9jYS90bHMtY2EuY2VyMDIGA1UdHwQrMCkwJ6AloCOGIWh0dHA6Ly9uaXRwaWNr
c3kubm8vY2EvdGxzLWNhLmNybDA0BgNVHREELTArggxuaXRwaWNrc3kubm+CEHd3
dy5uaXRwaWNrc3kubm+CCWxvY2FsaG9zdDANBgkqhkiG9w0BAQsFAAOCAgEABT5f
LVyrSvFUcC7caeU9Iioaiek8hxOoxK/39jH65otHSWdVOpYfiHlJqF5hyjoUzdZa
DSBUrJkMqt8Kqo9JsL00KLCn8vpBwI4PZRDZUjsAWUDjPOJ0kwCQdvj/CbhOuC7k
IXZepoIt3nGQ76C/BqxqKYB02lQQqIGcqCXyl5GH7KWGYNFsB50SK4VIkLlTZVmY
Sk4MlsDdnnUfW0ontYd9oorn3dX74WYy3XLfpmQXE6Me3aFVFTVv3Wbh8n+qTRjS
u2W72fp7cnc9tONzSeO1h0cwqtxpjzgbQRs0ySYxtbPg/zzk6ylX5vxPqqxHw5aB
ZEcdwFIbm4yBDLaYzCHJz9fqQWcbeWW5s4yWQrUt5vreLUWvNVeZ1ywHT0Kd5Uiu
RX/rY9OKA7isO/OMZX0ZQ5yT90ndE4jLE8CTlq9vDFrS81ZUHbJwxZDP0eQ7UhPf
nJW8TRZNSIZxl6zDpIAOnWNq9Hd9fHuXs57bgErUozle8+WKS7HdnZ/Wu+k6vSmK
chSpfo3RjXFPZllrlnleoYrVFFHlokwp4Af8FvKWbwxP8ZBMry6Y44asNUvkJf21
ylzAXzNMeVfTb9TR9MbRkhTRDRQGoTgtB1WM+0sqQwEYK2VcQXvlQV9ajy9fxp+k
bilwF9/4UL9NWAldj6ooXvUJXlcA0g+YpV+EMek=
-----END CERTIFICATE-----
