Certificate:
    Data:
        Version: 3 (0x2)
        Serial Number:
            51:92:4a:0f:bc:b1:1b:2f:c8:45:0f:fa:c8:82:0c:9f:77:c7:21:7f
        Signature Algorithm: sha256WithRSAEncryption
        Issuer: C=NO, O=Nitpicksy, OU=Nitpicksy Certificate Authority, CN=Nitpicksy TLS CA
        Validity
            Not Before: Dec  6 22:20:01 2020 GMT
            Not After : Dec  6 22:20:01 2022 GMT
        Subject: C=NO, O=Nitpicksy Client AS, OU=Nitpicksy Certificate Authority, CN=Nitpicksy Client
        Subject Public Key Info:
            Public Key Algorithm: rsaEncryption
                RSA Public-Key: (4096 bit)
                Modulus:
                    00:c1:b4:1e:1b:19:ac:8e:0c:6e:5f:54:85:00:a2:
                    39:af:6c:1d:2a:47:75:eb:25:80:7d:2b:b1:e4:cc:
                    8c:df:73:68:67:a6:7f:d0:85:0d:5e:ac:12:c4:54:
                    dc:d0:78:9c:1e:45:10:21:95:72:2b:c6:13:7c:de:
                    f3:b5:98:66:36:be:5f:49:24:ef:74:7a:b3:3e:50:
                    32:48:07:d7:0f:0e:a2:f3:55:79:52:4c:c0:63:05:
                    22:d3:7d:21:d6:cb:60:6e:12:9a:ca:f4:9e:3e:14:
                    99:0e:a8:a3:84:75:4a:67:3b:a0:25:a0:8c:4e:b8:
                    d3:24:50:37:95:2d:15:5a:37:7c:9a:9b:51:1a:4e:
                    0d:6a:36:19:48:c0:74:f0:1a:19:be:11:fc:1e:d0:
                    cf:83:ae:13:8d:06:88:43:17:a3:27:e5:2b:15:80:
                    75:8e:85:89:f0:19:d8:69:48:a8:bd:3e:e4:42:12:
                    c5:f4:04:cb:de:1c:21:9e:65:28:e3:ae:7c:37:7d:
                    26:21:62:11:15:28:bb:c2:9a:04:21:73:8a:19:37:
                    ab:b9:b9:45:36:db:78:0d:f4:a4:4e:f8:ee:d7:ef:
                    cc:d7:c2:a6:6c:83:e0:9f:16:ea:37:24:b9:1f:28:
                    32:fe:da:00:22:b3:d0:d5:c6:63:18:7a:08:39:0d:
                    05:c1:26:65:ce:3c:81:f0:20:19:04:d8:df:de:e1:
                    25:2c:72:ed:72:b2:e6:8e:dc:79:0a:33:c0:6a:69:
                    d1:5b:53:36:3b:70:f3:5e:83:49:c7:bb:73:4f:cc:
                    c6:d8:38:fc:3f:93:ef:d3:8b:fe:d8:30:99:87:7d:
                    8c:ec:d5:65:a0:05:d0:dc:4b:10:27:b1:9e:b3:4f:
                    8f:5d:04:7a:f0:9d:36:13:44:38:47:d8:d9:24:a3:
                    37:58:ff:63:89:33:47:93:3a:51:57:58:e3:dc:1f:
                    c2:69:91:27:c8:13:92:f6:5c:a1:f4:bc:30:ed:1c:
                    75:2f:93:58:1b:96:a1:0d:f4:07:24:cc:b0:9d:fc:
                    1a:4e:2d:41:fa:72:ae:03:b3:69:d9:a5:20:05:de:
                    68:d0:7d:92:ad:5c:52:8e:ef:3b:c9:ad:9d:e9:7c:
                    00:6b:bc:32:dc:43:9f:7f:ca:8b:68:b6:c8:34:4d:
                    a7:fe:bc:7c:39:92:25:d9:a2:4b:5b:a5:9f:45:42:
                    a7:90:33:e0:57:7c:7a:82:8b:f6:3d:95:3e:dd:20:
                    c5:60:1f:bb:40:d7:c0:8a:e3:c0:33:af:42:29:fe:
                    c9:53:e9:5d:3f:da:90:67:87:e7:5a:40:c8:6a:72:
                    0a:ec:e5:ba:78:f2:cc:db:93:f0:26:06:8c:56:a6:
                    b6:d9:1b
                Exponent: 65537 (0x10001)
        X509v3 extensions:
            X509v3 Key Usage: critical
                Digital Signature
            X509v3 Basic Constraints: 
                CA:FALSE
            X509v3 Extended Key Usage: 
                TLS Web Client Authentication
            X509v3 Subject Key Identifier: 
                B8:F3:34:D5:D2:30:D0:5C:95:25:AB:82:05:16:9F:33:75:96:ED:DF
            X509v3 Authority Key Identifier: 
                keyid:52:53:5F:DA:76:E1:0A:7D:73:AE:D0:12:45:72:13:C1:30:4F:4E:39

            Authority Information Access: 
                CA Issuers - URI:http://nitpicksy.no/ca/tls-ca.cer

            X509v3 CRL Distribution Points: 

                Full Name:
                  URI:http://nitpicksy.no/ca/tls-ca.crl

    Signature Algorithm: sha256WithRSAEncryption
         74:a9:12:5a:8b:5f:16:ab:3c:28:b0:4c:4e:00:99:a5:ea:6c:
         2c:40:ba:cb:71:4a:e6:f0:f4:37:8c:94:3d:02:1f:2d:08:c3:
         e2:8f:0b:c2:25:ef:16:46:08:99:8a:70:3f:24:3f:c3:dc:68:
         69:b2:f2:7b:f8:49:49:38:73:fb:7a:f3:e5:6d:0e:4c:01:15:
         09:18:aa:1d:56:58:c1:e1:9e:0b:70:9e:64:15:52:08:f4:12:
         30:7a:1a:6b:46:33:77:1e:a6:c4:3e:df:ce:7d:74:fa:b8:f9:
         72:41:ff:1f:2a:8c:6b:42:99:4b:a5:36:28:13:66:c4:b8:9b:
         1d:9b:20:a2:23:06:aa:b2:bf:44:40:98:d0:f9:64:07:7a:39:
         ec:fa:ef:02:6a:be:87:aa:ad:1d:8a:06:7d:cf:05:2e:f6:ed:
         49:de:8a:1b:4c:21:e5:49:50:2a:cc:c7:f0:b8:15:5d:18:78:
         54:21:4d:bd:66:de:d9:bd:98:8a:8d:8a:4f:6d:d2:ab:d7:ac:
         94:45:af:97:3d:04:98:5b:ac:40:32:90:da:d6:27:fd:87:43:
         6c:44:49:a1:39:c8:02:ea:61:78:5a:72:8f:99:31:61:d6:41:
         bc:94:53:f4:ef:08:f3:3d:46:58:57:38:3f:ff:3c:90:1c:9f:
         1d:8e:b4:22:f3:9b:6f:7b:dc:14:64:49:20:6a:91:27:af:f7:
         06:21:8a:2f:5b:be:7f:f2:66:40:58:75:62:5e:ee:42:43:77:
         d2:d4:04:f1:02:67:bc:43:9b:f7:6c:24:b3:90:49:ad:c6:c4:
         b3:b0:66:2d:19:49:5c:45:52:a1:73:9c:27:5b:7b:e9:97:c6:
         72:fb:6f:3f:5f:0a:ba:a2:86:1a:45:b0:83:10:2d:40:cf:c5:
         ab:54:89:21:e6:eb:ed:f6:12:40:9a:9d:60:2d:8b:91:d7:ce:
         97:b6:12:14:8b:67:48:d9:c4:37:bc:fc:db:8d:81:86:24:22:
         64:43:9d:f0:7a:13:5e:2c:a9:7f:41:a2:88:65:ba:e6:2b:80:
         1f:d5:02:43:df:1c:8e:6e:b7:fb:8c:34:7c:9f:fa:14:47:00:
         bc:be:c7:21:cc:06:b5:8d:94:cc:3a:86:9f:64:97:14:2f:22:
         3c:57:ff:c3:04:59:b8:8d:42:22:85:3b:bf:8b:a9:50:19:bc:
         52:b6:30:7b:bf:fc:a2:42:cc:9f:91:3c:3d:a5:13:c8:36:5a:
         bb:8c:a8:a0:07:4b:05:6a:4c:0b:ed:e8:35:06:04:7c:98:c0:
         17:9a:08:cd:e7:26:14:f8:d0:3f:1c:92:60:26:9a:d2:81:79:
         d8:52:e7:6b:90:80:52:2f
-----BEGIN CERTIFICATE-----
MIIGSzCCBDOgAwIBAgIUUZJKD7yxGy/IRQ/6yIIMn3fHIX8wDQYJKoZIhvcNAQEL
BQAwZjELMAkGA1UEBhMCTk8xEjAQBgNVBAoMCU5pdHBpY2tzeTEoMCYGA1UECwwf
Tml0cGlja3N5IENlcnRpZmljYXRlIEF1dGhvcml0eTEZMBcGA1UEAwwQTml0cGlj
a3N5IFRMUyBDQTAeFw0yMDEyMDYyMjIwMDFaFw0yMjEyMDYyMjIwMDFaMHAxCzAJ
BgNVBAYTAk5PMRwwGgYDVQQKDBNOaXRwaWNrc3kgQ2xpZW50IEFTMSgwJgYDVQQL
DB9OaXRwaWNrc3kgQ2VydGlmaWNhdGUgQXV0aG9yaXR5MRkwFwYDVQQDDBBOaXRw
aWNrc3kgQ2xpZW50MIICIjANBgkqhkiG9w0BAQEFAAOCAg8AMIICCgKCAgEAwbQe
GxmsjgxuX1SFAKI5r2wdKkd16yWAfSux5MyM33NoZ6Z/0IUNXqwSxFTc0HicHkUQ
IZVyK8YTfN7ztZhmNr5fSSTvdHqzPlAySAfXDw6i81V5UkzAYwUi030h1stgbhKa
yvSePhSZDqijhHVKZzugJaCMTrjTJFA3lS0VWjd8mptRGk4NajYZSMB08BoZvhH8
HtDPg64TjQaIQxejJ+UrFYB1joWJ8BnYaUiovT7kQhLF9ATL3hwhnmUo4658N30m
IWIRFSi7wpoEIXOKGTerublFNtt4DfSkTvju1+/M18KmbIPgnxbqNyS5Hygy/toA
IrPQ1cZjGHoIOQ0FwSZlzjyB8CAZBNjf3uElLHLtcrLmjtx5CjPAamnRW1M2O3Dz
XoNJx7tzT8zG2Dj8P5Pv04v+2DCZh32M7NVloAXQ3EsQJ7Ges0+PXQR68J02E0Q4
R9jZJKM3WP9jiTNHkzpRV1jj3B/CaZEnyBOS9lyh9Lww7Rx1L5NYG5ahDfQHJMyw
nfwaTi1B+nKuA7Np2aUgBd5o0H2SrVxSju87ya2d6XwAa7wy3EOff8qLaLbINE2n
/rx8OZIl2aJLW6WfRUKnkDPgV3x6gov2PZU+3SDFYB+7QNfAiuPAM69CKf7JU+ld
P9qQZ4fnWkDIanIK7OW6ePLM25PwJgaMVqa22RsCAwEAAaOB5jCB4zAOBgNVHQ8B
Af8EBAMCB4AwCQYDVR0TBAIwADATBgNVHSUEDDAKBggrBgEFBQcDAjAdBgNVHQ4E
FgQUuPM01dIw0FyVJauCBRafM3WW7d8wHwYDVR0jBBgwFoAUUlNf2nbhCn1zrtAS
RXITwTBPTjkwPQYIKwYBBQUHAQEEMTAvMC0GCCsGAQUFBzAChiFodHRwOi8vbml0
cGlja3N5Lm5vL2NhL3Rscy1jYS5jZXIwMgYDVR0fBCswKTAnoCWgI4YhaHR0cDov
L25pdHBpY2tzeS5uby9jYS90bHMtY2EuY3JsMA0GCSqGSIb3DQEBCwUAA4ICAQB0
qRJai18WqzwosExOAJml6mwsQLrLcUrm8PQ3jJQ9Ah8tCMPijwvCJe8WRgiZinA/
JD/D3GhpsvJ7+ElJOHP7evPlbQ5MARUJGKodVljB4Z4LcJ5kFVII9BIwehprRjN3
HqbEPt/OfXT6uPlyQf8fKoxrQplLpTYoE2bEuJsdmyCiIwaqsr9EQJjQ+WQHejns
+u8Car6Hqq0digZ9zwUu9u1J3oobTCHlSVAqzMfwuBVdGHhUIU29Zt7ZvZiKjYpP
bdKr16yURa+XPQSYW6xAMpDa1if9h0NsREmhOcgC6mF4WnKPmTFh1kG8lFP07wjz
PUZYVzg//zyQHJ8djrQi85tve9wUZEkgapEnr/cGIYovW75/8mZAWHViXu5CQ3fS
1ATxAme8Q5v3bCSzkEmtxsSzsGYtGUlcRVKhc5wnW3vpl8Zy+28/Xwq6ooYaRbCD
EC1Az8WrVIkh5uvt9hJAmp1gLYuR186XthIUi2dI2cQ3vPzbjYGGJCJkQ53wehNe
LKl/QaKIZbrmK4Af1QJD3xyObrf7jDR8n/oURwC8vschzAa1jZTMOoafZJcULyI8
V//DBFm4jUIihTu/i6lQGbxStjB7v/yiQsyfkTw9pRPINlq7jKigB0sFakwL7eg1
BgR8mMAXmgjN5yYU+NA/HJJgJprSgXnYUudrkIBSLw==
-----END CERTIFICATE-----
