Certificate:
    Data:
        Version: 3 (0x2)
        Serial Number:
            52:09:89:a0:84:03:41:8b:30:b5:7b:8c:a8:a4:83:d4:32:e3:66:75
        Signature Algorithm: sha256WithRSAEncryption
        Issuer: C=NO, O=Nitpicksy, OU=Nitpicksy Certificate Authority, CN=Nitpicksy TLS CA
        Validity
            Not Before: Dec  6 21:59:54 2020 GMT
            Not After : Dec  6 21:59:54 2022 GMT
        Subject: C=NO, O=Nitpicksy, OU=Nitpicksy Certificate Authority, CN=Bank
        Subject Public Key Info:
            Public Key Algorithm: rsaEncryption
                RSA Public-Key: (4096 bit)
                Modulus:
                    00:cb:f3:37:53:f0:a0:43:42:18:43:12:d1:6c:b4:
                    ba:a8:e3:0e:49:d5:a0:51:c7:cb:11:cc:c6:d0:0d:
                    61:84:4a:fd:20:61:68:92:f5:da:8d:64:23:e2:7c:
                    ca:f7:ff:27:3a:6e:b8:97:b0:5b:17:81:c5:6e:2c:
                    bf:12:4c:82:fa:4c:87:81:71:c5:11:a7:e2:51:64:
                    03:67:55:e9:ff:20:de:f0:f0:9b:a3:38:83:cd:d6:
                    78:11:b3:93:68:93:46:4b:62:02:3e:a8:e6:94:b8:
                    ca:a8:3d:6b:ef:36:1d:5b:69:db:4f:df:eb:44:b8:
                    0e:12:7a:d0:1a:7c:a8:f5:1c:39:a4:7c:8e:49:cc:
                    d4:9a:2a:73:52:d0:3b:ac:2e:71:7f:af:7f:e0:3b:
                    54:72:b2:9b:81:05:2c:e8:9f:d1:07:47:7e:57:5b:
                    ad:f8:81:66:aa:b5:7e:37:e5:a2:9c:61:6d:99:a9:
                    e7:2c:77:b4:ea:83:6e:2d:5b:e3:36:26:aa:91:88:
                    9d:c8:2f:8d:03:75:8e:a2:d3:06:30:a4:44:5e:1f:
                    08:92:66:bb:c8:4b:f1:c4:37:8f:25:90:8c:28:ee:
                    cd:ed:f1:1b:23:6f:20:97:04:f5:fe:80:99:c9:29:
                    c3:cc:ce:a4:16:47:b0:f9:91:7a:2f:ad:5d:d7:09:
                    b0:a0:71:0f:50:5c:b4:af:da:81:d3:9d:67:16:3d:
                    f6:95:85:1f:20:f5:40:39:df:3c:49:52:fd:10:11:
                    3a:6c:40:12:85:91:c2:60:e5:49:41:cf:08:41:c4:
                    28:dc:86:13:9f:f8:fe:9f:9a:38:a8:46:0e:fb:59:
                    23:b8:20:11:43:5e:b6:0b:ce:ef:55:97:50:45:8e:
                    91:91:ff:84:12:6f:01:b3:b7:10:b4:56:b9:11:9e:
                    99:d8:4e:57:ac:50:d7:df:a7:0d:67:4f:eb:84:fc:
                    b4:1b:88:ad:71:8a:bc:c2:7e:9d:be:24:ad:4c:05:
                    06:e3:20:ba:68:d6:72:51:2c:a8:4c:3a:06:66:aa:
                    5f:20:92:c7:5d:10:4d:b2:f6:d4:b0:f0:ac:f1:cd:
                    16:da:fc:8f:f5:ce:3f:3c:8e:64:c3:07:51:98:f4:
                    fa:1b:1e:37:1b:70:62:7f:bc:e1:c5:f2:38:f1:9e:
                    16:f2:eb:81:39:34:f2:15:f9:5a:25:b1:d9:fe:eb:
                    b0:45:da:01:32:19:35:af:15:60:5d:7b:c5:d8:7a:
                    4a:dd:37:4e:6e:53:b3:d5:18:5f:92:e0:b8:49:c9:
                    ac:46:2c:fb:21:74:bc:d3:d5:11:26:91:96:e6:5b:
                    3f:da:97:dc:26:79:16:d0:de:b4:24:4e:38:3e:bb:
                    2b:cc:b5
                Exponent: 65537 (0x10001)
        X509v3 extensions:
            X509v3 Key Usage: critical
                Digital Signature, Key Encipherment
            X509v3 Basic Constraints: 
                CA:FALSE
            X509v3 Extended Key Usage: 
                TLS Web Server Authentication, TLS Web Client Authentication
            X509v3 Subject Key Identifier: 
                49:A8:9F:E3:16:EE:B4:60:94:EB:3C:61:20:26:14:E2:47:BE:8D:5E
            X509v3 Authority Key Identifier: 
                keyid:F8:9E:02:FC:4A:0D:42:21:E6:18:5C:50:21:68:5A:34:79:23:14:65

            Authority Information Access: 
                CA Issuers - URI:http://nitpicksy.no/ca/tls-ca.cer

            X509v3 CRL Distribution Points: 

                Full Name:
                  URI:http://nitpicksy.no/ca/tls-ca.crl

            X509v3 Subject Alternative Name: 
                DNS:nitpicksy.no, DNS:www.nitpicksy.no, DNS:localhost
    Signature Algorithm: sha256WithRSAEncryption
         27:69:b5:8b:ce:12:d5:9f:cb:df:b6:ec:9f:b6:73:db:45:0d:
         72:3d:63:b7:74:f2:d1:d7:0c:45:d3:8e:2a:92:d9:40:02:e0:
         06:35:ba:bc:cf:f7:06:2f:46:16:40:b5:01:88:20:cb:60:c7:
         7d:15:50:e8:ff:fc:86:76:27:ce:e4:88:41:00:a3:3c:d4:4f:
         a9:5b:65:71:99:6b:63:7d:e0:b8:98:fe:91:f9:90:23:05:a9:
         20:5c:75:1f:33:49:ac:ab:00:e9:21:1c:bb:53:4e:3b:74:22:
         86:e5:d3:8e:bb:9d:68:3a:b2:6f:33:5d:57:72:f6:82:3d:25:
         6c:d2:4e:64:29:54:22:12:bc:fd:fe:f0:5d:23:5f:ba:2c:41:
         1f:bd:38:06:dd:d0:92:83:f7:b8:1f:45:28:b1:77:7a:c7:2f:
         0b:f8:59:e2:78:2d:58:63:19:6b:36:2c:ce:86:0c:04:98:e1:
         d6:27:0f:ac:e0:01:f6:e3:89:a3:01:a0:3b:89:1c:fd:e4:f9:
         06:75:ce:b9:f9:40:6a:4b:b1:89:48:21:de:7f:cf:2c:00:75:
         d2:55:6c:db:2f:50:67:bb:2a:ec:cd:fa:74:23:a3:98:c3:01:
         f6:09:6a:a2:79:13:a7:43:de:0d:1c:d3:e7:33:7b:16:fe:37:
         c0:4c:e2:13:12:c9:9f:26:3e:43:91:30:5d:bd:25:c4:9a:2f:
         5c:e3:6c:51:bd:78:50:f0:9b:0a:4c:ce:f3:51:16:70:e0:10:
         31:68:32:de:10:9d:53:f7:9f:60:91:22:2d:d5:53:65:3d:46:
         4a:45:43:eb:35:56:bf:e7:e0:6f:5f:7a:85:ee:3e:ba:79:da:
         f7:e5:d8:40:32:80:b3:f2:2b:98:6b:79:1c:b2:1c:21:38:d1:
         64:ac:a6:43:46:5b:f6:b7:90:97:09:5d:d4:82:a6:2d:75:d3:
         8b:75:30:48:58:4e:35:ca:f2:2b:08:98:4f:88:6b:aa:03:77:
         3f:e9:14:6a:0e:c4:e4:ee:7a:ae:ec:a3:bf:1a:39:74:97:8e:
         22:a3:d6:ae:58:ea:08:cb:a7:6e:6a:7d:13:1c:d9:7e:1d:38:
         61:cb:49:2d:1a:c6:f8:fa:c8:d9:19:93:e8:a2:cb:43:e4:42:
         03:9b:6d:e3:a1:5a:ac:d4:ff:60:da:33:0b:ca:ec:99:ab:6e:
         00:5a:ee:02:5c:0f:95:a0:73:7f:d5:54:38:ae:ac:11:62:6a:
         a1:29:a5:57:2f:1e:bd:71:1c:d8:24:db:23:e7:27:19:27:30:
         a3:44:0c:a5:2f:00:bc:e8:4d:be:11:a8:84:f6:9b:36:4b:9b:
         c0:9f:4f:70:bd:55:9d:5d
-----BEGIN CERTIFICATE-----
MIIGdzCCBF+gAwIBAgIUUgmJoIQDQYswtXuMqKSD1DLjZnUwDQYJKoZIhvcNAQEL
BQAwZjELMAkGA1UEBhMCTk8xEjAQBgNVBAoMCU5pdHBpY2tzeTEoMCYGA1UECwwf
Tml0cGlja3N5IENlcnRpZmljYXRlIEF1dGhvcml0eTEZMBcGA1UEAwwQTml0cGlj
a3N5IFRMUyBDQTAeFw0yMDEyMDYyMTU5NTRaFw0yMjEyMDYyMTU5NTRaMFoxCzAJ
BgNVBAYTAk5PMRIwEAYDVQQKDAlOaXRwaWNrc3kxKDAmBgNVBAsMH05pdHBpY2tz
eSBDZXJ0aWZpY2F0ZSBBdXRob3JpdHkxDTALBgNVBAMMBEJhbmswggIiMA0GCSqG
SIb3DQEBAQUAA4ICDwAwggIKAoICAQDL8zdT8KBDQhhDEtFstLqo4w5J1aBRx8sR
zMbQDWGESv0gYWiS9dqNZCPifMr3/yc6briXsFsXgcVuLL8STIL6TIeBccURp+JR
ZANnVen/IN7w8JujOIPN1ngRs5Nok0ZLYgI+qOaUuMqoPWvvNh1badtP3+tEuA4S
etAafKj1HDmkfI5JzNSaKnNS0DusLnF/r3/gO1RyspuBBSzon9EHR35XW634gWaq
tX435aKcYW2Zqecsd7Tqg24tW+M2JqqRiJ3IL40DdY6i0wYwpEReHwiSZrvIS/HE
N48lkIwo7s3t8RsjbyCXBPX+gJnJKcPMzqQWR7D5kXovrV3XCbCgcQ9QXLSv2oHT
nWcWPfaVhR8g9UA53zxJUv0QETpsQBKFkcJg5UlBzwhBxCjchhOf+P6fmjioRg77
WSO4IBFDXrYLzu9Vl1BFjpGR/4QSbwGztxC0VrkRnpnYTlesUNffpw1nT+uE/LQb
iK1xirzCfp2+JK1MBQbjILpo1nJRLKhMOgZmql8gksddEE2y9tSw8KzxzRba/I/1
zj88jmTDB1GY9PobHjcbcGJ/vOHF8jjxnhby64E5NPIV+Volsdn+67BF2gEyGTWv
FWBde8XYekrdN05uU7PVGF+S4LhJyaxGLPshdLzT1REmkZbmWz/al9wmeRbQ3rQk
Tjg+uyvMtQIDAQABo4IBJzCCASMwDgYDVR0PAQH/BAQDAgWgMAkGA1UdEwQCMAAw
HQYDVR0lBBYwFAYIKwYBBQUHAwEGCCsGAQUFBwMCMB0GA1UdDgQWBBRJqJ/jFu60
YJTrPGEgJhTiR76NXjAfBgNVHSMEGDAWgBT4ngL8Sg1CIeYYXFAhaFo0eSMUZTA9
BggrBgEFBQcBAQQxMC8wLQYIKwYBBQUHMAKGIWh0dHA6Ly9uaXRwaWNrc3kubm8v
Y2EvdGxzLWNhLmNlcjAyBgNVHR8EKzApMCegJaAjhiFodHRwOi8vbml0cGlja3N5
Lm5vL2NhL3Rscy1jYS5jcmwwNAYDVR0RBC0wK4IMbml0cGlja3N5Lm5vghB3d3cu
bml0cGlja3N5Lm5vgglsb2NhbGhvc3QwDQYJKoZIhvcNAQELBQADggIBACdptYvO
EtWfy9+27J+2c9tFDXI9Y7d08tHXDEXTjiqS2UAC4AY1urzP9wYvRhZAtQGIIMtg
x30VUOj//IZ2J87kiEEAozzUT6lbZXGZa2N94LiY/pH5kCMFqSBcdR8zSayrAOkh
HLtTTjt0Iobl0467nWg6sm8zXVdy9oI9JWzSTmQpVCISvP3+8F0jX7osQR+9OAbd
0JKD97gfRSixd3rHLwv4WeJ4LVhjGWs2LM6GDASY4dYnD6zgAfbjiaMBoDuJHP3k
+QZ1zrn5QGpLsYlIId5/zywAddJVbNsvUGe7KuzN+nQjo5jDAfYJaqJ5E6dD3g0c
0+czexb+N8BM4hMSyZ8mPkORMF29JcSaL1zjbFG9eFDwmwpMzvNRFnDgEDFoMt4Q
nVP3n2CRIi3VU2U9RkpFQ+s1Vr/n4G9feoXuPrp52vfl2EAygLPyK5hreRyyHCE4
0WSspkNGW/a3kJcJXdSCpi1104t1MEhYTjXK8isImE+Ia6oDdz/pFGoOxOTueq7s
o78aOXSXjiKj1q5Y6gjLp25qfRMc2X4dOGHLSS0axvj6yNkZk+iiy0PkQgObbeOh
WqzU/2DaMwvK7JmrbgBa7gJcD5Wgc3/VVDiurBFiaqEppVcvHr1xHNgk2yPnJxkn
MKNEDKUvALzoTb4RqIT2mzZLm8CfT3C9VZ1d
-----END CERTIFICATE-----
