Certificate:
    Data:
        Version: 3 (0x2)
        Serial Number:
            52:69:36:ac:66:c4:76:c1:b2:d6:d3:73:fc:5d:e3:9d:01:44:1d:a2
        Signature Algorithm: sha256WithRSAEncryption
        Issuer: C=NO, O=Nitpicksy, OU=Nitpicksy Certificate Authority, CN=Nitpicksy TLS CA
        Validity
            Not Before: Dec  6 21:59:50 2020 GMT
            Not After : Dec  6 21:59:50 2022 GMT
        Subject: C=NO, O=Nitpicksy, OU=Nitpicksy Certificate Authority, CN=Literary Society
        Subject Public Key Info:
            Public Key Algorithm: rsaEncryption
                RSA Public-Key: (4096 bit)
                Modulus:
                    00:a2:ed:db:19:a9:81:11:58:50:37:e6:a9:4d:dd:
                    ae:98:dc:ac:76:54:d1:fd:92:0d:a3:61:65:bd:71:
                    f3:18:d0:04:cf:ad:f3:36:0e:45:87:21:17:b4:5d:
                    56:f4:89:4d:bf:f4:a4:91:a7:3f:a2:25:cd:e7:98:
                    94:1d:5d:cc:48:9c:03:4b:05:19:bc:0d:20:4e:5f:
                    f5:1d:08:2c:51:1a:d5:fc:5a:aa:c2:42:d9:19:b8:
                    09:ab:59:ca:03:a9:03:9c:48:e4:55:78:bd:95:4f:
                    fc:10:03:80:55:7e:43:64:cb:4c:5e:fb:4b:46:33:
                    46:44:b3:35:6f:e7:37:11:6b:2d:ad:e3:89:9f:3c:
                    72:ab:82:7c:f7:56:7d:8c:68:b3:22:11:d8:60:ef:
                    3d:c4:59:b1:39:a3:c1:cb:ab:f5:33:9a:b2:bf:2e:
                    2a:9a:6c:9a:29:9c:82:5d:5e:68:f8:2a:bb:bf:89:
                    ca:13:49:9c:c1:d1:ba:80:5b:32:0e:95:14:09:82:
                    fa:a8:06:dd:13:a6:69:6b:4c:f7:6c:9c:4a:65:a8:
                    7d:93:17:f8:4a:6e:82:43:a9:7e:df:6d:e7:82:0d:
                    49:cd:43:ed:ff:79:5e:76:53:17:ff:0a:62:9f:8c:
                    9c:50:b1:70:b4:a9:75:6c:3d:e4:0e:b3:8b:f6:91:
                    7b:d2:aa:c6:cf:74:53:26:b8:c9:57:16:0c:be:09:
                    94:89:85:b5:79:58:bb:7a:cd:2f:48:e6:57:64:51:
                    27:1b:4c:de:52:73:70:a9:aa:3a:3d:26:ad:16:39:
                    5b:41:12:22:d8:f3:9e:8d:bd:26:21:5c:df:a1:bd:
                    34:7c:d5:ed:92:f4:f4:31:24:3a:fb:0d:86:31:d6:
                    f9:93:50:35:f4:f3:f1:6b:18:17:20:f8:48:b0:d1:
                    a9:df:af:6b:75:db:f6:5b:84:d5:c9:db:48:53:77:
                    ec:35:2f:4d:e1:0f:8b:d1:de:cf:03:41:3a:ed:43:
                    a7:be:0d:c8:79:a8:2e:51:d5:29:6c:30:d1:e0:7a:
                    71:d3:3a:ef:d9:79:85:d1:07:57:f6:5a:a2:4c:67:
                    94:04:34:18:fc:7e:1d:88:5b:13:ae:95:d4:87:a8:
                    7d:30:45:89:5e:65:73:92:45:e4:56:b5:f9:41:be:
                    0e:22:fb:9c:e3:14:e7:60:80:32:7f:fd:d0:c7:02:
                    f9:68:31:e5:12:10:d6:2c:4f:1a:52:a4:59:69:9d:
                    c8:2d:16:06:a3:e6:34:b6:be:4c:50:9f:c5:a6:0c:
                    88:17:db:f7:1c:ac:25:a4:57:ec:57:9f:7d:b8:77:
                    6a:45:cf:c6:ab:f5:20:18:bc:2b:78:8b:ad:57:8c:
                    51:a5:f7
                Exponent: 65537 (0x10001)
        X509v3 extensions:
            X509v3 Key Usage: critical
                Digital Signature, Key Encipherment
            X509v3 Basic Constraints: 
                CA:FALSE
            X509v3 Extended Key Usage: 
                TLS Web Server Authentication, TLS Web Client Authentication
            X509v3 Subject Key Identifier: 
                BD:3D:37:A1:B0:C0:05:CB:B5:85:45:1B:12:3B:55:5F:4A:2F:07:73
            X509v3 Authority Key Identifier: 
                keyid:F8:9E:02:FC:4A:0D:42:21:E6:18:5C:50:21:68:5A:34:79:23:14:65

            Authority Information Access: 
                CA Issuers - URI:http://nitpicksy.no/ca/tls-ca.cer

            X509v3 CRL Distribution Points: 

                Full Name:
                  URI:http://nitpicksy.no/ca/tls-ca.crl

            X509v3 Subject Alternative Name: 
                DNS:nitpicksy.no, DNS:www.nitpicksy.no, DNS:localhost
    Signature Algorithm: sha256WithRSAEncryption
         7a:56:d9:d5:d4:85:01:30:4f:7a:00:bb:5f:12:dd:e8:14:d2:
         0c:6f:2b:80:9e:26:f0:cf:17:6f:07:38:7d:25:25:88:a9:71:
         d7:20:59:83:92:22:be:5c:45:11:b5:7e:02:b6:60:93:a3:14:
         5e:45:99:ce:81:6a:fd:69:7d:a2:e2:72:a6:d8:c1:2c:d5:3e:
         87:33:40:93:c4:1b:09:7e:cf:3a:e6:53:59:21:90:5b:65:5f:
         3a:a4:be:c4:c8:1b:2f:d7:d8:dd:c6:13:d9:c7:5a:06:d8:f3:
         b7:75:88:2a:97:49:42:30:2b:09:ce:11:7b:b2:82:fb:55:07:
         9d:7c:2e:d9:9f:98:01:f8:c1:40:57:6a:85:42:98:93:d6:d9:
         bf:95:7d:23:92:40:91:ff:18:b5:93:1f:99:a3:b7:aa:01:a4:
         93:a2:3c:47:e6:09:dd:a2:ba:68:c8:14:77:a5:cd:9e:8a:95:
         25:dd:89:9f:ae:07:f5:22:c1:4b:37:03:a5:b0:5e:3d:48:b4:
         97:cf:58:58:d8:cc:2e:2d:b6:ac:8d:f1:94:df:09:3c:00:e5:
         3c:55:ac:09:e1:14:16:99:ba:6d:77:34:a4:7e:2c:91:5d:5b:
         0c:76:04:d7:62:9d:14:37:56:07:d2:8d:3d:91:be:ce:96:f0:
         e2:b4:b1:92:85:78:69:3c:3f:da:94:ff:19:85:fe:e5:ad:a9:
         e2:1d:f9:c5:4e:c4:75:d7:ae:57:7c:0e:ea:ff:e0:73:5b:ce:
         c3:b1:3e:47:cf:64:62:91:d4:99:dd:64:90:62:c5:96:97:a4:
         c7:52:e0:31:3b:3d:c8:f3:86:54:64:41:74:d0:99:fe:47:8e:
         44:97:9a:c5:4c:95:e3:b6:c3:0d:50:dd:90:e9:5f:c3:df:cd:
         f4:45:b1:45:1d:6c:1e:df:e1:fc:cc:bd:c2:40:25:05:43:34:
         b8:04:35:33:f1:6f:55:60:27:2c:ba:52:5b:2c:51:9c:7d:49:
         6d:cc:32:a1:0a:4d:ff:70:f4:02:55:66:d6:27:66:ea:5e:5c:
         83:d5:f5:2c:8c:df:aa:3d:a3:fe:2c:6f:e4:ba:62:3d:63:43:
         e2:0d:72:71:39:4d:df:1d:71:1b:fe:e5:58:6d:4d:f2:12:e9:
         87:d7:66:f6:5d:6d:55:32:52:6e:f0:24:83:4c:2c:94:47:3b:
         b7:ac:b7:1c:bf:8d:15:ec:de:10:4a:12:b4:50:19:33:32:04:
         ef:3e:81:3f:03:c5:91:9e:65:78:79:58:e8:f1:ce:99:3f:2d:
         74:2d:87:d2:a1:30:05:ea:3c:85:3e:6b:55:a9:7c:8c:8f:f1:
         a2:08:ed:17:a4:cd:52:99
-----BEGIN CERTIFICATE-----
MIIGgzCCBGugAwIBAgIUUmk2rGbEdsGy1tNz/F3jnQFEHaIwDQYJKoZIhvcNAQEL
BQAwZjELMAkGA1UEBhMCTk8xEjAQBgNVBAoMCU5pdHBpY2tzeTEoMCYGA1UECwwf
Tml0cGlja3N5IENlcnRpZmljYXRlIEF1dGhvcml0eTEZMBcGA1UEAwwQTml0cGlj
a3N5IFRMUyBDQTAeFw0yMDEyMDYyMTU5NTBaFw0yMjEyMDYyMTU5NTBaMGYxCzAJ
BgNVBAYTAk5PMRIwEAYDVQQKDAlOaXRwaWNrc3kxKDAmBgNVBAsMH05pdHBpY2tz
eSBDZXJ0aWZpY2F0ZSBBdXRob3JpdHkxGTAXBgNVBAMMEExpdGVyYXJ5IFNvY2ll
dHkwggIiMA0GCSqGSIb3DQEBAQUAA4ICDwAwggIKAoICAQCi7dsZqYERWFA35qlN
3a6Y3Kx2VNH9kg2jYWW9cfMY0ATPrfM2DkWHIRe0XVb0iU2/9KSRpz+iJc3nmJQd
XcxInANLBRm8DSBOX/UdCCxRGtX8WqrCQtkZuAmrWcoDqQOcSORVeL2VT/wQA4BV
fkNky0xe+0tGM0ZEszVv5zcRay2t44mfPHKrgnz3Vn2MaLMiEdhg7z3EWbE5o8HL
q/UzmrK/LiqabJopnIJdXmj4Kru/icoTSZzB0bqAWzIOlRQJgvqoBt0TpmlrTPds
nEplqH2TF/hKboJDqX7fbeeCDUnNQ+3/eV52Uxf/CmKfjJxQsXC0qXVsPeQOs4v2
kXvSqsbPdFMmuMlXFgy+CZSJhbV5WLt6zS9I5ldkUScbTN5Sc3Cpqjo9Jq0WOVtB
EiLY856NvSYhXN+hvTR81e2S9PQxJDr7DYYx1vmTUDX08/FrGBcg+Eiw0anfr2t1
2/ZbhNXJ20hTd+w1L03hD4vR3s8DQTrtQ6e+Dch5qC5R1SlsMNHgenHTOu/ZeYXR
B1f2WqJMZ5QENBj8fh2IWxOuldSHqH0wRYleZXOSReRWtflBvg4i+5zjFOdggDJ/
/dDHAvloMeUSENYsTxpSpFlpncgtFgaj5jS2vkxQn8WmDIgX2/ccrCWkV+xXn324
d2pFz8ar9SAYvCt4i61XjFGl9wIDAQABo4IBJzCCASMwDgYDVR0PAQH/BAQDAgWg
MAkGA1UdEwQCMAAwHQYDVR0lBBYwFAYIKwYBBQUHAwEGCCsGAQUFBwMCMB0GA1Ud
DgQWBBS9PTehsMAFy7WFRRsSO1VfSi8HczAfBgNVHSMEGDAWgBT4ngL8Sg1CIeYY
XFAhaFo0eSMUZTA9BggrBgEFBQcBAQQxMC8wLQYIKwYBBQUHMAKGIWh0dHA6Ly9u
aXRwaWNrc3kubm8vY2EvdGxzLWNhLmNlcjAyBgNVHR8EKzApMCegJaAjhiFodHRw
Oi8vbml0cGlja3N5Lm5vL2NhL3Rscy1jYS5jcmwwNAYDVR0RBC0wK4IMbml0cGlj
a3N5Lm5vghB3d3cubml0cGlja3N5Lm5vgglsb2NhbGhvc3QwDQYJKoZIhvcNAQEL
BQADggIBAHpW2dXUhQEwT3oAu18S3egU0gxvK4CeJvDPF28HOH0lJYipcdcgWYOS
Ir5cRRG1fgK2YJOjFF5Fmc6Bav1pfaLicqbYwSzVPoczQJPEGwl+zzrmU1khkFtl
XzqkvsTIGy/X2N3GE9nHWgbY87d1iCqXSUIwKwnOEXuygvtVB518LtmfmAH4wUBX
aoVCmJPW2b+VfSOSQJH/GLWTH5mjt6oBpJOiPEfmCd2iumjIFHelzZ6KlSXdiZ+u
B/UiwUs3A6WwXj1ItJfPWFjYzC4ttqyN8ZTfCTwA5TxVrAnhFBaZum13NKR+LJFd
Wwx2BNdinRQ3VgfSjT2Rvs6W8OK0sZKFeGk8P9qU/xmF/uWtqeId+cVOxHXXrld8
Dur/4HNbzsOxPkfPZGKR1JndZJBixZaXpMdS4DE7PcjzhlRkQXTQmf5HjkSXmsVM
leO2ww1Q3ZDpX8PfzfRFsUUdbB7f4fzMvcJAJQVDNLgENTPxb1VgJyy6UlssUZx9
SW3MMqEKTf9w9AJVZtYnZupeXIPV9SyM36o9o/4sb+S6Yj1jQ+INcnE5Td8dcRv+
5VhtTfIS6YfXZvZdbVUyUm7wJINMLJRHO7estxy/jRXs3hBKErRQGTMyBO8+gT8D
xZGeZXh5WOjxzpk/LXQth9KhMAXqPIU+a1WpfIyP8aII7RekzVKZ
-----END CERTIFICATE-----
