Certificate:
    Data:
        Version: 3 (0x2)
        Serial Number:
            57:95:65:85:7e:8c:ab:0c:a1:b8:77:18:e9:94:46:9b:a5:6f:66:53
        Signature Algorithm: sha256WithRSAEncryption
        Issuer: C=NO, O=Nitpicksy, OU=Nitpicksy Certificate Authority, CN=Nitpicksy TLS CA
        Validity
            Not Before: Dec  6 22:39:37 2020 GMT
            Not After : Dec  6 22:39:37 2022 GMT
        Subject: C=NO, O=Nitpicksy, OU=Nitpicksy Certificate Authority, CN=Bitcoin
        Subject Public Key Info:
            Public Key Algorithm: rsaEncryption
                RSA Public-Key: (4096 bit)
                Modulus:
                    00:bc:b2:78:e7:ef:e9:23:d1:23:5f:a0:84:7e:9c:
                    a6:86:83:13:61:ca:f3:71:df:79:33:80:d7:b1:43:
                    6e:34:c6:1f:10:71:d4:01:b7:96:a6:bb:f5:f9:53:
                    58:09:44:96:d7:9e:4e:1b:9c:34:98:0d:04:20:94:
                    9b:88:7f:a6:e0:29:e4:70:ab:ba:9f:50:66:b7:d8:
                    43:b4:ba:ff:56:be:9a:19:ac:e4:65:46:33:f4:e1:
                    82:22:4d:06:85:cf:71:e7:c1:69:f5:fc:f2:c5:3d:
                    b2:43:e4:45:39:1c:18:00:6b:89:6c:a5:7b:f4:9c:
                    4b:0a:05:0d:17:16:74:f3:79:47:fd:8d:0f:cc:19:
                    eb:cd:c4:f3:ae:99:a5:55:40:5c:59:d7:b8:54:f4:
                    51:16:11:d3:67:e4:be:bd:e6:bc:2c:59:28:c1:76:
                    ae:f9:a8:61:40:6f:13:26:1a:4c:3d:37:69:9d:79:
                    60:8b:95:5e:fe:46:bd:c8:18:08:13:64:ba:da:4f:
                    b4:5e:63:e3:8e:6f:63:6f:c3:a4:29:0f:11:57:f5:
                    ed:69:f8:77:86:52:cb:93:b6:2c:11:bf:94:09:8a:
                    10:fc:92:b8:a7:e9:52:e2:97:c5:e6:46:ab:e3:07:
                    4e:c2:4b:d8:24:e8:0e:08:1e:52:cf:a3:5f:c6:7d:
                    c4:32:c0:e5:8b:88:42:06:eb:b1:36:2f:43:fc:0d:
                    50:a7:db:0e:09:65:4d:58:58:44:b5:bc:7d:8f:62:
                    57:f4:cb:ef:e3:9b:4c:de:50:f7:36:15:0f:46:c0:
                    e3:5d:52:26:f1:f8:81:a7:35:46:a5:fd:a0:a6:26:
                    37:29:b8:48:77:85:2d:9b:2b:5c:9b:94:4f:72:4c:
                    74:28:1b:de:fe:f3:9b:5d:2c:d8:c6:d1:b6:1d:da:
                    07:aa:ef:8e:98:82:a2:c4:7b:96:a4:27:58:9d:24:
                    84:5f:a1:17:6d:3a:9e:13:e7:ae:cb:43:45:7c:88:
                    bb:0c:fd:ed:12:4e:7b:38:6e:59:f5:ce:3f:dc:e8:
                    33:cf:0f:e2:fd:28:c6:23:ef:c4:64:cd:88:f4:44:
                    49:9b:52:b1:ad:7f:30:3d:13:99:58:87:d4:9e:c2:
                    12:94:df:25:5b:91:f1:5d:c3:60:12:d8:e6:3f:f2:
                    e0:f5:8b:27:43:bb:dc:9a:af:52:bb:25:d6:71:04:
                    1f:93:38:8f:54:86:20:d4:e7:af:a1:e3:0e:61:69:
                    43:ca:e4:a4:47:1a:7d:eb:b5:11:dd:91:9e:a2:35:
                    1d:b5:ad:b5:d4:93:f4:1d:df:a5:d1:23:15:c8:61:
                    06:c2:62:27:b7:f8:84:27:d8:da:7f:3f:3c:3e:d8:
                    1d:08:0d
                Exponent: 65537 (0x10001)
        X509v3 extensions:
            X509v3 Key Usage: critical
                Digital Signature, Key Encipherment
            X509v3 Basic Constraints: 
                CA:FALSE
            X509v3 Extended Key Usage: 
                TLS Web Server Authentication, TLS Web Client Authentication
            X509v3 Subject Key Identifier: 
                C8:B4:16:54:01:9E:59:03:3D:DE:C4:F5:1A:3D:E1:37:5D:2E:9C:A5
            X509v3 Authority Key Identifier: 
                keyid:83:CC:02:D6:E0:31:A6:2D:8E:F8:85:43:99:55:48:F6:21:22:90:49

            Authority Information Access: 
                CA Issuers - URI:http://nitpicksy.no/ca/tls-ca.cer

            X509v3 CRL Distribution Points: 

                Full Name:
                  URI:http://nitpicksy.no/ca/tls-ca.crl

            X509v3 Subject Alternative Name: 
                DNS:nitpicksy.no, DNS:www.nitpicksy.no, DNS:localhost
    Signature Algorithm: sha256WithRSAEncryption
         07:52:20:d8:44:ae:4a:20:49:ea:0b:57:9f:3f:7b:82:44:6f:
         2f:a4:27:5a:12:8f:3d:06:fd:45:25:96:34:97:32:7d:18:ea:
         50:9d:66:67:da:e6:a6:37:48:20:bd:2b:13:fe:8a:f4:93:66:
         7f:f4:60:fd:e7:01:bb:8a:b5:40:f4:4c:99:79:c3:5f:c4:7a:
         44:d3:25:a0:36:31:df:1f:b3:9c:75:01:40:bf:31:e5:a4:0e:
         de:8c:c9:fc:90:5f:55:2a:e6:79:d3:3d:b0:62:8d:ec:85:70:
         91:fd:12:5e:bc:70:dd:b3:4c:d0:9e:cf:83:96:6a:2c:aa:66:
         43:da:98:18:af:59:ad:87:9a:08:24:9a:64:92:c9:4d:33:f8:
         b3:09:0b:16:2a:ad:ba:20:f3:c1:fa:bb:63:49:83:89:39:2d:
         60:10:15:60:23:4f:40:83:9e:d2:5a:ed:9f:64:96:99:d9:aa:
         04:bb:c7:2c:c6:fa:ef:4f:5c:3b:80:3d:51:3b:d7:e2:fa:21:
         c0:28:77:29:6b:b8:cb:90:f9:ed:4d:00:05:a3:29:cb:1a:ca:
         18:bc:56:76:11:c0:c5:1d:e0:57:17:62:64:f3:80:e3:80:ed:
         a3:a1:52:7b:64:8e:be:87:02:d9:3c:31:cc:50:0f:44:02:8a:
         44:3b:f1:0c:88:e7:ce:7c:4a:b4:fa:0f:75:a6:07:a1:db:ad:
         69:6f:95:70:3f:5e:6e:c6:97:61:d5:44:71:24:d4:c2:38:96:
         78:3e:d5:fd:24:a6:19:4e:83:81:f3:d1:bc:ef:0c:ee:80:c7:
         26:11:c9:e9:c4:96:66:46:cf:48:9e:53:24:7c:0b:c3:14:b0:
         8a:6e:30:41:25:36:72:8f:7a:4d:6f:a5:d3:69:1a:3c:2d:ba:
         ed:34:47:fe:cb:c2:a3:7d:92:ce:47:ee:7e:45:06:40:68:09:
         6f:19:92:dc:a3:b6:10:fc:55:e2:06:e4:ee:50:3b:3c:c3:51:
         c4:8a:e4:b3:42:b6:57:37:62:bb:1d:5d:1a:2c:2e:3a:2e:91:
         3f:b5:bb:4a:0c:b1:0c:69:2c:8c:11:ef:8d:e1:c7:5e:de:0d:
         89:62:30:ff:5b:c5:b0:d1:41:8a:ea:c0:13:b3:fb:01:c0:d2:
         0a:22:db:24:0b:bb:1b:f5:ac:81:1f:17:cf:ef:1e:91:40:b3:
         9c:fc:fe:0f:34:55:d7:fd:78:34:e1:cd:91:87:97:b1:b3:03:
         45:85:2e:1d:3a:29:54:51:da:e8:8a:1d:58:b7:26:95:b9:21:
         d9:42:98:b0:a6:27:d7:55:73:9a:9b:9f:98:4b:56:49:99:92:
         14:a8:c6:0e:aa:53:78:5d
-----BEGIN CERTIFICATE-----
MIIGejCCBGKgAwIBAgIUV5VlhX6MqwyhuHcY6ZRGm6VvZlMwDQYJKoZIhvcNAQEL
BQAwZjELMAkGA1UEBhMCTk8xEjAQBgNVBAoMCU5pdHBpY2tzeTEoMCYGA1UECwwf
Tml0cGlja3N5IENlcnRpZmljYXRlIEF1dGhvcml0eTEZMBcGA1UEAwwQTml0cGlj
a3N5IFRMUyBDQTAeFw0yMDEyMDYyMjM5MzdaFw0yMjEyMDYyMjM5MzdaMF0xCzAJ
BgNVBAYTAk5PMRIwEAYDVQQKDAlOaXRwaWNrc3kxKDAmBgNVBAsMH05pdHBpY2tz
eSBDZXJ0aWZpY2F0ZSBBdXRob3JpdHkxEDAOBgNVBAMMB0JpdGNvaW4wggIiMA0G
CSqGSIb3DQEBAQUAA4ICDwAwggIKAoICAQC8snjn7+kj0SNfoIR+nKaGgxNhyvNx
33kzgNexQ240xh8QcdQBt5amu/X5U1gJRJbXnk4bnDSYDQQglJuIf6bgKeRwq7qf
UGa32EO0uv9WvpoZrORlRjP04YIiTQaFz3HnwWn1/PLFPbJD5EU5HBgAa4lspXv0
nEsKBQ0XFnTzeUf9jQ/MGevNxPOumaVVQFxZ17hU9FEWEdNn5L695rwsWSjBdq75
qGFAbxMmGkw9N2mdeWCLlV7+Rr3IGAgTZLraT7ReY+OOb2Nvw6QpDxFX9e1p+HeG
UsuTtiwRv5QJihD8krin6VLil8XmRqvjB07CS9gk6A4IHlLPo1/GfcQywOWLiEIG
67E2L0P8DVCn2w4JZU1YWES1vH2PYlf0y+/jm0zeUPc2FQ9GwONdUibx+IGnNUal
/aCmJjcpuEh3hS2bK1yblE9yTHQoG97+85tdLNjG0bYd2geq746YgqLEe5akJ1id
JIRfoRdtOp4T567LQ0V8iLsM/e0STns4bln1zj/c6DPPD+L9KMYj78RkzYj0REmb
UrGtfzA9E5lYh9SewhKU3yVbkfFdw2AS2OY/8uD1iydDu9yar1K7JdZxBB+TOI9U
hiDU56+h4w5haUPK5KRHGn3rtRHdkZ6iNR21rbXUk/Qd36XRIxXIYQbCYie3+IQn
2Np/Pzw+2B0IDQIDAQABo4IBJzCCASMwDgYDVR0PAQH/BAQDAgWgMAkGA1UdEwQC
MAAwHQYDVR0lBBYwFAYIKwYBBQUHAwEGCCsGAQUFBwMCMB0GA1UdDgQWBBTItBZU
AZ5ZAz3exPUaPeE3XS6cpTAfBgNVHSMEGDAWgBSDzALW4DGmLY74hUOZVUj2ISKQ
STA9BggrBgEFBQcBAQQxMC8wLQYIKwYBBQUHMAKGIWh0dHA6Ly9uaXRwaWNrc3ku
bm8vY2EvdGxzLWNhLmNlcjAyBgNVHR8EKzApMCegJaAjhiFodHRwOi8vbml0cGlj
a3N5Lm5vL2NhL3Rscy1jYS5jcmwwNAYDVR0RBC0wK4IMbml0cGlja3N5Lm5vghB3
d3cubml0cGlja3N5Lm5vgglsb2NhbGhvc3QwDQYJKoZIhvcNAQELBQADggIBAAdS
INhErkogSeoLV58/e4JEby+kJ1oSjz0G/UUlljSXMn0Y6lCdZmfa5qY3SCC9KxP+
ivSTZn/0YP3nAbuKtUD0TJl5w1/EekTTJaA2Md8fs5x1AUC/MeWkDt6MyfyQX1Uq
5nnTPbBijeyFcJH9El68cN2zTNCez4OWaiyqZkPamBivWa2HmggkmmSSyU0z+LMJ
CxYqrbog88H6u2NJg4k5LWAQFWAjT0CDntJa7Z9klpnZqgS7xyzG+u9PXDuAPVE7
1+L6IcAodylruMuQ+e1NAAWjKcsayhi8VnYRwMUd4FcXYmTzgOOA7aOhUntkjr6H
Atk8McxQD0QCikQ78QyI5858SrT6D3WmB6HbrWlvlXA/Xm7Gl2HVRHEk1MI4lng+
1f0kphlOg4Hz0bzvDO6AxyYRyenElmZGz0ieUyR8C8MUsIpuMEElNnKPek1vpdNp
Gjwtuu00R/7LwqN9ks5H7n5FBkBoCW8ZktyjthD8VeIG5O5QOzzDUcSK5LNCtlc3
YrsdXRosLjoukT+1u0oMsQxpLIwR743hx17eDYliMP9bxbDRQYrqwBOz+wHA0goi
2yQLuxv1rIEfF8/vHpFAs5z8/g80Vdf9eDThzZGHl7GzA0WFLh06KVRR2uiKHVi3
JpW5IdlCmLCmJ9dVc5qbn5hLVkmZkhSoxg6qU3hd
-----END CERTIFICATE-----
