Certificate:
    Data:
        Version: 3 (0x2)
        Serial Number:
            59:b5:ae:39:c0:85:bb:f2:da:4e:19:3f:e7:c3:42:71:c4:ae:90:99
        Signature Algorithm: sha256WithRSAEncryption
        Issuer: C=NO, O=Nitpicksy, OU=Nitpicksy Certificate Authority, CN=Nitpicksy TLS CA
        Validity
            Not Before: Dec  6 22:20:02 2020 GMT
            Not After : Dec  6 22:20:02 2022 GMT
        Subject: C=NO, O=Nitpicksy, OU=Nitpicksy Certificate Authority, CN=Cloud
        Subject Public Key Info:
            Public Key Algorithm: rsaEncryption
                RSA Public-Key: (4096 bit)
                Modulus:
                    00:bf:d0:a8:92:1b:9f:63:18:18:bf:d8:51:ac:14:
                    16:22:58:c3:17:c9:a5:7c:58:87:2d:4f:6e:f6:c1:
                    3d:8a:d6:ad:2d:29:1e:ec:f5:90:a2:12:f0:75:c4:
                    12:f0:3e:9c:c6:ce:a5:f9:7d:31:71:61:80:2a:62:
                    1a:47:0c:69:6d:fb:f5:92:a0:70:d7:ae:38:f7:d1:
                    a7:74:d9:e2:37:c8:83:05:5c:79:d3:8a:8a:56:33:
                    25:82:6d:c1:68:c1:6b:15:cc:80:14:7a:dc:9d:d0:
                    93:6b:db:4e:db:2d:31:4c:2a:69:07:2a:ad:f1:e1:
                    79:9f:a1:c5:f9:03:ed:c5:fb:f0:68:73:ec:c6:69:
                    8f:12:88:16:79:29:83:1f:61:0a:6a:4c:74:64:a1:
                    f1:aa:5f:5f:33:ba:a9:91:ac:ee:1a:e7:7c:fd:bb:
                    c0:2f:2f:65:62:c2:9e:4d:cc:b3:a4:df:1c:03:c9:
                    96:a6:20:f6:b4:c6:89:9a:e1:ab:f2:79:77:12:ac:
                    71:7d:75:41:45:fb:15:d2:9d:c1:ee:6d:08:b8:3f:
                    f8:5c:55:85:2b:26:bc:f7:1f:d8:7d:3b:15:86:1f:
                    3f:57:22:49:5b:c8:3b:73:af:2b:1c:b4:a7:63:df:
                    69:e0:b6:77:fc:6a:97:5a:cd:22:86:47:93:a5:f9:
                    3e:5b:cf:57:a4:4b:33:a6:d1:ca:c6:f1:35:d2:4e:
                    46:63:60:6d:ee:86:b8:1a:65:95:3b:22:1a:df:2d:
                    50:25:b1:4a:05:27:04:7d:d4:9e:79:95:32:5e:c9:
                    e4:fd:aa:05:c7:68:86:0b:7b:11:39:92:1f:b4:ca:
                    52:fa:2a:ca:9d:db:a7:d8:56:d0:54:e9:c7:f2:80:
                    1d:5d:09:ea:c8:de:ba:34:30:88:37:c2:5c:63:38:
                    33:a8:99:2f:2c:4a:86:eb:69:4c:e5:b6:cb:2e:ae:
                    60:16:0f:73:6c:81:ec:00:ab:03:ab:b8:5f:68:86:
                    e7:a4:95:b5:27:79:ca:de:17:1d:6d:37:60:85:85:
                    21:5d:7e:73:6f:be:a7:f6:32:7e:97:bc:9d:a4:90:
                    6c:24:10:22:49:d2:a7:c4:ce:90:c9:d0:52:61:17:
                    be:1e:a4:64:28:50:d8:01:e9:7a:2f:c7:47:57:13:
                    5c:30:ce:5b:6a:da:f3:f6:47:88:17:44:dc:11:68:
                    7f:9f:1c:31:c3:fd:8d:b4:ab:b4:4a:91:a6:a6:fb:
                    a1:0f:97:4f:72:e7:f9:b9:73:6a:d4:4b:16:9e:da:
                    ec:0a:25:bc:f7:3b:04:0b:89:2f:e2:47:f6:f7:56:
                    83:aa:2b:97:15:e7:48:4a:a1:82:90:7a:8a:f8:25:
                    67:12:2b
                Exponent: 65537 (0x10001)
        X509v3 extensions:
            X509v3 Key Usage: critical
                Digital Signature, Key Encipherment
            X509v3 Basic Constraints: 
                CA:FALSE
            X509v3 Extended Key Usage: 
                TLS Web Server Authentication, TLS Web Client Authentication
            X509v3 Subject Key Identifier: 
                5C:DF:1D:69:F8:94:1D:51:F2:18:FA:F6:C0:C6:E0:89:A6:25:85:D1
            X509v3 Authority Key Identifier: 
                keyid:52:53:5F:DA:76:E1:0A:7D:73:AE:D0:12:45:72:13:C1:30:4F:4E:39

            Authority Information Access: 
                CA Issuers - URI:http://nitpicksy.no/ca/tls-ca.cer

            X509v3 CRL Distribution Points: 

                Full Name:
                  URI:http://nitpicksy.no/ca/tls-ca.crl

            X509v3 Subject Alternative Name: 
                DNS:nitpicksy.no, DNS:www.nitpicksy.no, DNS:localhost
    Signature Algorithm: sha256WithRSAEncryption
         4d:29:ed:a3:51:47:33:ee:32:b5:b2:b1:63:74:a5:a1:db:40:
         23:96:51:7b:0a:cf:ad:99:06:a9:d9:a4:2a:9d:49:e4:31:96:
         b4:fe:1e:e5:19:d5:79:3f:b1:8b:cf:9f:4f:87:54:63:a2:24:
         14:10:27:2a:c5:0a:48:f0:4d:1c:13:b6:ab:ed:a7:09:70:3e:
         3a:af:5e:69:96:49:67:24:38:23:fe:7f:a1:9f:8e:86:a6:b7:
         62:fe:78:f7:f3:c3:3d:af:53:21:35:1f:dc:aa:5e:e0:ba:77:
         09:16:64:41:7e:7a:f5:f0:13:16:08:e5:56:9b:67:a3:f5:dc:
         0f:96:57:33:75:78:82:22:e2:16:84:c7:f0:13:59:6f:61:f5:
         14:4f:6a:c5:7d:10:f6:4b:17:ce:f5:76:2e:a5:0a:74:32:f3:
         a0:47:f6:98:1b:50:b4:52:66:59:b4:d8:3d:ad:a8:57:54:c6:
         0b:08:86:d7:83:57:e6:34:3d:33:c2:b5:a8:04:7b:f8:ef:5f:
         84:0c:15:3b:ef:f6:40:c7:45:35:07:3a:4f:13:af:56:ed:79:
         92:18:f5:7a:25:45:73:7e:fc:3c:91:5a:89:96:d5:5b:a2:bc:
         9c:ff:96:cd:42:0d:6e:d9:a5:5f:e7:7f:b4:3c:ac:e6:d8:51:
         8c:9d:1b:a7:98:c6:8f:92:9a:04:84:ab:f0:c6:d1:ea:70:a1:
         20:2b:49:fa:f3:ac:60:79:b3:69:98:b9:8c:47:f8:b0:7b:81:
         fa:65:16:28:3b:20:4f:53:f9:6d:87:4b:01:92:e7:4c:f7:0a:
         89:ee:d0:7f:fa:50:d4:b8:1b:bb:1e:5c:89:ad:17:b1:bd:12:
         bc:e8:2d:cf:50:10:80:0a:fe:ff:54:d9:20:4e:b3:0f:18:5b:
         a8:29:66:48:2c:27:e7:03:b9:c1:6d:ce:78:31:55:66:1d:68:
         b9:16:49:f9:8b:21:16:24:71:26:28:6b:1c:c1:a9:a4:66:64:
         9c:5a:76:50:b4:9a:97:05:79:8c:3a:a1:af:eb:cc:6b:eb:e1:
         90:73:50:b3:31:32:9a:fa:42:ff:39:72:dc:38:e5:56:10:52:
         b0:d4:14:43:45:5e:7c:44:a6:71:bb:d5:97:58:26:9c:de:9b:
         a6:f4:85:67:8e:a5:5c:a3:ed:50:08:34:a8:6d:69:e6:32:1f:
         ba:7e:0d:bf:17:6f:c2:41:ab:80:04:82:b9:03:27:e7:da:ff:
         f8:86:f9:1e:a1:86:e1:1f:08:a4:be:39:64:87:f4:f0:81:43:
         7b:63:2c:27:b3:fb:36:4b:59:89:4a:a1:77:50:25:ed:14:c9:
         83:ed:9a:84:fb:78:d8:25
-----BEGIN CERTIFICATE-----
MIIGeDCCBGCgAwIBAgIUWbWuOcCFu/LaThk/58NCccSukJkwDQYJKoZIhvcNAQEL
BQAwZjELMAkGA1UEBhMCTk8xEjAQBgNVBAoMCU5pdHBpY2tzeTEoMCYGA1UECwwf
Tml0cGlja3N5IENlcnRpZmljYXRlIEF1dGhvcml0eTEZMBcGA1UEAwwQTml0cGlj
a3N5IFRMUyBDQTAeFw0yMDEyMDYyMjIwMDJaFw0yMjEyMDYyMjIwMDJaMFsxCzAJ
BgNVBAYTAk5PMRIwEAYDVQQKDAlOaXRwaWNrc3kxKDAmBgNVBAsMH05pdHBpY2tz
eSBDZXJ0aWZpY2F0ZSBBdXRob3JpdHkxDjAMBgNVBAMMBUNsb3VkMIICIjANBgkq
hkiG9w0BAQEFAAOCAg8AMIICCgKCAgEAv9CokhufYxgYv9hRrBQWIljDF8mlfFiH
LU9u9sE9itatLSke7PWQohLwdcQS8D6cxs6l+X0xcWGAKmIaRwxpbfv1kqBw1644
99GndNniN8iDBVx504qKVjMlgm3BaMFrFcyAFHrcndCTa9tO2y0xTCppByqt8eF5
n6HF+QPtxfvwaHPsxmmPEogWeSmDH2EKakx0ZKHxql9fM7qpkazuGud8/bvALy9l
YsKeTcyzpN8cA8mWpiD2tMaJmuGr8nl3EqxxfXVBRfsV0p3B7m0IuD/4XFWFKya8
9x/YfTsVhh8/VyJJW8g7c68rHLSnY99p4LZ3/GqXWs0ihkeTpfk+W89XpEszptHK
xvE10k5GY2Bt7oa4GmWVOyIa3y1QJbFKBScEfdSeeZUyXsnk/aoFx2iGC3sROZIf
tMpS+irKndun2FbQVOnH8oAdXQnqyN66NDCIN8JcYzgzqJkvLEqG62lM5bbLLq5g
Fg9zbIHsAKsDq7hfaIbnpJW1J3nK3hcdbTdghYUhXX5zb76n9jJ+l7ydpJBsJBAi
SdKnxM6QydBSYRe+HqRkKFDYAel6L8dHVxNcMM5batrz9keIF0TcEWh/nxwxw/2N
tKu0SpGmpvuhD5dPcuf5uXNq1EsWntrsCiW89zsEC4kv4kf291aDqiuXFedISqGC
kHqK+CVnEisCAwEAAaOCAScwggEjMA4GA1UdDwEB/wQEAwIFoDAJBgNVHRMEAjAA
MB0GA1UdJQQWMBQGCCsGAQUFBwMBBggrBgEFBQcDAjAdBgNVHQ4EFgQUXN8dafiU
HVHyGPr2wMbgiaYlhdEwHwYDVR0jBBgwFoAUUlNf2nbhCn1zrtASRXITwTBPTjkw
PQYIKwYBBQUHAQEEMTAvMC0GCCsGAQUFBzAChiFodHRwOi8vbml0cGlja3N5Lm5v
L2NhL3Rscy1jYS5jZXIwMgYDVR0fBCswKTAnoCWgI4YhaHR0cDovL25pdHBpY2tz
eS5uby9jYS90bHMtY2EuY3JsMDQGA1UdEQQtMCuCDG5pdHBpY2tzeS5ub4IQd3d3
Lm5pdHBpY2tzeS5ub4IJbG9jYWxob3N0MA0GCSqGSIb3DQEBCwUAA4ICAQBNKe2j
UUcz7jK1srFjdKWh20AjllF7Cs+tmQap2aQqnUnkMZa0/h7lGdV5P7GLz59Ph1Rj
oiQUECcqxQpI8E0cE7ar7acJcD46r15plklnJDgj/n+hn46Gprdi/nj388M9r1Mh
NR/cql7guncJFmRBfnr18BMWCOVWm2ej9dwPllczdXiCIuIWhMfwE1lvYfUUT2rF
fRD2SxfO9XYupQp0MvOgR/aYG1C0UmZZtNg9rahXVMYLCIbXg1fmND0zwrWoBHv4
71+EDBU77/ZAx0U1BzpPE69W7XmSGPV6JUVzfvw8kVqJltVboryc/5bNQg1u2aVf
53+0PKzm2FGMnRunmMaPkpoEhKvwxtHqcKEgK0n686xgebNpmLmMR/iwe4H6ZRYo
OyBPU/lth0sBkudM9wqJ7tB/+lDUuBu7HlyJrRexvRK86C3PUBCACv7/VNkgTrMP
GFuoKWZILCfnA7nBbc54MVVmHWi5Fkn5iyEWJHEmKGscwamkZmScWnZQtJqXBXmM
OqGv68xr6+GQc1CzMTKa+kL/OXLcOOVWEFKw1BRDRV58RKZxu9WXWCac3pum9IVn
jqVco+1QCDSobWnmMh+6fg2/F2/CQauABIK5Ayfn2v/4hvkeoYbhHwikvjlkh/Tw
gUN7Yywns/s2S1mJSqF3UCXtFMmD7ZqE+3jYJQ==
-----END CERTIFICATE-----
