Certificate:
    Data:
        Version: 3 (0x2)
        Serial Number:
            5b:a0:3b:30:e2:77:8f:33:8f:de:be:d0:5b:2f:ac:cb:9c:d7:50:b7
        Signature Algorithm: sha256WithRSAEncryption
        Issuer: C=NO, O=Nitpicksy, OU=Nitpicksy Certificate Authority, CN=Nitpicksy TLS CA
        Validity
            Not Before: Dec  6 22:08:21 2020 GMT
            Not After : Dec  6 22:08:21 2022 GMT
        Subject: C=NO, O=Nitpicksy, OU=Nitpicksy Certificate Authority, CN=Literary Society
        Subject Public Key Info:
            Public Key Algorithm: rsaEncryption
                RSA Public-Key: (4096 bit)
                Modulus:
                    00:a9:31:0c:3a:f3:81:88:08:37:3f:ad:c4:fd:3a:
                    13:c0:ca:cd:8c:14:09:eb:7d:77:3d:b5:c7:cf:eb:
                    3d:a9:ef:1f:1c:46:70:ce:96:2d:ce:c6:d2:20:22:
                    f8:88:4f:5b:29:7d:79:d3:e9:ce:b4:33:d0:02:46:
                    96:2b:8e:6e:0a:53:db:48:ed:4a:05:58:95:86:94:
                    d5:7e:f9:78:db:67:a5:de:a5:c3:11:35:3d:74:89:
                    08:c2:e6:cb:8d:a7:db:1a:ba:a6:18:a3:27:51:c1:
                    37:1b:13:cc:25:ac:51:65:83:f2:c6:53:a6:dc:e9:
                    66:ab:d4:b6:40:60:97:f7:51:3b:e3:3b:22:b5:52:
                    0f:db:db:cb:52:95:60:75:f3:fd:1a:0f:17:4f:b1:
                    08:f9:e1:6c:09:59:4e:22:4c:a8:62:0f:61:a0:ae:
                    79:6f:58:50:27:b4:5b:41:ea:83:ce:34:36:5f:e2:
                    15:62:9e:ed:e4:2d:a2:ee:79:f4:91:3c:20:4a:03:
                    34:e3:79:83:45:79:36:c7:d1:2b:f0:91:d4:96:d6:
                    cf:ee:51:44:1f:95:35:54:6d:9b:cf:90:42:07:f0:
                    cb:2a:7d:b6:38:1b:b4:ad:39:c6:d0:15:bb:3c:9a:
                    e7:66:67:b7:47:61:bb:bd:87:ae:c5:b2:52:29:28:
                    18:d7:d0:a1:21:48:60:10:75:46:8d:8d:00:1e:5e:
                    04:88:24:5f:7d:d2:c2:df:e2:54:72:66:66:81:0a:
                    d8:83:16:04:22:63:0e:53:ea:d5:53:6d:b6:91:49:
                    34:26:00:5b:cc:62:13:39:c6:c6:6c:60:58:6d:75:
                    ba:00:be:e2:c5:4f:94:fa:a9:85:34:be:0d:49:0b:
                    13:5e:6e:86:c4:16:a8:b5:47:4a:6b:11:83:5d:c6:
                    b6:07:2e:1b:72:2b:7b:ed:be:d2:31:bc:11:03:12:
                    d4:e8:6c:84:0f:61:a8:ed:d4:e0:f5:21:90:b5:76:
                    d2:06:39:03:d4:15:b1:e8:84:0e:f3:02:e9:36:c5:
                    ac:8c:72:58:af:46:af:44:aa:4b:ca:0e:e7:dd:20:
                    56:6c:cb:7b:9b:b8:58:71:e9:13:9b:7f:88:d0:85:
                    89:0f:36:c8:bc:34:4f:82:a4:7e:68:d4:7f:bb:da:
                    de:ec:d3:7e:48:fd:35:c2:16:3e:41:ba:94:61:9b:
                    7b:28:4a:87:91:41:70:bd:37:5d:91:e4:c1:55:76:
                    b4:67:f9:bc:f8:de:15:39:01:46:98:19:76:85:9c:
                    8f:8b:24:3e:5a:11:79:16:ae:9f:3e:3b:78:15:f6:
                    e6:dc:60:9c:b3:d7:c7:85:f0:0b:19:cd:89:53:40:
                    ce:e8:23
                Exponent: 65537 (0x10001)
        X509v3 extensions:
            X509v3 Key Usage: critical
                Digital Signature, Key Encipherment
            X509v3 Basic Constraints: 
                CA:FALSE
            X509v3 Extended Key Usage: 
                TLS Web Server Authentication, TLS Web Client Authentication
            X509v3 Subject Key Identifier: 
                EB:D9:E5:60:B0:15:59:64:10:4E:BB:B0:FB:AE:C5:50:57:A4:E5:EE
            X509v3 Authority Key Identifier: 
                keyid:46:AE:F3:C6:AD:8C:3E:45:58:86:70:79:96:25:17:E1:6C:F7:16:A8

            Authority Information Access: 
                CA Issuers - URI:http://nitpicksy.no/ca/tls-ca.cer

            X509v3 CRL Distribution Points: 

                Full Name:
                  URI:http://nitpicksy.no/ca/tls-ca.crl

            X509v3 Subject Alternative Name: 
                DNS:nitpicksy.no, DNS:www.nitpicksy.no, DNS:localhost
    Signature Algorithm: sha256WithRSAEncryption
         8f:fb:85:e5:67:46:82:11:12:e1:b7:58:9e:29:cc:51:80:90:
         09:38:f9:46:f8:88:36:63:e2:61:1f:06:2d:30:d6:1a:19:df:
         d0:82:6c:1c:33:17:90:d3:7a:04:5d:e9:ca:1a:96:18:86:b3:
         1f:1a:d2:e0:4d:32:84:4d:5a:90:61:0f:ec:d7:89:0f:a3:54:
         06:af:37:c9:b9:a2:3b:2a:f4:44:18:24:fc:87:0b:4b:d7:44:
         26:3e:2a:ac:da:95:50:7f:e8:4b:c8:f3:94:1c:2a:bb:15:86:
         c9:38:4d:fb:11:e2:25:a4:e3:9f:6f:af:c8:b0:83:83:a2:c0:
         6f:1b:14:59:e6:17:5d:77:9f:0b:e3:49:e0:7b:5d:89:74:4a:
         aa:cc:32:d8:a1:16:cc:9d:0e:a6:18:85:7c:aa:b2:32:31:e7:
         cc:21:cd:e0:ce:2a:23:a6:c0:0a:c5:29:ce:3f:11:52:bd:39:
         a6:20:ed:9f:84:1b:3a:9b:55:5d:8a:f5:a9:9a:75:60:82:0d:
         88:ec:49:13:63:a2:00:2d:35:ba:ba:51:fc:b7:25:ac:8b:a2:
         af:ab:bb:8b:9c:89:2c:65:e7:f5:f8:0c:57:2a:9e:3b:83:8f:
         f5:00:dc:57:b9:84:65:b4:e4:c2:c5:3f:f6:17:3b:79:31:5d:
         86:2f:bd:59:f5:2d:30:33:ee:8e:64:7b:d7:bb:a4:1e:a5:3f:
         66:93:05:86:41:b8:9c:e3:05:8a:dd:6c:ef:e8:fe:8b:64:85:
         b1:20:f9:af:c7:34:b8:c0:58:48:2c:bb:45:df:c5:2f:bb:c8:
         89:72:94:82:4d:34:24:61:52:96:a6:5c:6f:5c:ad:c7:47:de:
         f6:a8:5f:0c:2b:02:09:7e:8f:62:53:18:e5:19:35:47:cd:42:
         07:b9:92:33:7a:6c:bc:3a:c4:54:af:53:7d:82:39:61:4a:68:
         58:47:00:be:da:55:df:54:9a:ce:31:a6:22:8b:76:51:e1:aa:
         04:7f:34:1f:46:9a:f5:c0:57:3d:ba:e2:a2:87:ab:15:2b:6a:
         de:3c:32:4f:bb:4e:12:d4:56:74:07:80:60:d2:a7:8f:1b:5f:
         85:2b:fd:ac:f8:41:cc:46:7c:81:6e:43:85:60:9a:bd:00:14:
         d9:5b:15:9d:f6:cb:ba:d6:87:d6:7b:26:4e:cd:5d:a9:58:39:
         df:6c:20:5d:03:43:ae:95:f7:3d:1f:58:d4:e5:b6:89:4c:65:
         5d:f4:5e:99:c1:ff:a2:1b:e2:b4:48:4d:7f:39:b4:93:d5:b1:
         7a:8a:56:c6:1f:c0:47:19:e4:16:30:46:74:76:36:63:26:aa:
         13:fa:21:3e:ee:29:f4:9f
-----BEGIN CERTIFICATE-----
MIIGgzCCBGugAwIBAgIUW6A7MOJ3jzOP3r7QWy+sy5zXULcwDQYJKoZIhvcNAQEL
BQAwZjELMAkGA1UEBhMCTk8xEjAQBgNVBAoMCU5pdHBpY2tzeTEoMCYGA1UECwwf
Tml0cGlja3N5IENlcnRpZmljYXRlIEF1dGhvcml0eTEZMBcGA1UEAwwQTml0cGlj
a3N5IFRMUyBDQTAeFw0yMDEyMDYyMjA4MjFaFw0yMjEyMDYyMjA4MjFaMGYxCzAJ
BgNVBAYTAk5PMRIwEAYDVQQKDAlOaXRwaWNrc3kxKDAmBgNVBAsMH05pdHBpY2tz
eSBDZXJ0aWZpY2F0ZSBBdXRob3JpdHkxGTAXBgNVBAMMEExpdGVyYXJ5IFNvY2ll
dHkwggIiMA0GCSqGSIb3DQEBAQUAA4ICDwAwggIKAoICAQCpMQw684GICDc/rcT9
OhPAys2MFAnrfXc9tcfP6z2p7x8cRnDOli3OxtIgIviIT1spfXnT6c60M9ACRpYr
jm4KU9tI7UoFWJWGlNV++XjbZ6XepcMRNT10iQjC5suNp9sauqYYoydRwTcbE8wl
rFFlg/LGU6bc6War1LZAYJf3UTvjOyK1Ug/b28tSlWB18/0aDxdPsQj54WwJWU4i
TKhiD2GgrnlvWFAntFtB6oPONDZf4hVinu3kLaLuefSRPCBKAzTjeYNFeTbH0Svw
kdSW1s/uUUQflTVUbZvPkEIH8MsqfbY4G7StOcbQFbs8mudmZ7dHYbu9h67FslIp
KBjX0KEhSGAQdUaNjQAeXgSIJF990sLf4lRyZmaBCtiDFgQiYw5T6tVTbbaRSTQm
AFvMYhM5xsZsYFhtdboAvuLFT5T6qYU0vg1JCxNebobEFqi1R0prEYNdxrYHLhty
K3vtvtIxvBEDEtTobIQPYajt1OD1IZC1dtIGOQPUFbHohA7zAuk2xayMclivRq9E
qkvKDufdIFZsy3ubuFhx6RObf4jQhYkPNsi8NE+CpH5o1H+72t7s035I/TXCFj5B
upRhm3soSoeRQXC9N12R5MFVdrRn+bz43hU5AUaYGXaFnI+LJD5aEXkWrp8+O3gV
9ubcYJyz18eF8AsZzYlTQM7oIwIDAQABo4IBJzCCASMwDgYDVR0PAQH/BAQDAgWg
MAkGA1UdEwQCMAAwHQYDVR0lBBYwFAYIKwYBBQUHAwEGCCsGAQUFBwMCMB0GA1Ud
DgQWBBTr2eVgsBVZZBBOu7D7rsVQV6Tl7jAfBgNVHSMEGDAWgBRGrvPGrYw+RViG
cHmWJRfhbPcWqDA9BggrBgEFBQcBAQQxMC8wLQYIKwYBBQUHMAKGIWh0dHA6Ly9u
aXRwaWNrc3kubm8vY2EvdGxzLWNhLmNlcjAyBgNVHR8EKzApMCegJaAjhiFodHRw
Oi8vbml0cGlja3N5Lm5vL2NhL3Rscy1jYS5jcmwwNAYDVR0RBC0wK4IMbml0cGlj
a3N5Lm5vghB3d3cubml0cGlja3N5Lm5vgglsb2NhbGhvc3QwDQYJKoZIhvcNAQEL
BQADggIBAI/7heVnRoIREuG3WJ4pzFGAkAk4+Ub4iDZj4mEfBi0w1hoZ39CCbBwz
F5DTegRd6coalhiGsx8a0uBNMoRNWpBhD+zXiQ+jVAavN8m5ojsq9EQYJPyHC0vX
RCY+KqzalVB/6EvI85QcKrsVhsk4TfsR4iWk459vr8iwg4OiwG8bFFnmF113nwvj
SeB7XYl0SqrMMtihFsydDqYYhXyqsjIx58whzeDOKiOmwArFKc4/EVK9OaYg7Z+E
GzqbVV2K9amadWCCDYjsSRNjogAtNbq6Ufy3JayLoq+ru4uciSxl5/X4DFcqnjuD
j/UA3Fe5hGW05MLFP/YXO3kxXYYvvVn1LTAz7o5ke9e7pB6lP2aTBYZBuJzjBYrd
bO/o/otkhbEg+a/HNLjAWEgsu0XfxS+7yIlylIJNNCRhUpamXG9crcdH3vaoXwwr
Agl+j2JTGOUZNUfNQge5kjN6bLw6xFSvU32COWFKaFhHAL7aVd9Ums4xpiKLdlHh
qgR/NB9GmvXAVz264qKHqxUrat48Mk+7ThLUVnQHgGDSp48bX4Ur/az4QcxGfIFu
Q4Vgmr0AFNlbFZ32y7rWh9Z7Jk7NXalYOd9sIF0DQ66V9z0fWNTltolMZV30XpnB
/6Ib4rRITX85tJPVsXqKVsYfwEcZ5BYwRnR2NmMmqhP6IT7uKfSf
-----END CERTIFICATE-----
