Certificate:
    Data:
        Version: 3 (0x2)
        Serial Number:
            5c:17:42:fa:6d:18:b1:a6:e5:8f:3e:64:20:e7:e1:c8:54:a8:a6:7b
        Signature Algorithm: sha256WithRSAEncryption
        Issuer: C=NO, O=Nitpicksy, OU=Nitpicksy Certificate Authority, CN=Nitpicksy TLS CA
        Validity
            Not Before: Dec  6 21:39:31 2020 GMT
            Not After : Dec  6 21:39:31 2022 GMT
        Subject: C=NO, O=Nitpicksy, OU=Nitpicksy Certificate Authority, CN=zuul
        Subject Public Key Info:
            Public Key Algorithm: rsaEncryption
                RSA Public-Key: (4096 bit)
                Modulus:
                    00:ce:46:7d:22:e0:2a:1f:b2:73:fd:65:30:0c:66:
                    6c:43:71:17:24:6f:b4:2d:08:11:6a:31:1e:f0:73:
                    5e:a6:71:25:36:f8:9a:90:3d:15:a9:79:93:90:60:
                    c9:f5:88:0e:35:10:5c:8b:27:52:0d:ae:f5:25:03:
                    e3:d4:38:09:36:47:1a:0e:59:d3:b2:91:d5:ec:e3:
                    fc:bf:5a:ce:d1:2e:fa:c9:4f:1b:c4:62:f4:2d:a9:
                    f7:14:b1:0c:a7:06:69:6b:3e:95:cc:e0:8c:be:d8:
                    d2:ed:8b:9c:89:18:97:61:6b:ca:58:43:37:76:1b:
                    1f:8c:58:5f:e9:15:04:32:14:b4:d8:63:0c:1b:22:
                    e9:61:27:33:be:bc:6a:5a:b2:a4:c1:e5:8f:70:05:
                    1a:89:f7:b0:3c:5c:76:e9:db:91:ec:65:27:ed:1b:
                    69:4d:c2:e0:45:64:8b:db:78:9b:38:05:9d:03:05:
                    1c:b3:50:04:fc:40:14:16:56:fa:57:b2:6d:25:0a:
                    a6:c4:ca:2c:23:38:fb:0a:09:b4:26:d6:37:bf:e2:
                    f4:7a:63:49:f3:77:23:f3:ca:c8:80:0b:a2:73:40:
                    dc:db:fb:57:b3:4e:d0:98:f7:d4:f3:97:f1:4e:23:
                    a9:ba:b9:57:09:4f:62:34:22:25:aa:45:64:f8:fc:
                    21:c1:87:d9:ec:80:f8:9f:a1:b8:f7:53:bc:dc:aa:
                    0b:06:de:3d:1a:27:e8:4e:62:ef:c5:16:c2:ed:af:
                    2c:fe:48:85:af:b8:98:2c:a5:e8:7a:3a:6c:89:f8:
                    1c:c0:30:c0:3f:fc:39:28:48:11:ec:89:15:ab:f5:
                    a3:c9:34:3a:6e:11:ce:e8:0e:4a:15:13:5a:86:80:
                    9b:7e:b5:a4:58:85:19:aa:7e:fe:d9:aa:ca:01:ba:
                    cf:5d:ce:36:2d:1f:6e:c0:62:c2:bb:7f:ef:71:20:
                    17:8d:6f:d2:84:02:92:27:5b:0c:64:56:70:52:29:
                    49:5d:50:cd:77:8c:4c:69:96:07:cd:8f:68:b2:2a:
                    2a:b0:15:6d:02:9b:38:c8:4b:b0:a8:27:a4:cf:fe:
                    50:68:48:dc:2b:6b:06:a9:a3:7d:f1:d3:0d:07:5e:
                    b0:d9:40:b9:fc:eb:ad:e5:c9:9f:6e:ab:53:4e:18:
                    b1:ac:ba:7f:0c:64:1f:d1:31:c5:50:6e:19:12:0d:
                    c1:47:e7:8e:2f:38:63:52:d6:05:e3:bf:e2:9c:2a:
                    49:f4:e5:cf:a6:8b:af:fc:5e:d9:e9:ff:36:25:43:
                    19:19:1e:05:93:6f:c4:fc:aa:5a:d1:68:9e:27:23:
                    18:db:26:61:cb:17:9e:cd:d8:ef:7d:75:75:00:ef:
                    e7:c5:75
                Exponent: 65537 (0x10001)
        X509v3 extensions:
            X509v3 Key Usage: critical
                Digital Signature, Key Encipherment
            X509v3 Basic Constraints: 
                CA:FALSE
            X509v3 Extended Key Usage: 
                TLS Web Server Authentication, TLS Web Client Authentication
            X509v3 Subject Key Identifier: 
                46:C9:D4:D9:29:9A:04:10:FC:0D:4A:87:93:E9:2D:A2:DE:CF:0D:FE
            X509v3 Authority Key Identifier: 
                keyid:73:22:F9:68:31:83:E6:3A:55:0D:D5:B0:7B:20:10:F1:2E:0B:77:9F

            Authority Information Access: 
                CA Issuers - URI:http://nitpicksy.no/ca/tls-ca.cer

            X509v3 CRL Distribution Points: 

                Full Name:
                  URI:http://nitpicksy.no/ca/tls-ca.crl

            X509v3 Subject Alternative Name: 
                DNS:nitpicksy.no, DNS:www.nitpicksy.no, DNS:localhost
    Signature Algorithm: sha256WithRSAEncryption
         25:57:ce:de:aa:dc:ae:22:fa:6e:28:0c:45:9a:08:93:c0:59:
         fb:b3:d5:2e:a1:fa:81:c0:04:fb:54:67:7a:f7:1a:5c:5f:3a:
         a9:1d:6b:26:df:87:91:d4:19:72:1f:88:4b:ca:01:7f:7a:cf:
         9d:fe:a6:cb:36:3a:8b:77:c1:4a:92:73:94:88:59:f2:f9:5f:
         b4:c4:e4:e7:61:fb:80:74:f1:a8:b3:b5:49:2c:40:58:ab:79:
         f7:aa:ad:d9:83:df:2a:c4:d7:40:16:74:4b:a6:56:6a:1c:10:
         f7:81:f6:d0:0d:7b:69:9f:e3:57:47:58:a1:0b:75:07:33:b9:
         e7:e7:fe:78:54:73:13:21:0d:8f:61:8c:d2:9f:06:61:f6:48:
         0d:53:22:e9:b8:ee:8f:d7:fd:fd:99:4b:d0:ea:7c:01:9b:b6:
         67:22:eb:3b:bf:01:04:1d:da:78:94:21:03:2d:fc:65:81:35:
         0f:ea:83:03:9a:9f:f8:e0:63:e2:3a:c7:06:9e:a2:0c:bd:5b:
         96:74:b3:30:5a:e4:b0:c3:5b:27:72:24:c3:00:bb:e3:7a:21:
         0b:87:c8:15:75:68:20:48:57:09:0a:3f:72:40:a6:f4:6f:dc:
         c6:00:76:4a:4f:da:3c:50:6c:8e:ef:28:55:a4:6c:28:f3:41:
         97:b3:5d:99:1d:c4:08:af:1a:37:38:1a:98:51:7a:66:31:5d:
         3b:85:e5:0e:27:07:d7:01:df:5f:e6:86:b4:a8:5c:c0:75:88:
         a6:c3:bb:e0:ed:42:11:1c:54:3b:65:df:01:09:bb:5c:77:31:
         07:de:37:05:82:3f:ee:8f:d2:85:0d:14:15:67:cb:83:9c:ba:
         87:f3:9c:9b:0d:91:cf:b1:2b:0a:a8:f0:22:67:e9:79:49:65:
         6e:00:b7:b5:92:2e:28:18:fb:b6:bd:58:2b:f0:59:11:24:8a:
         22:67:5b:94:9c:09:ad:3d:84:40:bf:b4:15:61:7a:f5:aa:83:
         f2:2a:6d:ec:dd:a9:3a:ac:f6:57:63:87:b0:be:51:82:88:0a:
         68:79:c6:7c:77:5f:97:d4:26:36:bd:c9:2f:8a:3a:ee:f2:ad:
         76:3a:81:3d:0d:f0:08:a6:01:55:c4:bc:72:4a:40:20:88:4e:
         74:09:fe:54:19:e2:53:20:50:7d:b5:0f:1b:a3:85:e9:22:81:
         98:d2:5b:de:92:bd:6d:41:c3:6e:63:a9:73:c6:67:ab:57:67:
         b6:80:da:cf:85:a5:87:4e:7c:49:65:2f:bf:86:bc:56:4a:43:
         b3:5c:12:30:ab:39:a3:0f:86:b7:52:5a:2e:b2:af:36:7a:a4:
         01:b8:7a:66:a6:f2:1a:86
-----BEGIN CERTIFICATE-----
MIIGdzCCBF+gAwIBAgIUXBdC+m0Ysabljz5kIOfhyFSopnswDQYJKoZIhvcNAQEL
BQAwZjELMAkGA1UEBhMCTk8xEjAQBgNVBAoMCU5pdHBpY2tzeTEoMCYGA1UECwwf
Tml0cGlja3N5IENlcnRpZmljYXRlIEF1dGhvcml0eTEZMBcGA1UEAwwQTml0cGlj
a3N5IFRMUyBDQTAeFw0yMDEyMDYyMTM5MzFaFw0yMjEyMDYyMTM5MzFaMFoxCzAJ
BgNVBAYTAk5PMRIwEAYDVQQKDAlOaXRwaWNrc3kxKDAmBgNVBAsMH05pdHBpY2tz
eSBDZXJ0aWZpY2F0ZSBBdXRob3JpdHkxDTALBgNVBAMMBHp1dWwwggIiMA0GCSqG
SIb3DQEBAQUAA4ICDwAwggIKAoICAQDORn0i4CofsnP9ZTAMZmxDcRckb7QtCBFq
MR7wc16mcSU2+JqQPRWpeZOQYMn1iA41EFyLJ1INrvUlA+PUOAk2RxoOWdOykdXs
4/y/Ws7RLvrJTxvEYvQtqfcUsQynBmlrPpXM4Iy+2NLti5yJGJdha8pYQzd2Gx+M
WF/pFQQyFLTYYwwbIulhJzO+vGpasqTB5Y9wBRqJ97A8XHbp25HsZSftG2lNwuBF
ZIvbeJs4BZ0DBRyzUAT8QBQWVvpXsm0lCqbEyiwjOPsKCbQm1je/4vR6Y0nzdyPz
ysiAC6JzQNzb+1ezTtCY99Tzl/FOI6m6uVcJT2I0IiWqRWT4/CHBh9nsgPifobj3
U7zcqgsG3j0aJ+hOYu/FFsLtryz+SIWvuJgspeh6OmyJ+BzAMMA//DkoSBHsiRWr
9aPJNDpuEc7oDkoVE1qGgJt+taRYhRmqfv7ZqsoBus9dzjYtH27AYsK7f+9xIBeN
b9KEApInWwxkVnBSKUldUM13jExplgfNj2iyKiqwFW0CmzjIS7CoJ6TP/lBoSNwr
awapo33x0w0HXrDZQLn8663lyZ9uq1NOGLGsun8MZB/RMcVQbhkSDcFH544vOGNS
1gXjv+KcKkn05c+mi6/8Xtnp/zYlQxkZHgWTb8T8qlrRaJ4nIxjbJmHLF57N2O99
dXUA7+fFdQIDAQABo4IBJzCCASMwDgYDVR0PAQH/BAQDAgWgMAkGA1UdEwQCMAAw
HQYDVR0lBBYwFAYIKwYBBQUHAwEGCCsGAQUFBwMCMB0GA1UdDgQWBBRGydTZKZoE
EPwNSoeT6S2i3s8N/jAfBgNVHSMEGDAWgBRzIvloMYPmOlUN1bB7IBDxLgt3nzA9
BggrBgEFBQcBAQQxMC8wLQYIKwYBBQUHMAKGIWh0dHA6Ly9uaXRwaWNrc3kubm8v
Y2EvdGxzLWNhLmNlcjAyBgNVHR8EKzApMCegJaAjhiFodHRwOi8vbml0cGlja3N5
Lm5vL2NhL3Rscy1jYS5jcmwwNAYDVR0RBC0wK4IMbml0cGlja3N5Lm5vghB3d3cu
bml0cGlja3N5Lm5vgglsb2NhbGhvc3QwDQYJKoZIhvcNAQELBQADggIBACVXzt6q
3K4i+m4oDEWaCJPAWfuz1S6h+oHABPtUZ3r3GlxfOqkdaybfh5HUGXIfiEvKAX96
z53+pss2Oot3wUqSc5SIWfL5X7TE5Odh+4B08aiztUksQFirefeqrdmD3yrE10AW
dEumVmocEPeB9tANe2mf41dHWKELdQczuefn/nhUcxMhDY9hjNKfBmH2SA1TIum4
7o/X/f2ZS9DqfAGbtmci6zu/AQQd2niUIQMt/GWBNQ/qgwOan/jgY+I6xwaeogy9
W5Z0szBa5LDDWydyJMMAu+N6IQuHyBV1aCBIVwkKP3JApvRv3MYAdkpP2jxQbI7v
KFWkbCjzQZezXZkdxAivGjc4GphRemYxXTuF5Q4nB9cB31/mhrSoXMB1iKbDu+Dt
QhEcVDtl3wEJu1x3MQfeNwWCP+6P0oUNFBVny4OcuofznJsNkc+xKwqo8CJn6XlJ
ZW4At7WSLigY+7a9WCvwWREkiiJnW5ScCa09hEC/tBVhevWqg/IqbezdqTqs9ldj
h7C+UYKICmh5xnx3X5fUJja9yS+KOu7yrXY6gT0N8AimAVXEvHJKQCCITnQJ/lQZ
4lMgUH21DxujhekigZjSW96SvW1Bw25jqXPGZ6tXZ7aA2s+FpYdOfEllL7+GvFZK
Q7NcEjCrOaMPhrdSWi6yrzZ6pAG4emam8hqG
-----END CERTIFICATE-----
