Certificate:
    Data:
        Version: 3 (0x2)
        Serial Number:
            5e:59:97:56:e8:11:cd:32:b0:7f:e8:55:68:e3:f5:97:5e:73:91:33
        Signature Algorithm: sha256WithRSAEncryption
        Issuer: C=NO, O=Nitpicksy, OU=Nitpicksy Certificate Authority, CN=Nitpicksy TLS CA
        Validity
            Not Before: Dec  6 22:20:04 2020 GMT
            Not After : Dec  6 22:20:04 2022 GMT
        Subject: C=NO, O=Nitpicksy, OU=Nitpicksy Certificate Authority, CN=Paypal
        Subject Public Key Info:
            Public Key Algorithm: rsaEncryption
                RSA Public-Key: (4096 bit)
                Modulus:
                    00:d7:d7:cb:3c:88:a6:44:7e:d1:a5:91:ad:4c:a8:
                    27:ee:73:49:2f:ef:b8:d3:4d:12:33:d0:c4:86:c7:
                    2b:af:b4:c5:1e:6e:b5:30:7f:81:74:06:bc:18:e2:
                    7b:8b:73:be:eb:ec:46:9d:b0:15:df:f0:d3:7f:8c:
                    44:5a:40:10:7a:b5:29:7e:75:f4:4f:c1:19:2f:0b:
                    f2:5f:e9:e0:1a:ff:fa:02:5b:d5:8b:25:23:c1:0b:
                    62:59:a4:18:f0:1a:f3:83:f1:01:a3:c9:4b:31:9b:
                    b6:40:bd:94:e7:4b:02:6b:49:1b:73:26:50:d9:c9:
                    d9:c0:85:af:84:d7:71:fa:c5:cc:96:7f:27:98:09:
                    17:1c:27:4e:51:f7:17:4a:13:5f:c6:f3:ae:77:06:
                    11:aa:6f:9b:9a:54:ed:06:63:6e:cd:a2:f4:c5:6b:
                    a5:11:4d:1e:d5:58:0a:39:ff:1f:75:f9:d7:cf:d1:
                    aa:e8:d0:0c:1a:5f:c9:aa:d8:19:23:ab:6a:38:c2:
                    2e:68:43:e7:bd:a4:31:bc:87:7a:58:7b:73:89:05:
                    d1:43:12:3a:09:36:0f:69:e3:b3:bf:bd:c3:cb:70:
                    1b:cb:7c:24:f0:b7:10:8b:3a:6b:b0:a7:02:47:60:
                    a8:ae:00:7b:45:7f:de:07:08:71:78:00:0d:c9:dc:
                    c2:c2:dd:6f:84:0a:ae:74:fe:98:ae:b9:a5:66:83:
                    70:b5:1a:47:bd:32:1a:6c:8b:df:22:45:83:e1:38:
                    29:25:f5:96:e5:e7:36:42:ab:cb:38:33:5c:3e:39:
                    63:4c:c1:c8:e9:a9:8e:22:ea:97:5b:1e:d4:b5:9d:
                    89:c5:62:d2:dc:97:aa:7f:a1:76:e1:50:19:56:0b:
                    8b:d5:9a:21:25:5a:12:f3:ee:4b:05:16:ad:19:62:
                    c8:8d:6f:4d:b4:5c:af:6a:a9:98:07:5f:dd:26:92:
                    13:1f:32:d2:73:80:8f:12:ad:ce:46:ed:91:35:29:
                    32:a9:a7:8a:2f:85:88:3f:48:2c:d4:26:e3:22:e5:
                    46:e0:fe:1d:bf:b8:30:79:36:5e:88:c4:41:cf:33:
                    09:ea:26:07:63:3c:b3:bb:52:0c:a4:64:9f:a3:21:
                    e0:38:bd:80:08:26:29:99:ce:30:e7:a7:82:41:8b:
                    69:81:4e:98:0f:92:2d:76:72:ff:f8:5a:4f:97:57:
                    a9:d8:f5:79:c3:89:9a:0a:df:fc:d1:20:08:31:16:
                    4f:0f:a0:38:d2:8e:0b:1d:7f:32:97:3c:d7:f9:1d:
                    40:c0:66:6b:16:3f:98:22:12:92:2e:1e:16:c8:07:
                    17:bb:38:cc:65:0d:1a:14:de:df:e4:da:89:d4:40:
                    62:cf:59
                Exponent: 65537 (0x10001)
        X509v3 extensions:
            X509v3 Key Usage: critical
                Digital Signature, Key Encipherment
            X509v3 Basic Constraints: 
                CA:FALSE
            X509v3 Extended Key Usage: 
                TLS Web Server Authentication, TLS Web Client Authentication
            X509v3 Subject Key Identifier: 
                63:3D:62:79:B5:F4:2A:D1:C3:31:20:DD:B4:EB:CA:1F:32:48:BB:CB
            X509v3 Authority Key Identifier: 
                keyid:52:53:5F:DA:76:E1:0A:7D:73:AE:D0:12:45:72:13:C1:30:4F:4E:39

            Authority Information Access: 
                CA Issuers - URI:http://nitpicksy.no/ca/tls-ca.cer

            X509v3 CRL Distribution Points: 

                Full Name:
                  URI:http://nitpicksy.no/ca/tls-ca.crl

            X509v3 Subject Alternative Name: 
                DNS:nitpicksy.no, DNS:www.nitpicksy.no, DNS:localhost
    Signature Algorithm: sha256WithRSAEncryption
         ca:3c:bd:d9:ca:40:9d:20:81:b0:25:66:91:2c:80:6e:dd:e2:
         51:14:18:c4:64:24:0e:26:ba:3d:98:09:5c:3e:d0:d7:03:a5:
         cb:96:89:9c:57:4b:7c:30:3f:ef:68:4e:46:17:ff:d2:b8:48:
         6b:e5:ff:c6:7d:4b:41:d6:21:52:08:8c:05:b1:d3:bf:2f:08:
         92:01:b9:f9:23:e9:0d:38:f4:34:84:9e:5f:8b:d5:97:4e:49:
         fe:d4:60:75:14:59:e3:4c:00:d5:77:f8:ed:fe:7c:6c:ba:48:
         fe:fa:11:5e:80:91:44:93:32:1a:2f:f2:96:f9:37:51:e0:86:
         65:03:b0:75:e9:c4:72:48:83:eb:b4:e6:e1:e4:21:56:eb:0a:
         fa:cb:39:08:60:94:5d:ee:7c:ff:16:3b:8f:73:f0:6d:3e:0d:
         05:5b:e6:f0:c8:5f:e7:59:34:10:8f:d8:ee:82:ee:c3:fc:cf:
         c4:36:6f:f4:1d:da:5b:02:36:b9:87:89:89:59:3b:dc:3e:21:
         91:be:9d:f9:81:45:25:79:42:24:83:f5:2c:e3:bc:52:df:d4:
         4a:32:9c:f7:8a:60:f3:12:90:8d:d1:9a:b0:a8:b7:45:db:a7:
         ec:6b:c9:23:ac:1c:38:43:af:9d:bd:b9:a4:65:4e:18:93:d8:
         c3:19:2e:df:27:51:15:e2:50:7c:c1:03:05:67:9d:83:a3:26:
         02:c1:53:70:98:2d:54:9c:cb:cc:bc:af:6d:be:c1:76:c7:dd:
         12:e1:ce:a4:e5:c1:f8:d4:5d:a9:77:0c:e2:6c:32:d6:41:7f:
         4e:04:35:e3:61:75:66:16:0f:35:2e:4c:76:f6:18:a7:19:0f:
         3f:26:f9:a9:b8:ef:de:9e:18:c9:52:cc:4e:47:d4:2b:d0:b9:
         00:b7:dc:13:c6:29:6e:71:dc:ea:bf:b8:16:b0:b2:98:e2:e6:
         01:86:4f:4f:ce:aa:fc:54:55:c1:aa:32:7d:f8:0c:a7:6d:85:
         48:21:0d:c0:d7:ad:ba:0a:f8:e4:1b:9a:5e:c1:b5:2d:8e:2c:
         c0:04:31:24:db:0c:2f:13:51:4f:dc:89:4e:7a:fd:f4:8a:cc:
         6e:9d:45:24:a1:57:58:a5:73:fa:87:a4:fd:43:ad:6f:b6:df:
         54:62:28:c0:0b:10:d9:37:ba:7c:89:2d:af:bf:5c:04:80:35:
         5d:3a:fc:89:d3:89:f2:c3:1f:fb:c0:b7:b5:83:ee:00:61:9f:
         7a:11:3f:7f:2f:c5:ba:ef:da:30:0f:0b:90:c6:ea:92:2d:2e:
         37:28:24:01:10:17:59:e8:99:5c:03:b6:55:17:1a:4e:ab:f7:
         30:44:88:2b:cc:11:93:57
-----BEGIN CERTIFICATE-----
MIIGeTCCBGGgAwIBAgIUXlmXVugRzTKwf+hVaOP1l15zkTMwDQYJKoZIhvcNAQEL
BQAwZjELMAkGA1UEBhMCTk8xEjAQBgNVBAoMCU5pdHBpY2tzeTEoMCYGA1UECwwf
Tml0cGlja3N5IENlcnRpZmljYXRlIEF1dGhvcml0eTEZMBcGA1UEAwwQTml0cGlj
a3N5IFRMUyBDQTAeFw0yMDEyMDYyMjIwMDRaFw0yMjEyMDYyMjIwMDRaMFwxCzAJ
BgNVBAYTAk5PMRIwEAYDVQQKDAlOaXRwaWNrc3kxKDAmBgNVBAsMH05pdHBpY2tz
eSBDZXJ0aWZpY2F0ZSBBdXRob3JpdHkxDzANBgNVBAMMBlBheXBhbDCCAiIwDQYJ
KoZIhvcNAQEBBQADggIPADCCAgoCggIBANfXyzyIpkR+0aWRrUyoJ+5zSS/vuNNN
EjPQxIbHK6+0xR5utTB/gXQGvBjie4tzvuvsRp2wFd/w03+MRFpAEHq1KX519E/B
GS8L8l/p4Br/+gJb1YslI8ELYlmkGPAa84PxAaPJSzGbtkC9lOdLAmtJG3MmUNnJ
2cCFr4TXcfrFzJZ/J5gJFxwnTlH3F0oTX8bzrncGEapvm5pU7QZjbs2i9MVrpRFN
HtVYCjn/H3X518/RqujQDBpfyarYGSOrajjCLmhD572kMbyHelh7c4kF0UMSOgk2
D2njs7+9w8twG8t8JPC3EIs6a7CnAkdgqK4Ae0V/3gcIcXgADcncwsLdb4QKrnT+
mK65pWaDcLUaR70yGmyL3yJFg+E4KSX1luXnNkKryzgzXD45Y0zByOmpjiLql1se
1LWdicVi0tyXqn+hduFQGVYLi9WaISVaEvPuSwUWrRliyI1vTbRcr2qpmAdf3SaS
Ex8y0nOAjxKtzkbtkTUpMqmnii+FiD9ILNQm4yLlRuD+Hb+4MHk2XojEQc8zCeom
B2M8s7tSDKRkn6Mh4Di9gAgmKZnOMOengkGLaYFOmA+SLXZy//haT5dXqdj1ecOJ
mgrf/NEgCDEWTw+gONKOCx1/Mpc81/kdQMBmaxY/mCISki4eFsgHF7s4zGUNGhTe
3+TaidRAYs9ZAgMBAAGjggEnMIIBIzAOBgNVHQ8BAf8EBAMCBaAwCQYDVR0TBAIw
ADAdBgNVHSUEFjAUBggrBgEFBQcDAQYIKwYBBQUHAwIwHQYDVR0OBBYEFGM9Ynm1
9CrRwzEg3bTryh8ySLvLMB8GA1UdIwQYMBaAFFJTX9p24Qp9c67QEkVyE8EwT045
MD0GCCsGAQUFBwEBBDEwLzAtBggrBgEFBQcwAoYhaHR0cDovL25pdHBpY2tzeS5u
by9jYS90bHMtY2EuY2VyMDIGA1UdHwQrMCkwJ6AloCOGIWh0dHA6Ly9uaXRwaWNr
c3kubm8vY2EvdGxzLWNhLmNybDA0BgNVHREELTArggxuaXRwaWNrc3kubm+CEHd3
dy5uaXRwaWNrc3kubm+CCWxvY2FsaG9zdDANBgkqhkiG9w0BAQsFAAOCAgEAyjy9
2cpAnSCBsCVmkSyAbt3iURQYxGQkDia6PZgJXD7Q1wOly5aJnFdLfDA/72hORhf/
0rhIa+X/xn1LQdYhUgiMBbHTvy8IkgG5+SPpDTj0NISeX4vVl05J/tRgdRRZ40wA
1Xf47f58bLpI/voRXoCRRJMyGi/ylvk3UeCGZQOwdenEckiD67Tm4eQhVusK+ss5
CGCUXe58/xY7j3PwbT4NBVvm8Mhf51k0EI/Y7oLuw/zPxDZv9B3aWwI2uYeJiVk7
3D4hkb6d+YFFJXlCJIP1LOO8Ut/USjKc94pg8xKQjdGasKi3Rdun7GvJI6wcOEOv
nb25pGVOGJPYwxku3ydRFeJQfMEDBWedg6MmAsFTcJgtVJzLzLyvbb7BdsfdEuHO
pOXB+NRdqXcM4mwy1kF/TgQ142F1ZhYPNS5MdvYYpxkPPyb5qbjv3p4YyVLMTkfU
K9C5ALfcE8YpbnHc6r+4FrCymOLmAYZPT86q/FRVwaoyffgMp22FSCENwNetugr4
5BuaXsG1LY4swAQxJNsMLxNRT9yJTnr99IrMbp1FJKFXWKVz+oek/UOtb7bfVGIo
wAsQ2Te6fIktr79cBIA1XTr8idOJ8sMf+8C3tYPuAGGfehE/fy/Fuu/aMA8LkMbq
ki0uNygkARAXWeiZXAO2VRcaTqv3MESIK8wRk1c=
-----END CERTIFICATE-----
