Certificate:
    Data:
        Version: 3 (0x2)
        Serial Number:
            5f:42:24:57:78:1e:ae:dd:3b:2a:84:2a:37:7b:1f:03:a6:8a:18:cf
        Signature Algorithm: sha256WithRSAEncryption
        Issuer: C=NO, O=Nitpicksy, OU=Nitpicksy Certificate Authority, CN=Nitpicksy TLS CA
        Validity
            Not Before: Dec  6 22:20:02 2020 GMT
            Not After : Dec  6 22:20:02 2022 GMT
        Subject: C=NO, O=Nitpicksy, OU=Nitpicksy Certificate Authority, CN=Literary Society
        Subject Public Key Info:
            Public Key Algorithm: rsaEncryption
                RSA Public-Key: (4096 bit)
                Modulus:
                    00:e1:7c:bf:7c:08:f3:69:49:db:f4:ab:28:7e:8e:
                    bb:03:44:e7:7f:37:11:d7:d7:d4:f3:99:fa:35:89:
                    9a:1d:b1:f5:62:60:55:82:cc:0d:e2:1e:d9:e9:d5:
                    2d:13:71:a1:c3:61:59:5c:0a:cb:16:21:0e:5a:99:
                    09:f5:18:64:60:a3:b0:28:2e:bf:9c:de:3f:7e:a1:
                    c6:99:c4:3e:c8:fd:b5:21:e2:e0:bf:74:76:34:b0:
                    1d:ef:87:40:1e:39:57:41:ff:14:ae:ee:b1:c0:b7:
                    42:58:4d:68:2d:1b:bf:96:eb:ca:f7:f4:fe:71:06:
                    08:92:23:8a:4e:c1:c0:ca:c7:a0:d7:ba:64:f8:24:
                    3a:4f:4d:c4:21:d5:71:18:61:ef:a0:56:2e:dd:f7:
                    7b:5d:d0:af:81:ca:54:93:13:2b:96:80:82:fb:90:
                    c8:9b:fb:d6:52:e9:82:ba:3c:8d:95:5e:56:d3:b8:
                    d3:77:a8:de:e6:d4:25:5d:29:de:c5:14:09:cd:db:
                    5a:3f:93:75:b6:d7:0b:8e:ab:3f:77:b4:e4:5d:b9:
                    9b:42:76:58:0a:39:70:d2:aa:67:01:2e:de:05:53:
                    3b:77:7d:8c:1c:7a:0d:10:00:29:7b:ef:8e:e3:56:
                    83:ea:ae:08:a3:de:87:f5:4d:f2:03:8b:b3:56:35:
                    a6:55:5a:9b:3d:a5:5a:b3:c4:3a:02:ea:49:89:7a:
                    36:c9:21:5f:26:fa:ee:d0:1e:e2:e7:f6:ae:12:ed:
                    24:4e:9d:50:fe:d1:03:41:84:30:7d:75:02:33:74:
                    93:33:4c:b5:e6:93:5e:9e:b4:20:6f:f9:95:cd:bb:
                    bd:6b:46:b7:7e:f7:d9:6f:4b:47:0e:66:d3:3a:63:
                    9c:be:46:be:36:d6:1c:7d:85:8b:f0:1e:03:0b:f8:
                    80:70:ff:b2:42:93:81:47:4d:dd:5e:01:f9:1b:70:
                    3b:d5:be:76:dc:99:95:1a:e5:08:e5:3a:45:61:83:
                    28:84:b2:21:4e:b2:6b:e6:64:d5:b4:17:c1:09:a4:
                    dc:2a:af:3a:7d:6f:fd:6c:6e:a4:e4:7c:8a:ff:6b:
                    7a:f4:fb:d6:95:ed:62:1b:e7:78:6e:74:98:32:cb:
                    c3:24:b9:8a:dd:9f:10:9e:a9:b9:12:c9:4e:a9:1e:
                    63:1d:df:fd:e1:5d:b7:c8:e0:b3:e6:02:c7:49:03:
                    9c:c3:b5:a0:20:e0:66:0d:16:c5:6f:0e:cc:71:fd:
                    cc:56:44:c0:ee:4e:70:5e:95:f7:ce:3b:dc:92:38:
                    bc:bf:33:ac:fe:85:41:8e:da:26:14:fd:90:ed:22:
                    53:13:8e:c0:ce:38:96:77:ee:12:df:05:2c:b8:21:
                    04:3b:ff
                Exponent: 65537 (0x10001)
        X509v3 extensions:
            X509v3 Key Usage: critical
                Digital Signature, Key Encipherment
            X509v3 Basic Constraints: 
                CA:FALSE
            X509v3 Extended Key Usage: 
                TLS Web Server Authentication, TLS Web Client Authentication
            X509v3 Subject Key Identifier: 
                C4:A7:85:57:F3:A5:A7:43:51:F2:3A:D5:90:1C:64:8B:63:31:D2:F1
            X509v3 Authority Key Identifier: 
                keyid:52:53:5F:DA:76:E1:0A:7D:73:AE:D0:12:45:72:13:C1:30:4F:4E:39

            Authority Information Access: 
                CA Issuers - URI:http://nitpicksy.no/ca/tls-ca.cer

            X509v3 CRL Distribution Points: 

                Full Name:
                  URI:http://nitpicksy.no/ca/tls-ca.crl

            X509v3 Subject Alternative Name: 
                DNS:nitpicksy.no, DNS:www.nitpicksy.no, DNS:localhost
    Signature Algorithm: sha256WithRSAEncryption
         96:91:71:2b:ea:48:00:47:93:21:bf:7d:1b:6b:a6:05:ad:5e:
         1c:c3:46:4b:71:0d:aa:05:3a:72:e4:f3:a7:8d:fe:5e:b5:7b:
         74:28:b5:9e:8c:cf:67:26:cf:90:3c:e9:2b:64:48:f2:06:30:
         59:53:6e:a9:ec:e3:d6:5f:5c:ac:45:64:03:1e:5d:95:77:8e:
         75:be:dc:ca:c2:85:5f:66:a1:5f:cf:ee:a5:0b:b1:dd:1d:8b:
         15:e1:1c:bd:a1:5d:9d:a4:b9:71:f4:b7:e9:06:da:a2:dc:5a:
         07:93:98:87:2f:7e:a0:55:85:20:57:38:b6:35:1e:24:39:5d:
         d3:b3:18:d8:d5:c5:11:3d:ca:2d:39:b4:74:51:5d:e9:4f:25:
         2c:7e:5b:1d:d9:e5:83:2b:73:65:15:dd:09:f7:9a:d7:7a:50:
         8c:f1:bb:90:ac:2f:7b:d3:0c:c1:2c:89:48:58:53:33:10:02:
         25:5a:af:b3:e8:46:03:2e:99:24:7e:12:12:b9:7d:e4:d5:b5:
         d4:a4:b1:01:3f:e3:9f:44:f3:70:2a:b9:76:3d:b7:9d:5f:73:
         d7:30:2a:3d:08:6d:25:e2:50:10:05:7c:6a:f9:a9:53:05:c1:
         fd:81:c0:08:5b:b9:6a:4a:14:ae:fa:80:ff:d1:8b:fc:26:6f:
         ac:b4:ac:29:1b:40:45:55:7b:49:47:53:00:6f:1e:22:fe:a0:
         0c:f7:dc:12:3a:5e:10:16:7d:4e:46:2d:13:64:b0:88:c2:97:
         d4:43:bc:9e:6e:72:50:13:0d:86:7a:c0:7e:70:e4:04:e5:8c:
         b5:e8:0d:cd:69:73:cf:2e:8e:66:36:20:b6:cb:bd:77:7c:62:
         93:21:ad:d3:27:20:10:64:f5:4e:7c:4a:c8:e5:cd:e3:14:f5:
         35:aa:37:47:36:8b:7c:52:39:6c:5c:36:3d:38:ef:e2:be:2a:
         d6:41:46:00:7c:1a:ae:d7:99:a4:fe:d2:6c:f7:6e:1f:77:7a:
         a3:ce:b2:96:f9:11:1b:d0:e5:dc:e2:6b:13:89:99:1c:61:d0:
         03:56:03:22:32:83:7f:5b:3e:29:25:38:7c:3b:78:23:5c:c1:
         6f:4c:6c:e8:a2:f6:33:58:0b:1f:fd:39:a6:01:72:0b:94:3c:
         52:af:b5:61:8a:fb:b0:07:84:2a:62:b9:54:7b:4d:c1:5d:86:
         b1:49:f3:bd:a1:0c:60:30:01:1d:d5:75:5d:0d:3f:ca:ac:12:
         0f:4f:2c:f0:a4:eb:4d:9d:ba:1a:51:c0:0f:34:0e:d4:ad:7e:
         b9:72:46:3a:b2:ba:0e:b4:16:18:51:a6:12:98:a9:32:70:38:
         66:d8:38:29:8c:7d:3e:bb
-----BEGIN CERTIFICATE-----
MIIGgzCCBGugAwIBAgIUX0IkV3gert07KoQqN3sfA6aKGM8wDQYJKoZIhvcNAQEL
BQAwZjELMAkGA1UEBhMCTk8xEjAQBgNVBAoMCU5pdHBpY2tzeTEoMCYGA1UECwwf
Tml0cGlja3N5IENlcnRpZmljYXRlIEF1dGhvcml0eTEZMBcGA1UEAwwQTml0cGlj
a3N5IFRMUyBDQTAeFw0yMDEyMDYyMjIwMDJaFw0yMjEyMDYyMjIwMDJaMGYxCzAJ
BgNVBAYTAk5PMRIwEAYDVQQKDAlOaXRwaWNrc3kxKDAmBgNVBAsMH05pdHBpY2tz
eSBDZXJ0aWZpY2F0ZSBBdXRob3JpdHkxGTAXBgNVBAMMEExpdGVyYXJ5IFNvY2ll
dHkwggIiMA0GCSqGSIb3DQEBAQUAA4ICDwAwggIKAoICAQDhfL98CPNpSdv0qyh+
jrsDROd/NxHX19Tzmfo1iZodsfViYFWCzA3iHtnp1S0TcaHDYVlcCssWIQ5amQn1
GGRgo7AoLr+c3j9+ocaZxD7I/bUh4uC/dHY0sB3vh0AeOVdB/xSu7rHAt0JYTWgt
G7+W68r39P5xBgiSI4pOwcDKx6DXumT4JDpPTcQh1XEYYe+gVi7d93td0K+BylST
EyuWgIL7kMib+9ZS6YK6PI2VXlbTuNN3qN7m1CVdKd7FFAnN21o/k3W21wuOqz93
tORduZtCdlgKOXDSqmcBLt4FUzt3fYwceg0QACl7747jVoPqrgij3of1TfIDi7NW
NaZVWps9pVqzxDoC6kmJejbJIV8m+u7QHuLn9q4S7SROnVD+0QNBhDB9dQIzdJMz
TLXmk16etCBv+ZXNu71rRrd+99lvS0cOZtM6Y5y+Rr421hx9hYvwHgML+IBw/7JC
k4FHTd1eAfkbcDvVvnbcmZUa5QjlOkVhgyiEsiFOsmvmZNW0F8EJpNwqrzp9b/1s
bqTkfIr/a3r0+9aV7WIb53hudJgyy8MkuYrdnxCeqbkSyU6pHmMd3/3hXbfI4LPm
AsdJA5zDtaAg4GYNFsVvDsxx/cxWRMDuTnBelffOO9ySOLy/M6z+hUGO2iYU/ZDt
IlMTjsDOOJZ37hLfBSy4IQQ7/wIDAQABo4IBJzCCASMwDgYDVR0PAQH/BAQDAgWg
MAkGA1UdEwQCMAAwHQYDVR0lBBYwFAYIKwYBBQUHAwEGCCsGAQUFBwMCMB0GA1Ud
DgQWBBTEp4VX86WnQ1HyOtWQHGSLYzHS8TAfBgNVHSMEGDAWgBRSU1/aduEKfXOu
0BJFchPBME9OOTA9BggrBgEFBQcBAQQxMC8wLQYIKwYBBQUHMAKGIWh0dHA6Ly9u
aXRwaWNrc3kubm8vY2EvdGxzLWNhLmNlcjAyBgNVHR8EKzApMCegJaAjhiFodHRw
Oi8vbml0cGlja3N5Lm5vL2NhL3Rscy1jYS5jcmwwNAYDVR0RBC0wK4IMbml0cGlj
a3N5Lm5vghB3d3cubml0cGlja3N5Lm5vgglsb2NhbGhvc3QwDQYJKoZIhvcNAQEL
BQADggIBAJaRcSvqSABHkyG/fRtrpgWtXhzDRktxDaoFOnLk86eN/l61e3QotZ6M
z2cmz5A86StkSPIGMFlTbqns49ZfXKxFZAMeXZV3jnW+3MrChV9moV/P7qULsd0d
ixXhHL2hXZ2kuXH0t+kG2qLcWgeTmIcvfqBVhSBXOLY1HiQ5XdOzGNjVxRE9yi05
tHRRXelPJSx+Wx3Z5YMrc2UV3Qn3mtd6UIzxu5CsL3vTDMEsiUhYUzMQAiVar7Po
RgMumSR+EhK5feTVtdSksQE/459E83AquXY9t51fc9cwKj0IbSXiUBAFfGr5qVMF
wf2BwAhbuWpKFK76gP/Ri/wmb6y0rCkbQEVVe0lHUwBvHiL+oAz33BI6XhAWfU5G
LRNksIjCl9RDvJ5uclATDYZ6wH5w5ATljLXoDc1pc88ujmY2ILbLvXd8YpMhrdMn
IBBk9U58SsjlzeMU9TWqN0c2i3xSOWxcNj047+K+KtZBRgB8Gq7XmaT+0mz3bh93
eqPOspb5ERvQ5dziaxOJmRxh0ANWAyIyg39bPiklOHw7eCNcwW9MbOii9jNYCx/9
OaYBcguUPFKvtWGK+7AHhCpiuVR7TcFdhrFJ872hDGAwAR3VdV0NP8qsEg9PLPCk
602duhpRwA80DtStfrlyRjqyug60FhhRphKYqTJwOGbYOCmMfT67
-----END CERTIFICATE-----
