Certificate:
    Data:
        Version: 3 (0x2)
        Serial Number:
            5f:9f:ad:bc:c8:2c:51:bf:00:12:74:a5:ef:58:2d:ff:c1:3a:38:97
        Signature Algorithm: sha256WithRSAEncryption
        Issuer: C=NO, O=Nitpicksy, OU=Nitpicksy Certificate Authority, CN=Nitpicksy TLS CA
        Validity
            Not Before: Dec 11 23:35:58 2020 GMT
            Not After : Dec 11 23:35:58 2022 GMT
        Subject: C=NO, O=Nitpicksy, OU=Nitpicksy Certificate Authority, CN=Bank
        Subject Public Key Info:
            Public Key Algorithm: rsaEncryption
                RSA Public-Key: (4096 bit)
                Modulus:
                    00:bb:c2:b0:4d:ba:ff:df:10:b6:10:64:22:12:12:
                    17:72:b1:f3:f4:9b:6f:41:53:c0:86:4d:75:78:ab:
                    45:19:d1:e1:62:cb:eb:fb:d4:68:e8:68:be:a1:86:
                    8e:d0:71:e8:e1:29:33:fc:a0:67:8d:82:5e:9f:8c:
                    18:36:d5:2e:05:c0:82:76:f2:df:aa:54:66:f4:08:
                    64:1a:f8:c0:3c:3b:e8:0c:d9:06:dd:77:0d:97:93:
                    5c:04:ff:1c:21:61:33:8c:e8:96:f4:e3:80:c7:cf:
                    c8:a6:a2:7e:08:48:c1:e8:a7:75:b2:eb:c9:4e:1d:
                    a2:c4:f9:4f:ac:af:48:1e:20:ae:21:17:b9:ca:ce:
                    24:d4:04:50:cc:e0:74:c0:89:8f:3d:f0:c4:6f:6d:
                    14:67:5f:88:89:10:36:a0:4e:dd:12:af:76:94:d4:
                    84:6d:ee:c8:95:16:14:7c:9f:1b:3a:8a:d9:2a:b9:
                    db:56:5f:b8:97:68:fe:b4:fb:3b:e0:11:10:23:78:
                    f5:ce:63:2c:83:0e:6e:c8:21:60:b3:46:63:51:8f:
                    e3:cb:04:fe:24:c6:6b:79:ad:08:94:c5:3a:5a:78:
                    be:ab:52:94:03:5e:d6:5a:20:a6:4d:54:2c:c2:40:
                    a8:60:79:e8:f0:65:bc:b7:a6:3e:80:1d:0b:59:ab:
                    f2:01:16:5b:ce:fd:af:31:49:01:69:c0:18:d8:5f:
                    58:08:a7:eb:f8:fa:60:d6:e2:7a:27:b7:40:1b:a2:
                    6c:01:a4:eb:ad:0a:52:d4:8d:83:68:90:de:eb:cf:
                    98:e6:89:62:01:86:fb:f5:2b:9a:19:89:13:eb:5b:
                    4a:70:fb:f3:f7:b8:0c:ba:26:f8:15:64:ce:00:30:
                    1b:a4:92:59:7a:03:eb:a7:36:7e:a3:43:78:aa:67:
                    f2:07:86:c1:91:2a:a8:90:3d:a8:05:b2:de:53:73:
                    bf:02:ba:07:ee:05:35:dd:1d:18:c5:59:07:3d:8e:
                    a3:38:4c:fb:95:65:54:80:81:ae:93:4b:be:ee:45:
                    9d:9a:fa:f8:a6:91:85:85:ed:89:05:50:60:ac:66:
                    b2:6f:95:49:f8:9c:31:11:14:45:82:b3:d1:ec:76:
                    4f:8d:c9:ef:c6:05:66:72:38:4a:95:e1:8c:a0:0b:
                    9e:6b:c8:9e:6a:97:f8:10:34:34:e3:52:c0:f1:27:
                    b6:1b:bb:31:2e:49:b3:a7:1d:61:32:14:3c:4c:d0:
                    28:00:af:e8:b3:f4:a2:35:f7:ba:7f:2c:40:6b:3a:
                    a6:ae:e4:f7:11:d5:4d:5b:4b:c1:76:3a:61:8d:ee:
                    ff:7d:9c:ec:bc:91:59:33:00:96:3b:3d:6c:93:d6:
                    e1:97:23
                Exponent: 65537 (0x10001)
        X509v3 extensions:
            X509v3 Key Usage: critical
                Digital Signature, Key Encipherment
            X509v3 Basic Constraints: 
                CA:FALSE
            X509v3 Extended Key Usage: 
                TLS Web Server Authentication, TLS Web Client Authentication
            X509v3 Subject Key Identifier: 
                40:56:B5:EF:F7:E7:71:2C:1F:1E:B1:2A:C0:9F:20:E2:73:84:E4:48
            X509v3 Authority Key Identifier: 
                keyid:99:B8:0A:C6:F9:8F:63:32:21:3F:40:58:30:B1:09:38:21:F0:EA:62

            Authority Information Access: 
                CA Issuers - URI:http://nitpicksy.no/ca/tls-ca.cer

            X509v3 CRL Distribution Points: 

                Full Name:
                  URI:http://nitpicksy.no/ca/tls-ca.crl

            X509v3 Subject Alternative Name: 
                DNS:nitpicksy.no, DNS:www.nitpicksy.no, DNS:localhost, IP Address:127.0.0.1
    Signature Algorithm: sha256WithRSAEncryption
         83:db:59:c3:ef:cc:b4:8f:23:19:d0:13:75:fd:e3:3c:65:88:
         e2:46:19:5a:72:67:87:34:70:4d:58:9e:c5:63:e0:6f:81:6d:
         c3:0b:7a:e3:39:aa:fd:b7:7f:c1:18:bc:39:c3:7b:14:fd:33:
         df:9a:de:ef:4f:39:be:90:c3:89:3b:9e:24:82:00:4d:8a:e7:
         f8:33:10:c4:6c:9d:29:9f:7a:b5:eb:49:84:2c:b6:29:38:26:
         e1:8c:7e:23:20:a5:f3:d2:1f:9a:c2:e4:0c:27:61:75:78:0c:
         f2:3d:de:1f:00:71:c1:e1:80:21:67:f7:7d:c3:9d:0d:87:14:
         2d:5a:fb:a7:24:25:45:65:3a:45:47:47:41:e0:1f:cd:0d:18:
         ea:97:4f:3b:a3:46:3c:7e:26:b9:7e:27:05:05:50:15:bf:63:
         78:1e:6b:72:27:67:99:b9:d1:0b:e6:fa:81:77:32:0a:d0:ba:
         98:de:7b:42:84:62:c0:00:74:c3:73:34:37:e5:ca:bb:7a:6f:
         12:25:11:28:bf:2a:de:dd:b0:78:b9:07:df:0a:19:32:ee:6a:
         b9:c5:4b:66:40:ee:41:33:9f:5a:95:43:18:21:9d:9f:51:89:
         65:e8:78:f7:ec:23:93:79:77:b6:27:da:51:7a:6f:9e:a9:c0:
         f0:6c:41:b1:c1:eb:fe:52:5e:05:ee:8d:1d:5a:8c:bd:2e:9a:
         1b:44:43:c1:e4:9c:32:38:f3:f6:9a:ce:7f:e2:d0:74:16:e4:
         9a:e3:6e:e5:9e:58:9d:3b:b5:3c:19:bb:ef:ba:56:4d:44:22:
         eb:49:37:1a:6a:f9:2a:3b:c1:be:3e:8f:14:ef:9c:e1:bd:9c:
         bb:88:2d:d4:42:fc:91:ba:fb:69:8b:f4:5b:0f:2e:9c:54:22:
         9a:6a:43:36:10:87:7d:93:e2:9c:a9:38:96:86:97:15:39:8a:
         1e:73:ab:5a:77:e7:6d:c4:27:ef:71:a0:da:86:76:da:ca:26:
         0c:f3:bd:eb:79:1f:e4:a9:d4:d7:88:88:ff:ed:76:19:fe:28:
         ee:1d:6e:1d:ae:b1:33:85:94:16:66:b9:24:ae:6e:ae:c4:e1:
         bb:f0:ba:c3:11:4b:36:25:24:ef:22:aa:09:5e:46:bf:d1:8d:
         d2:4b:80:94:ab:72:eb:98:55:9c:59:41:41:f7:34:3a:dd:7d:
         59:39:52:ff:db:2a:14:57:93:be:2f:a3:87:bc:ce:9f:90:94:
         24:39:51:86:0e:c4:ed:22:92:fd:49:78:3c:3d:ee:a8:9c:01:
         47:45:55:1a:b9:31:6d:bf:27:05:6a:f6:b5:54:ea:59:a3:79:
         de:9e:e5:ad:41:0b:57:d6
-----BEGIN CERTIFICATE-----
MIIGfTCCBGWgAwIBAgIUX5+tvMgsUb8AEnSl71gt/8E6OJcwDQYJKoZIhvcNAQEL
BQAwZjELMAkGA1UEBhMCTk8xEjAQBgNVBAoMCU5pdHBpY2tzeTEoMCYGA1UECwwf
Tml0cGlja3N5IENlcnRpZmljYXRlIEF1dGhvcml0eTEZMBcGA1UEAwwQTml0cGlj
a3N5IFRMUyBDQTAeFw0yMDEyMTEyMzM1NThaFw0yMjEyMTEyMzM1NThaMFoxCzAJ
BgNVBAYTAk5PMRIwEAYDVQQKDAlOaXRwaWNrc3kxKDAmBgNVBAsMH05pdHBpY2tz
eSBDZXJ0aWZpY2F0ZSBBdXRob3JpdHkxDTALBgNVBAMMBEJhbmswggIiMA0GCSqG
SIb3DQEBAQUAA4ICDwAwggIKAoICAQC7wrBNuv/fELYQZCISEhdysfP0m29BU8CG
TXV4q0UZ0eFiy+v71GjoaL6hho7QcejhKTP8oGeNgl6fjBg21S4FwIJ28t+qVGb0
CGQa+MA8O+gM2Qbddw2Xk1wE/xwhYTOM6Jb044DHz8imon4ISMHop3Wy68lOHaLE
+U+sr0geIK4hF7nKziTUBFDM4HTAiY898MRvbRRnX4iJEDagTt0Sr3aU1IRt7siV
FhR8nxs6itkqudtWX7iXaP60+zvgERAjePXOYyyDDm7IIWCzRmNRj+PLBP4kxmt5
rQiUxTpaeL6rUpQDXtZaIKZNVCzCQKhgeejwZby3pj6AHQtZq/IBFlvO/a8xSQFp
wBjYX1gIp+v4+mDW4nont0AbomwBpOutClLUjYNokN7rz5jmiWIBhvv1K5oZiRPr
W0pw+/P3uAy6JvgVZM4AMBukkll6A+unNn6jQ3iqZ/IHhsGRKqiQPagFst5Tc78C
ugfuBTXdHRjFWQc9jqM4TPuVZVSAga6TS77uRZ2a+vimkYWF7YkFUGCsZrJvlUn4
nDERFEWCs9Hsdk+Nye/GBWZyOEqV4YygC55ryJ5ql/gQNDTjUsDxJ7YbuzEuSbOn
HWEyFDxM0CgAr+iz9KI197p/LEBrOqau5PcR1U1bS8F2OmGN7v99nOy8kVkzAJY7
PWyT1uGXIwIDAQABo4IBLTCCASkwDgYDVR0PAQH/BAQDAgWgMAkGA1UdEwQCMAAw
HQYDVR0lBBYwFAYIKwYBBQUHAwEGCCsGAQUFBwMCMB0GA1UdDgQWBBRAVrXv9+dx
LB8esSrAnyDic4TkSDAfBgNVHSMEGDAWgBSZuArG+Y9jMiE/QFgwsQk4IfDqYjA9
BggrBgEFBQcBAQQxMC8wLQYIKwYBBQUHMAKGIWh0dHA6Ly9uaXRwaWNrc3kubm8v
Y2EvdGxzLWNhLmNlcjAyBgNVHR8EKzApMCegJaAjhiFodHRwOi8vbml0cGlja3N5
Lm5vL2NhL3Rscy1jYS5jcmwwOgYDVR0RBDMwMYIMbml0cGlja3N5Lm5vghB3d3cu
bml0cGlja3N5Lm5vgglsb2NhbGhvc3SHBH8AAAEwDQYJKoZIhvcNAQELBQADggIB
AIPbWcPvzLSPIxnQE3X94zxliOJGGVpyZ4c0cE1YnsVj4G+BbcMLeuM5qv23f8EY
vDnDexT9M9+a3u9POb6Qw4k7niSCAE2K5/gzEMRsnSmferXrSYQstik4JuGMfiMg
pfPSH5rC5AwnYXV4DPI93h8AccHhgCFn933DnQ2HFC1a+6ckJUVlOkVHR0HgH80N
GOqXTzujRjx+Jrl+JwUFUBW/Y3gea3InZ5m50Qvm+oF3MgrQupjee0KEYsAAdMNz
NDflyrt6bxIlESi/Kt7dsHi5B98KGTLuarnFS2ZA7kEzn1qVQxghnZ9RiWXoePfs
I5N5d7Yn2lF6b56pwPBsQbHB6/5SXgXujR1ajL0umhtEQ8HknDI48/aazn/i0HQW
5JrjbuWeWJ07tTwZu++6Vk1EIutJNxpq+So7wb4+jxTvnOG9nLuILdRC/JG6+2mL
9FsPLpxUIppqQzYQh32T4pypOJaGlxU5ih5zq1p3523EJ+9xoNqGdtrKJgzzvet5
H+Sp1NeIiP/tdhn+KO4dbh2usTOFlBZmuSSubq7E4bvwusMRSzYlJO8iqgleRr/R
jdJLgJSrcuuYVZxZQUH3NDrdfVk5Uv/bKhRXk74vo4e8zp+QlCQ5UYYOxO0ikv1J
eDw97qicAUdFVRq5MW2/JwVq9rVU6lmjed6e5a1BC1fW
-----END CERTIFICATE-----
