Certificate:
    Data:
        Version: 3 (0x2)
        Serial Number:
            62:a1:3b:35:04:01:5e:13:ed:bc:4f:8d:7b:7b:7e:d0:c7:ca:40:4e
        Signature Algorithm: sha256WithRSAEncryption
        Issuer: C=NO, O=Nitpicksy, OU=Nitpicksy Certificate Authority, CN=Nitpicksy TLS CA
        Validity
            Not Before: Dec 11 20:36:49 2020 GMT
            Not After : Dec 11 20:36:49 2022 GMT
        Subject: C=NO, O=Nitpicksy, OU=Nitpicksy Certificate Authority, CN=Cloud
        Subject Public Key Info:
            Public Key Algorithm: rsaEncryption
                RSA Public-Key: (4096 bit)
                Modulus:
                    00:c0:08:68:4a:1c:d2:98:7b:74:12:18:65:0e:97:
                    1f:94:1f:ff:7d:3e:3d:b3:de:18:9f:49:60:cb:a1:
                    13:3c:65:8f:3d:74:f1:e1:bd:0d:82:fb:bf:0c:b8:
                    2e:ea:89:17:e9:54:7c:7c:24:ca:0c:03:8a:32:84:
                    bf:c8:73:f0:22:77:22:35:7a:39:a6:7c:6e:b2:1c:
                    ea:39:00:94:67:6d:72:bd:d0:c7:0f:ca:1b:70:a3:
                    ae:77:6c:e6:8b:66:27:12:61:f1:56:ee:ed:70:e4:
                    73:2a:0f:7b:c3:59:e2:8d:ad:d1:a2:7a:cd:f8:c5:
                    4e:e1:75:e3:f8:66:7a:bf:12:62:bf:84:72:75:09:
                    07:53:9b:4d:cd:fd:c7:19:0d:4c:33:1f:a6:0f:fb:
                    c5:d3:a0:ab:3b:b6:52:de:4f:55:de:bd:e9:2b:4e:
                    e4:5f:f5:a2:76:5c:48:10:29:15:de:19:c8:e1:9e:
                    6d:45:9c:18:6b:e3:42:2f:bf:bd:1a:3f:27:ec:27:
                    7c:a4:8e:d9:a6:f6:e6:cb:fc:1e:8c:9e:5e:31:c0:
                    63:84:13:0d:2d:43:d1:63:8c:1d:1e:3d:f5:bc:84:
                    2a:6b:a1:21:f1:32:ba:8f:8e:64:7f:41:ac:12:82:
                    ad:55:89:1d:58:91:13:6b:fa:eb:02:ae:1e:f7:c1:
                    bf:cd:59:38:e5:ab:ee:28:6f:10:bf:4d:a9:9f:4b:
                    c6:3c:30:f3:98:21:19:60:a3:38:ef:b9:05:35:6b:
                    2f:42:43:68:30:98:4b:75:82:39:64:cf:78:6e:1b:
                    5d:8d:cd:6d:15:80:1c:cd:2b:af:7b:4f:30:42:b7:
                    6e:aa:f9:74:da:b5:7e:c1:28:40:4c:18:b2:e5:9c:
                    b2:8b:3b:3e:da:ea:52:4a:4e:b6:fb:cc:e2:50:2c:
                    d2:be:59:94:d4:81:ea:99:28:b0:81:2e:c2:e1:f4:
                    24:68:b7:e3:fd:77:ea:27:3e:d9:e6:5b:aa:ad:fc:
                    7a:59:5f:2a:c2:50:c5:c5:73:f4:15:db:d5:99:c7:
                    34:d3:12:a3:97:ff:af:dd:d0:e1:c9:b7:e5:a1:09:
                    e2:b6:b6:e2:f5:35:af:8a:ca:1a:48:dd:85:78:61:
                    0b:e0:64:c6:79:ae:3d:85:24:11:a7:36:98:68:d7:
                    42:09:77:c4:e7:59:1a:77:7c:c3:05:10:07:8e:61:
                    6d:76:75:58:6d:ec:46:53:75:b0:af:8d:b3:7d:a8:
                    84:43:92:c0:1d:f9:74:43:2a:87:09:cf:1e:39:e8:
                    ed:c2:47:ab:71:c9:01:66:7a:2b:b1:40:b9:b2:16:
                    cd:e1:59:d0:90:40:76:62:78:36:61:d7:63:91:94:
                    c4:42:ef
                Exponent: 65537 (0x10001)
        X509v3 extensions:
            X509v3 Key Usage: critical
                Digital Signature, Key Encipherment
            X509v3 Basic Constraints: 
                CA:FALSE
            X509v3 Extended Key Usage: 
                TLS Web Server Authentication, TLS Web Client Authentication
            X509v3 Subject Key Identifier: 
                A4:96:FE:F7:04:22:B5:DC:98:2D:B7:2A:22:89:F3:50:20:86:32:B0
            X509v3 Authority Key Identifier: 
                keyid:CC:B0:B8:BC:D8:35:9B:94:9B:C9:52:8E:84:33:E7:D3:46:B9:14:ED

            Authority Information Access: 
                CA Issuers - URI:http://nitpicksy.no/ca/tls-ca.cer

            X509v3 CRL Distribution Points: 

                Full Name:
                  URI:http://nitpicksy.no/ca/tls-ca.crl

            X509v3 Subject Alternative Name: 
                DNS:nitpicksy.no, DNS:www.nitpicksy.no, DNS:localhost, IP Address:127.0.0.1
    Signature Algorithm: sha256WithRSAEncryption
         84:f4:dc:33:4b:dd:2d:0c:df:67:ad:11:de:2e:24:64:17:6c:
         3b:36:21:35:89:b9:0f:8f:2b:a4:a7:db:0d:76:4e:83:a7:ff:
         db:d4:95:68:bd:5f:00:62:0b:e8:89:22:ab:24:32:6d:fe:b8:
         cc:04:89:c7:97:0a:2e:94:f6:88:90:a6:15:4e:b7:6a:f8:31:
         e3:28:b6:52:a3:23:89:3a:5f:b0:ed:32:a1:59:a6:ca:4f:14:
         45:ef:f6:e9:a5:b2:a1:9b:fe:1b:d2:9b:95:34:63:75:0a:e2:
         5c:fe:00:7b:cc:d3:6d:2c:40:46:63:b3:56:11:24:6f:9d:c8:
         d1:d1:cd:08:48:c6:d7:4f:ce:4c:4e:5a:70:38:b4:6d:1e:3d:
         25:8d:a1:26:2c:3c:76:fc:f2:ed:71:52:a0:e8:ab:9b:24:00:
         71:cb:2c:8f:5e:ad:23:14:1e:a6:17:16:2a:a3:76:21:73:d2:
         b0:49:5e:0a:ca:29:fe:c0:ed:58:a3:34:9e:1c:da:79:48:49:
         46:b1:dc:11:55:4b:67:50:7e:78:90:00:eb:5a:2e:2d:d4:83:
         35:ba:0d:9d:4f:9d:27:f3:30:31:a5:bf:13:13:e3:a8:bb:41:
         88:f3:a0:a2:38:f8:b3:a9:9e:08:a8:c7:ce:12:7b:8a:82:46:
         4a:1e:70:37:12:29:db:4f:3d:da:53:1e:8b:ac:01:77:fc:4e:
         ef:67:fd:44:68:f8:5b:5e:38:99:fd:87:75:b9:3b:d2:d3:d5:
         03:4b:4a:4c:c6:5e:0e:1c:13:34:9d:c4:28:22:5a:40:ff:d1:
         3e:17:36:3f:8f:bb:6c:cf:21:f6:b7:20:b2:e0:25:6c:9b:14:
         07:a2:e3:62:e4:45:25:fc:50:29:7c:83:fb:d9:75:03:fa:a1:
         aa:f1:73:1d:93:13:c8:94:21:f0:90:88:0c:99:a3:68:9e:ba:
         82:9a:67:63:d7:2f:6a:7f:71:b0:de:4d:a8:f1:f6:d0:c6:73:
         93:4f:53:05:ab:11:75:31:b7:a5:0e:84:cd:bf:a2:75:1a:ef:
         a4:17:2c:a7:25:1e:8f:69:a7:e4:93:7d:5d:a3:5f:59:ee:d0:
         ce:76:39:6a:8a:d2:59:ed:d1:96:27:fa:a0:60:dd:2a:b2:da:
         29:5e:20:92:e4:65:19:63:31:d6:ee:39:37:2c:83:56:e5:b5:
         d7:32:7b:1c:47:f3:4b:a1:73:d2:21:e0:d8:62:80:57:92:ae:
         77:d1:43:0d:43:8d:a2:db:a9:93:04:0c:27:62:45:3a:6c:f9:
         da:24:8b:27:e0:9d:d5:08:cc:4a:1a:e0:f8:57:57:3f:77:31:
         99:d6:e7:2e:48:1a:57:19
-----BEGIN CERTIFICATE-----
MIIGfjCCBGagAwIBAgIUYqE7NQQBXhPtvE+Ne3t+0MfKQE4wDQYJKoZIhvcNAQEL
BQAwZjELMAkGA1UEBhMCTk8xEjAQBgNVBAoMCU5pdHBpY2tzeTEoMCYGA1UECwwf
Tml0cGlja3N5IENlcnRpZmljYXRlIEF1dGhvcml0eTEZMBcGA1UEAwwQTml0cGlj
a3N5IFRMUyBDQTAeFw0yMDEyMTEyMDM2NDlaFw0yMjEyMTEyMDM2NDlaMFsxCzAJ
BgNVBAYTAk5PMRIwEAYDVQQKDAlOaXRwaWNrc3kxKDAmBgNVBAsMH05pdHBpY2tz
eSBDZXJ0aWZpY2F0ZSBBdXRob3JpdHkxDjAMBgNVBAMMBUNsb3VkMIICIjANBgkq
hkiG9w0BAQEFAAOCAg8AMIICCgKCAgEAwAhoShzSmHt0EhhlDpcflB//fT49s94Y
n0lgy6ETPGWPPXTx4b0Ngvu/DLgu6okX6VR8fCTKDAOKMoS/yHPwInciNXo5pnxu
shzqOQCUZ21yvdDHD8obcKOud2zmi2YnEmHxVu7tcORzKg97w1nija3RonrN+MVO
4XXj+GZ6vxJiv4RydQkHU5tNzf3HGQ1MMx+mD/vF06CrO7ZS3k9V3r3pK07kX/Wi
dlxIECkV3hnI4Z5tRZwYa+NCL7+9Gj8n7Cd8pI7Zpvbmy/wejJ5eMcBjhBMNLUPR
Y4wdHj31vIQqa6Eh8TK6j45kf0GsEoKtVYkdWJETa/rrAq4e98G/zVk45avuKG8Q
v02pn0vGPDDzmCEZYKM477kFNWsvQkNoMJhLdYI5ZM94bhtdjc1tFYAczSuve08w
Qrduqvl02rV+wShATBiy5Zyyizs+2upSSk62+8ziUCzSvlmU1IHqmSiwgS7C4fQk
aLfj/XfqJz7Z5luqrfx6WV8qwlDFxXP0FdvVmcc00xKjl/+v3dDhybfloQnitrbi
9TWvisoaSN2FeGEL4GTGea49hSQRpzaYaNdCCXfE51kad3zDBRAHjmFtdnVYbexG
U3Wwr42zfaiEQ5LAHfl0QyqHCc8eOejtwkercckBZnorsUC5shbN4VnQkEB2Yng2
YddjkZTEQu8CAwEAAaOCAS0wggEpMA4GA1UdDwEB/wQEAwIFoDAJBgNVHRMEAjAA
MB0GA1UdJQQWMBQGCCsGAQUFBwMBBggrBgEFBQcDAjAdBgNVHQ4EFgQUpJb+9wQi
tdyYLbcqIonzUCCGMrAwHwYDVR0jBBgwFoAUzLC4vNg1m5SbyVKOhDPn00a5FO0w
PQYIKwYBBQUHAQEEMTAvMC0GCCsGAQUFBzAChiFodHRwOi8vbml0cGlja3N5Lm5v
L2NhL3Rscy1jYS5jZXIwMgYDVR0fBCswKTAnoCWgI4YhaHR0cDovL25pdHBpY2tz
eS5uby9jYS90bHMtY2EuY3JsMDoGA1UdEQQzMDGCDG5pdHBpY2tzeS5ub4IQd3d3
Lm5pdHBpY2tzeS5ub4IJbG9jYWxob3N0hwR/AAABMA0GCSqGSIb3DQEBCwUAA4IC
AQCE9NwzS90tDN9nrRHeLiRkF2w7NiE1ibkPjyukp9sNdk6Dp//b1JVovV8AYgvo
iSKrJDJt/rjMBInHlwoulPaIkKYVTrdq+DHjKLZSoyOJOl+w7TKhWabKTxRF7/bp
pbKhm/4b0puVNGN1CuJc/gB7zNNtLEBGY7NWESRvncjR0c0ISMbXT85MTlpwOLRt
Hj0ljaEmLDx2/PLtcVKg6KubJABxyyyPXq0jFB6mFxYqo3Yhc9KwSV4Kyin+wO1Y
ozSeHNp5SElGsdwRVUtnUH54kADrWi4t1IM1ug2dT50n8zAxpb8TE+Oou0GI86Ci
OPizqZ4IqMfOEnuKgkZKHnA3EinbTz3aUx6LrAF3/E7vZ/1EaPhbXjiZ/Yd1uTvS
09UDS0pMxl4OHBM0ncQoIlpA/9E+FzY/j7tszyH2tyCy4CVsmxQHouNi5EUl/FAp
fIP72XUD+qGq8XMdkxPIlCHwkIgMmaNonrqCmmdj1y9qf3Gw3k2o8fbQxnOTT1MF
qxF1MbelDoTNv6J1Gu+kFyynJR6Paafkk31do19Z7tDOdjlqitJZ7dGWJ/qgYN0q
stopXiCS5GUZYzHW7jk3LINW5bXXMnscR/NLoXPSIeDYYoBXkq530UMNQ42i26mT
BAwnYkU6bPnaJIsn4J3VCMxKGuD4V1c/dzGZ1ucuSBpXGQ==
-----END CERTIFICATE-----
