Certificate:
    Data:
        Version: 3 (0x2)
        Serial Number:
            62:b1:9a:7e:42:0b:64:ab:3d:6f:f8:57:d2:8e:23:52:3d:8a:71:a1
        Signature Algorithm: sha256WithRSAEncryption
        Issuer: C=NO, O=Nitpicksy, OU=Nitpicksy Certificate Authority, CN=Nitpicksy TLS CA
        Validity
            Not Before: Dec  6 22:08:19 2020 GMT
            Not After : Dec  6 22:08:19 2022 GMT
        Subject: C=NO, O=Nitpicksy, OU=Nitpicksy Certificate Authority, CN=Eureka
        Subject Public Key Info:
            Public Key Algorithm: rsaEncryption
                RSA Public-Key: (4096 bit)
                Modulus:
                    00:b2:64:16:82:68:f8:34:ef:1b:cc:87:0b:09:f5:
                    75:fb:09:0a:1c:80:80:a5:61:8f:5f:f7:07:e8:99:
                    54:c9:33:57:50:17:d0:83:90:06:c2:2d:bd:18:b4:
                    03:7b:6d:d6:79:53:84:ca:ec:4c:15:6e:db:3a:00:
                    e0:3a:f2:b3:f4:ca:65:fb:93:ac:4b:7a:10:20:0a:
                    90:54:a6:2e:69:f8:64:f1:83:d3:9d:25:c2:9d:55:
                    de:5e:40:bd:30:e9:c8:64:60:60:ab:2c:c5:5c:f2:
                    a0:33:f3:52:9d:80:a3:71:14:19:89:37:dc:20:5a:
                    73:02:d8:c9:6d:ad:bb:6d:b7:c3:2a:aa:71:33:5d:
                    ba:54:87:24:56:ed:af:b1:0e:4e:c7:bb:be:cc:43:
                    c9:fe:27:df:7b:8b:40:51:cf:cc:10:02:b5:89:77:
                    6e:fc:9a:ec:0b:e8:2d:62:14:43:4e:84:75:3a:78:
                    f6:f7:8c:25:ce:11:80:b2:88:5a:10:e3:22:3e:aa:
                    de:ad:9c:46:08:03:dd:cc:a2:c2:d7:c0:3f:b2:63:
                    98:ef:54:b0:d3:dc:a2:79:aa:3a:f8:00:5c:ff:5b:
                    c2:e6:b9:4b:24:29:4b:1a:18:ee:b4:8d:ea:b4:7f:
                    56:65:d7:55:bf:a2:7f:6c:6b:28:cb:95:fe:45:0b:
                    eb:a7:de:22:02:da:36:a1:96:9e:20:bf:4e:2a:03:
                    46:4a:80:91:33:7b:ab:13:f7:21:b4:4d:b3:94:f1:
                    42:2f:79:83:51:a9:50:f3:cf:db:4b:ef:71:09:32:
                    ab:fc:ad:8c:32:9c:93:4b:e3:15:9f:a0:c2:d9:a2:
                    08:59:14:08:26:02:33:61:06:2c:06:88:a5:3e:0a:
                    1a:7a:a5:e3:19:b8:1e:0b:18:04:6c:aa:c8:8f:4f:
                    cc:dd:9a:62:8a:1c:27:64:40:4b:2d:fb:89:5c:95:
                    bb:0f:4e:f2:6f:dc:0b:5f:f0:b1:8a:06:b5:e9:1c:
                    5e:dc:63:83:bf:c6:e0:d9:6e:cf:a5:56:4f:46:7b:
                    68:dd:ad:fd:2b:21:58:cb:c2:af:42:98:52:b8:0b:
                    f4:f7:c3:7f:53:a9:8b:17:f2:18:d3:d4:e8:fa:7e:
                    5b:2d:99:ef:55:8f:b6:52:4a:a1:e1:1f:17:38:ab:
                    97:69:13:a5:5d:8f:40:88:52:c9:03:aa:8f:f9:78:
                    3b:9b:6c:27:3e:61:c0:31:c8:07:ad:1d:28:e3:24:
                    7c:e8:c2:7f:44:8b:79:4d:c4:d1:a3:fa:54:71:40:
                    44:2b:a4:ba:1d:7e:25:9c:0c:37:59:f5:27:8d:9c:
                    09:18:5a:a1:f2:6e:6c:38:b9:05:37:f4:77:4f:5e:
                    44:e4:81
                Exponent: 65537 (0x10001)
        X509v3 extensions:
            X509v3 Key Usage: critical
                Digital Signature, Key Encipherment
            X509v3 Basic Constraints: 
                CA:FALSE
            X509v3 Extended Key Usage: 
                TLS Web Server Authentication, TLS Web Client Authentication
            X509v3 Subject Key Identifier: 
                2F:CD:09:CD:4F:16:CB:92:A9:6D:B8:6E:DC:F7:A2:22:FE:EC:47:9C
            X509v3 Authority Key Identifier: 
                keyid:46:AE:F3:C6:AD:8C:3E:45:58:86:70:79:96:25:17:E1:6C:F7:16:A8

            Authority Information Access: 
                CA Issuers - URI:http://nitpicksy.no/ca/tls-ca.cer

            X509v3 CRL Distribution Points: 

                Full Name:
                  URI:http://nitpicksy.no/ca/tls-ca.crl

            X509v3 Subject Alternative Name: 
                DNS:nitpicksy.no, DNS:www.nitpicksy.no, DNS:localhost
    Signature Algorithm: sha256WithRSAEncryption
         2c:1a:90:8f:fb:39:51:84:54:ea:af:3e:03:59:9b:77:60:6f:
         6c:91:ec:bf:2f:0d:8e:5e:37:66:8d:fc:8a:fe:8f:40:ee:9a:
         e3:a2:2a:58:40:58:41:53:22:d6:97:c6:fb:d1:5b:f0:f9:c1:
         cf:cb:97:5a:30:12:9d:ff:0f:62:bb:96:f7:61:20:15:6d:42:
         29:1e:24:ce:da:ea:58:d3:58:2f:37:17:83:f0:cb:db:d8:4a:
         10:22:bc:23:bc:eb:33:f6:95:42:be:3b:6d:e5:3c:c9:95:5d:
         e9:aa:bf:d9:05:f3:f2:0d:26:bb:0f:32:85:f6:a5:6a:3f:a0:
         38:e7:3f:a8:ac:6f:d1:45:59:d4:51:c5:fc:ab:8c:89:37:56:
         72:96:e5:3e:60:23:f9:8a:79:cb:ea:2e:ba:45:51:55:fd:19:
         51:90:56:da:5e:44:b4:4d:58:70:50:56:91:24:ae:f4:48:4a:
         de:24:42:36:a4:96:d1:f6:e8:12:da:52:af:f1:a1:69:05:2d:
         b6:82:f0:bc:48:81:c8:42:d3:d2:c4:05:32:71:e9:55:1e:67:
         2a:49:d2:c9:46:58:b8:fc:34:1b:1e:4c:69:36:d8:11:d9:76:
         b1:9a:1c:1d:d4:4d:c0:ea:79:ae:fb:91:0f:b7:cc:b9:76:8a:
         eb:be:72:a8:46:57:b3:f1:68:a2:00:6d:8d:24:1e:db:85:93:
         ce:9f:a2:a3:c7:5e:5f:06:4d:40:da:59:76:0a:14:1e:e9:50:
         c8:62:20:4b:1f:9d:30:2a:8e:61:af:c3:24:bc:60:8b:79:f1:
         08:c8:2f:ec:a6:58:f2:cf:6c:56:d2:17:ac:6a:67:04:63:ce:
         82:a9:74:b7:51:33:6f:93:21:42:63:b2:24:fd:04:ea:a4:2d:
         19:69:b7:c4:2a:d0:cc:ec:f3:c7:2f:74:2c:65:3e:b3:d0:28:
         02:12:fe:7c:1d:df:13:96:5f:95:ae:dc:63:78:d2:4b:05:c9:
         71:74:d0:af:2f:b5:49:c2:c5:21:1d:af:03:be:6a:dc:0f:71:
         73:0b:d6:56:6a:41:2d:fb:45:e3:e9:74:cc:5c:59:8a:23:a6:
         50:ec:fd:40:11:cd:b4:41:b6:76:54:9b:1b:0a:23:63:83:09:
         61:fb:6f:65:24:7e:3b:09:8f:64:8f:c2:6e:3c:87:a1:e9:4e:
         74:4d:8b:d4:0e:a1:aa:e4:ca:8f:09:36:c4:7a:2d:ae:89:3e:
         50:12:42:a0:5d:c0:25:85:ee:33:8e:9d:05:4b:46:1f:7f:83:
         d9:35:4b:40:65:ac:56:37:64:db:c2:c0:30:12:99:88:d5:e0:
         1e:f3:55:f4:c0:6b:ed:66
-----BEGIN CERTIFICATE-----
MIIGeTCCBGGgAwIBAgIUYrGafkILZKs9b/hX0o4jUj2KcaEwDQYJKoZIhvcNAQEL
BQAwZjELMAkGA1UEBhMCTk8xEjAQBgNVBAoMCU5pdHBpY2tzeTEoMCYGA1UECwwf
Tml0cGlja3N5IENlcnRpZmljYXRlIEF1dGhvcml0eTEZMBcGA1UEAwwQTml0cGlj
a3N5IFRMUyBDQTAeFw0yMDEyMDYyMjA4MTlaFw0yMjEyMDYyMjA4MTlaMFwxCzAJ
BgNVBAYTAk5PMRIwEAYDVQQKDAlOaXRwaWNrc3kxKDAmBgNVBAsMH05pdHBpY2tz
eSBDZXJ0aWZpY2F0ZSBBdXRob3JpdHkxDzANBgNVBAMMBkV1cmVrYTCCAiIwDQYJ
KoZIhvcNAQEBBQADggIPADCCAgoCggIBALJkFoJo+DTvG8yHCwn1dfsJChyAgKVh
j1/3B+iZVMkzV1AX0IOQBsItvRi0A3tt1nlThMrsTBVu2zoA4Drys/TKZfuTrEt6
ECAKkFSmLmn4ZPGD050lwp1V3l5AvTDpyGRgYKssxVzyoDPzUp2Ao3EUGYk33CBa
cwLYyW2tu223wyqqcTNdulSHJFbtr7EOTse7vsxDyf4n33uLQFHPzBACtYl3bvya
7AvoLWIUQ06EdTp49veMJc4RgLKIWhDjIj6q3q2cRggD3cyiwtfAP7JjmO9UsNPc
onmqOvgAXP9bwua5SyQpSxoY7rSN6rR/VmXXVb+if2xrKMuV/kUL66feIgLaNqGW
niC/TioDRkqAkTN7qxP3IbRNs5TxQi95g1GpUPPP20vvcQkyq/ytjDKck0vjFZ+g
wtmiCFkUCCYCM2EGLAaIpT4KGnql4xm4HgsYBGyqyI9PzN2aYoocJ2RASy37iVyV
uw9O8m/cC1/wsYoGtekcXtxjg7/G4Nluz6VWT0Z7aN2t/SshWMvCr0KYUrgL9PfD
f1OpixfyGNPU6Pp+Wy2Z71WPtlJKoeEfFzirl2kTpV2PQIhSyQOqj/l4O5tsJz5h
wDHIB60dKOMkfOjCf0SLeU3E0aP6VHFARCukuh1+JZwMN1n1J42cCRhaofJubDi5
BTf0d09eROSBAgMBAAGjggEnMIIBIzAOBgNVHQ8BAf8EBAMCBaAwCQYDVR0TBAIw
ADAdBgNVHSUEFjAUBggrBgEFBQcDAQYIKwYBBQUHAwIwHQYDVR0OBBYEFC/NCc1P
FsuSqW24btz3oiL+7EecMB8GA1UdIwQYMBaAFEau88atjD5FWIZweZYlF+Fs9xao
MD0GCCsGAQUFBwEBBDEwLzAtBggrBgEFBQcwAoYhaHR0cDovL25pdHBpY2tzeS5u
by9jYS90bHMtY2EuY2VyMDIGA1UdHwQrMCkwJ6AloCOGIWh0dHA6Ly9uaXRwaWNr
c3kubm8vY2EvdGxzLWNhLmNybDA0BgNVHREELTArggxuaXRwaWNrc3kubm+CEHd3
dy5uaXRwaWNrc3kubm+CCWxvY2FsaG9zdDANBgkqhkiG9w0BAQsFAAOCAgEALBqQ
j/s5UYRU6q8+A1mbd2BvbJHsvy8Njl43Zo38iv6PQO6a46IqWEBYQVMi1pfG+9Fb
8PnBz8uXWjASnf8PYruW92EgFW1CKR4kztrqWNNYLzcXg/DL29hKECK8I7zrM/aV
Qr47beU8yZVd6aq/2QXz8g0muw8yhfalaj+gOOc/qKxv0UVZ1FHF/KuMiTdWcpbl
PmAj+Yp5y+ouukVRVf0ZUZBW2l5EtE1YcFBWkSSu9EhK3iRCNqSW0fboEtpSr/Gh
aQUttoLwvEiByELT0sQFMnHpVR5nKknSyUZYuPw0Gx5MaTbYEdl2sZocHdRNwOp5
rvuRD7fMuXaK675yqEZXs/FoogBtjSQe24WTzp+io8deXwZNQNpZdgoUHulQyGIg
Sx+dMCqOYa/DJLxgi3nxCMgv7KZY8s9sVtIXrGpnBGPOgql0t1Ezb5MhQmOyJP0E
6qQtGWm3xCrQzOzzxy90LGU+s9AoAhL+fB3fE5Zfla7cY3jSSwXJcXTQry+1ScLF
IR2vA75q3A9xcwvWVmpBLftF4+l0zFxZiiOmUOz9QBHNtEG2dlSbGwojY4MJYftv
ZSR+OwmPZI/CbjyHoelOdE2L1A6hquTKjwk2xHotrok+UBJCoF3AJYXuM46dBUtG
H3+D2TVLQGWsVjdk28LAMBKZiNXgHvNV9MBr7WY=
-----END CERTIFICATE-----
