Certificate:
    Data:
        Version: 3 (0x2)
        Serial Number:
            64:20:38:ab:a6:f4:fa:16:8a:8c:57:71:40:7a:fa:a9:c8:d1:83:6e
        Signature Algorithm: sha256WithRSAEncryption
        Issuer: C=NO, O=Nitpicksy, OU=Nitpicksy Certificate Authority, CN=Nitpicksy TLS CA
        Validity
            Not Before: Dec  6 22:20:06 2020 GMT
            Not After : Dec  6 22:20:06 2022 GMT
        Subject: C=NO, O=Nitpicksy, OU=Nitpicksy Certificate Authority, CN=Bitcoin
        Subject Public Key Info:
            Public Key Algorithm: rsaEncryption
                RSA Public-Key: (4096 bit)
                Modulus:
                    00:a6:c9:c0:f3:0a:0d:2d:2e:07:3e:73:42:4e:a7:
                    6f:48:d1:9c:9c:b6:24:97:f2:d8:3b:74:29:94:6a:
                    0c:00:61:4a:b8:3e:5c:e6:e5:7d:5b:c6:0e:6f:ac:
                    5b:3a:99:1a:9f:58:a2:50:59:37:6d:0e:94:bd:f5:
                    81:3f:db:03:d1:bb:a8:07:de:b0:94:ab:05:ca:7d:
                    8b:bf:47:a6:21:4f:c2:20:2d:8e:f8:c4:ee:06:f5:
                    e0:20:be:2a:5e:59:dd:e3:37:cc:d9:0a:c9:51:2c:
                    df:4a:79:db:39:65:37:0a:8f:16:5e:0c:2e:f9:c8:
                    1e:01:f9:7e:6a:d5:c2:09:51:4d:a1:24:1f:3a:c6:
                    54:61:10:17:ac:22:c1:3f:d5:d2:48:7b:fb:09:55:
                    99:ca:b7:61:53:c0:34:b3:07:50:9d:42:11:69:45:
                    58:2a:96:2e:95:08:38:f8:26:74:7d:ee:0f:8f:75:
                    7b:86:01:ff:4d:a6:04:c9:64:42:aa:06:ce:4c:f6:
                    fa:cf:51:9c:98:45:52:b9:cf:08:ba:f3:12:46:10:
                    fb:9e:30:29:86:b3:8c:84:16:b9:68:6f:e3:bf:b7:
                    aa:f7:32:12:cf:dc:6a:db:b7:5f:a9:74:e0:53:8e:
                    37:f9:e1:0b:72:2c:13:0a:a3:21:dd:d0:a3:14:b7:
                    b1:f3:d2:41:d8:8b:46:e2:26:c6:41:7f:c8:30:1d:
                    e5:0c:66:1a:d8:bc:ef:1a:b0:72:a0:1b:1c:b5:20:
                    f0:8b:28:f6:07:ec:d1:8e:d8:3d:f6:93:53:70:f3:
                    94:b3:50:eb:5c:f8:50:f9:ce:b5:2d:31:84:27:16:
                    06:a0:d2:f2:76:00:61:9d:6d:2d:a1:52:43:cf:be:
                    f3:59:a7:41:06:f0:b8:af:35:60:ab:fd:a0:5b:8e:
                    3f:ce:90:1d:ed:31:ed:d7:ad:7e:2a:df:53:3b:3c:
                    99:5f:89:08:e9:55:17:50:34:b2:5a:76:2b:cf:1b:
                    a3:85:dd:a1:8b:79:69:53:49:2b:c7:d6:69:70:3e:
                    e1:ce:a3:61:24:ab:99:de:c4:56:77:ef:9c:bc:b9:
                    1b:96:73:4e:3f:ba:c3:d5:04:c4:64:33:73:f6:f5:
                    ca:59:95:51:e8:f9:02:91:30:9b:09:b4:76:b7:ca:
                    85:99:be:24:ab:f2:7f:7f:19:fb:ad:7e:74:03:e8:
                    29:aa:12:e2:84:86:89:a9:43:be:d5:33:42:0a:d8:
                    e7:5b:20:60:12:75:b3:c7:c3:d2:8f:96:10:dd:3b:
                    4e:5d:0f:85:ed:1d:e4:a7:2f:3a:ed:8f:d8:9c:a9:
                    28:06:51:7d:ca:25:ca:e2:8c:20:80:1c:f5:8c:9d:
                    51:9b:4f
                Exponent: 65537 (0x10001)
        X509v3 extensions:
            X509v3 Key Usage: critical
                Digital Signature, Key Encipherment
            X509v3 Basic Constraints: 
                CA:FALSE
            X509v3 Extended Key Usage: 
                TLS Web Server Authentication, TLS Web Client Authentication
            X509v3 Subject Key Identifier: 
                05:0E:2E:8B:AA:88:25:E7:02:C7:82:7B:DA:F4:71:06:AE:40:8D:AE
            X509v3 Authority Key Identifier: 
                keyid:52:53:5F:DA:76:E1:0A:7D:73:AE:D0:12:45:72:13:C1:30:4F:4E:39

            Authority Information Access: 
                CA Issuers - URI:http://nitpicksy.no/ca/tls-ca.cer

            X509v3 CRL Distribution Points: 

                Full Name:
                  URI:http://nitpicksy.no/ca/tls-ca.crl

            X509v3 Subject Alternative Name: 
                DNS:nitpicksy.no, DNS:www.nitpicksy.no, DNS:localhost
    Signature Algorithm: sha256WithRSAEncryption
         85:b0:f0:e2:fd:29:60:1e:02:6b:91:35:17:f3:92:b6:c8:02:
         d5:1f:ec:64:08:1f:e0:d0:a9:2e:67:12:aa:ce:d5:eb:c3:b8:
         3d:bf:f7:5d:5b:b3:b8:c7:ee:4a:db:4d:86:c9:ce:e3:94:cc:
         78:53:a3:29:b8:66:4d:f4:dd:60:31:2a:18:c3:50:09:f1:c9:
         15:c8:85:0c:60:1d:4a:0d:71:25:46:0f:3e:e4:1a:54:c2:37:
         fb:fd:01:f7:e3:7b:eb:05:43:90:dd:3b:e2:7e:b1:ae:a2:b8:
         04:77:04:7c:4b:c5:5d:36:af:0f:b7:7e:88:19:7e:33:cb:00:
         4e:6d:9b:87:7d:32:d1:ad:94:48:60:5d:bd:6b:3e:c8:46:a5:
         6f:2e:56:a0:ca:0b:cd:d8:b3:74:89:21:3a:39:43:00:09:24:
         cc:ff:18:1e:3b:75:bd:5c:c9:cf:d8:c2:ef:c0:1b:08:f0:dc:
         b7:0c:27:3b:e4:11:86:91:60:0b:51:e5:5e:78:fb:24:d3:bb:
         6d:f0:3f:8c:90:61:f4:01:07:35:13:1c:fd:83:eb:7d:11:f6:
         5c:dd:e7:3c:f3:24:ec:43:07:c6:bf:3f:18:58:9f:55:a0:6b:
         e9:5f:5a:54:a8:a8:2c:44:3c:d1:d0:66:2f:5d:14:95:00:58:
         70:dd:6b:1e:8a:17:90:41:3a:67:41:a6:b3:d8:d2:ba:58:06:
         03:df:5c:44:0f:66:14:b9:2b:c7:b3:bd:c2:4d:c7:de:a5:e0:
         03:40:e8:c0:5b:64:ff:e3:85:b5:5a:7d:3a:eb:36:d1:56:35:
         a3:8d:a4:c5:68:1c:6a:f4:18:27:00:00:47:24:37:20:30:8e:
         a9:9d:04:0e:39:3d:ca:bc:a0:a3:52:b0:2b:d7:29:e7:e0:5c:
         a9:3a:e2:a3:f4:2b:ab:e5:3c:82:1c:de:01:ba:32:24:1e:2e:
         91:f5:23:6e:bd:61:fb:3b:e5:3c:c9:a7:12:9e:87:0a:17:27:
         f1:55:2f:53:0a:3f:95:b6:73:87:09:9b:54:e7:74:b2:40:33:
         a4:b3:66:58:4d:c5:16:84:b4:48:e0:18:a2:b2:4e:e2:b2:36:
         be:88:32:0d:6f:de:29:de:9d:e0:17:00:db:77:09:f3:89:5f:
         34:1d:3e:95:b5:4e:5a:54:0d:c2:a7:df:52:10:cf:8a:28:f5:
         62:35:9f:f3:88:b5:af:40:4e:f1:60:93:c2:be:c4:16:12:9c:
         af:50:0e:cf:3b:b8:9f:da:c2:a2:a7:4f:ef:61:dc:ef:23:6e:
         24:98:39:39:f1:06:c1:23:f7:e1:03:e0:cb:52:b3:4c:40:2e:
         fb:6c:f3:c2:46:44:1c:16
-----BEGIN CERTIFICATE-----
MIIGejCCBGKgAwIBAgIUZCA4q6b0+haKjFdxQHr6qcjRg24wDQYJKoZIhvcNAQEL
BQAwZjELMAkGA1UEBhMCTk8xEjAQBgNVBAoMCU5pdHBpY2tzeTEoMCYGA1UECwwf
Tml0cGlja3N5IENlcnRpZmljYXRlIEF1dGhvcml0eTEZMBcGA1UEAwwQTml0cGlj
a3N5IFRMUyBDQTAeFw0yMDEyMDYyMjIwMDZaFw0yMjEyMDYyMjIwMDZaMF0xCzAJ
BgNVBAYTAk5PMRIwEAYDVQQKDAlOaXRwaWNrc3kxKDAmBgNVBAsMH05pdHBpY2tz
eSBDZXJ0aWZpY2F0ZSBBdXRob3JpdHkxEDAOBgNVBAMMB0JpdGNvaW4wggIiMA0G
CSqGSIb3DQEBAQUAA4ICDwAwggIKAoICAQCmycDzCg0tLgc+c0JOp29I0ZyctiSX
8tg7dCmUagwAYUq4Plzm5X1bxg5vrFs6mRqfWKJQWTdtDpS99YE/2wPRu6gH3rCU
qwXKfYu/R6YhT8IgLY74xO4G9eAgvipeWd3jN8zZCslRLN9Keds5ZTcKjxZeDC75
yB4B+X5q1cIJUU2hJB86xlRhEBesIsE/1dJIe/sJVZnKt2FTwDSzB1CdQhFpRVgq
li6VCDj4JnR97g+PdXuGAf9NpgTJZEKqBs5M9vrPUZyYRVK5zwi68xJGEPueMCmG
s4yEFrlob+O/t6r3MhLP3Grbt1+pdOBTjjf54QtyLBMKoyHd0KMUt7Hz0kHYi0bi
JsZBf8gwHeUMZhrYvO8asHKgGxy1IPCLKPYH7NGO2D32k1Nw85SzUOtc+FD5zrUt
MYQnFgag0vJ2AGGdbS2hUkPPvvNZp0EG8LivNWCr/aBbjj/OkB3tMe3XrX4q31M7
PJlfiQjpVRdQNLJadivPG6OF3aGLeWlTSSvH1mlwPuHOo2Ekq5nexFZ375y8uRuW
c04/usPVBMRkM3P29cpZlVHo+QKRMJsJtHa3yoWZviSr8n9/GfutfnQD6CmqEuKE
hompQ77VM0IK2OdbIGASdbPHw9KPlhDdO05dD4XtHeSnLzrtj9icqSgGUX3KJcri
jCCAHPWMnVGbTwIDAQABo4IBJzCCASMwDgYDVR0PAQH/BAQDAgWgMAkGA1UdEwQC
MAAwHQYDVR0lBBYwFAYIKwYBBQUHAwEGCCsGAQUFBwMCMB0GA1UdDgQWBBQFDi6L
qogl5wLHgnva9HEGrkCNrjAfBgNVHSMEGDAWgBRSU1/aduEKfXOu0BJFchPBME9O
OTA9BggrBgEFBQcBAQQxMC8wLQYIKwYBBQUHMAKGIWh0dHA6Ly9uaXRwaWNrc3ku
bm8vY2EvdGxzLWNhLmNlcjAyBgNVHR8EKzApMCegJaAjhiFodHRwOi8vbml0cGlj
a3N5Lm5vL2NhL3Rscy1jYS5jcmwwNAYDVR0RBC0wK4IMbml0cGlja3N5Lm5vghB3
d3cubml0cGlja3N5Lm5vgglsb2NhbGhvc3QwDQYJKoZIhvcNAQELBQADggIBAIWw
8OL9KWAeAmuRNRfzkrbIAtUf7GQIH+DQqS5nEqrO1evDuD2/911bs7jH7krbTYbJ
zuOUzHhToym4Zk303WAxKhjDUAnxyRXIhQxgHUoNcSVGDz7kGlTCN/v9Affje+sF
Q5DdO+J+sa6iuAR3BHxLxV02rw+3fogZfjPLAE5tm4d9MtGtlEhgXb1rPshGpW8u
VqDKC83Ys3SJITo5QwAJJMz/GB47db1cyc/Ywu/AGwjw3LcMJzvkEYaRYAtR5V54
+yTTu23wP4yQYfQBBzUTHP2D630R9lzd5zzzJOxDB8a/PxhYn1Wga+lfWlSoqCxE
PNHQZi9dFJUAWHDdax6KF5BBOmdBprPY0rpYBgPfXEQPZhS5K8ezvcJNx96l4ANA
6MBbZP/jhbVafTrrNtFWNaONpMVoHGr0GCcAAEckNyAwjqmdBA45Pcq8oKNSsCvX
KefgXKk64qP0K6vlPIIc3gG6MiQeLpH1I269Yfs75TzJpxKehwoXJ/FVL1MKP5W2
c4cJm1TndLJAM6SzZlhNxRaEtEjgGKKyTuKyNr6IMg1v3ineneAXANt3CfOJXzQd
PpW1TlpUDcKn31IQz4oo9WI1n/OIta9ATvFgk8K+xBYSnK9QDs87uJ/awqKnT+9h
3O8jbiSYOTnxBsEj9+ED4MtSs0xALvts88JGRBwW
-----END CERTIFICATE-----
