Certificate:
    Data:
        Version: 3 (0x2)
        Serial Number:
            66:c8:5f:85:8d:ab:c4:96:f6:38:58:00:b5:ea:ea:1a:70:63:65:df
        Signature Algorithm: sha256WithRSAEncryption
        Issuer: C=NO, O=Nitpicksy, OU=Nitpicksy Certificate Authority, CN=Nitpicksy TLS CA
        Validity
            Not Before: Dec  6 21:59:45 2020 GMT
            Not After : Dec  6 21:59:45 2022 GMT
        Subject: C=NO, O=Nitpicksy, OU=Nitpicksy Certificate Authority, CN=zuul
        Subject Public Key Info:
            Public Key Algorithm: rsaEncryption
                RSA Public-Key: (4096 bit)
                Modulus:
                    00:cf:e6:1a:93:d5:4c:0e:e7:9e:4b:ec:5c:bc:cf:
                    f5:4b:c6:c0:9d:71:de:75:52:be:62:7e:4e:0e:7a:
                    22:0e:f7:e8:21:55:ba:c3:5b:ff:21:51:9c:61:ae:
                    02:40:0f:bf:1a:e7:a5:f9:1d:06:d7:82:1e:d9:b9:
                    f6:3e:ec:a7:7b:e0:e7:9d:9d:d2:5f:67:cb:15:5e:
                    b2:40:44:17:f3:b5:bd:2d:7d:e7:c9:79:7b:89:54:
                    43:87:4c:95:6b:6a:7e:a6:6b:0a:3b:d1:46:77:dd:
                    12:ea:80:24:00:c1:7f:5c:26:73:71:89:d0:7d:de:
                    00:de:53:75:ea:f0:66:4f:10:6f:09:a6:a1:a3:aa:
                    81:89:a8:7a:36:12:76:e5:b2:4b:72:9b:aa:4b:5e:
                    18:39:7c:5b:fe:2b:17:7f:19:0f:c7:16:92:b1:82:
                    f2:dd:41:3b:19:78:df:12:2b:3b:67:61:07:e7:4f:
                    f3:e5:2c:b3:12:ba:44:67:c6:eb:b0:b0:92:af:47:
                    1d:fb:e2:17:90:0e:5c:3b:43:09:99:06:43:6d:fe:
                    4d:ec:66:84:74:58:09:c3:26:a5:cd:45:fe:2f:61:
                    01:9f:53:60:5b:88:32:78:ea:d9:bd:70:dd:8a:92:
                    5e:30:26:ff:b2:ca:87:f1:aa:60:5c:d9:89:df:6d:
                    65:14:00:32:4b:0c:34:1d:d3:9c:95:d5:25:bd:54:
                    7e:f2:cc:d7:a9:fc:ed:15:63:80:48:bc:56:38:46:
                    26:3c:67:87:2c:53:76:aa:b9:04:0c:bd:e5:06:84:
                    fd:08:f3:27:8f:4c:3c:82:f0:1f:ec:21:5b:8c:35:
                    a5:b8:90:42:e6:34:bd:fa:35:6b:6b:fb:f0:cd:6b:
                    65:35:3f:46:8b:38:6d:d8:cb:cc:0c:93:e8:fb:b9:
                    39:46:2c:07:5c:88:d2:67:56:f5:60:6c:e2:b2:be:
                    04:05:1a:32:65:9e:25:1e:b2:21:af:22:80:c9:35:
                    4c:49:e8:2b:03:cb:f6:a1:b0:16:c2:70:b1:29:db:
                    99:60:47:42:c5:fc:aa:57:da:0c:c9:30:6f:3b:0c:
                    0d:ac:db:bc:a6:e9:d5:73:05:54:eb:75:70:e2:b9:
                    29:32:94:12:1c:a7:d5:3e:e0:04:71:cf:99:77:c0:
                    2c:56:28:c8:3f:0e:d0:00:23:32:aa:31:17:96:17:
                    8c:0b:aa:5e:0e:23:a9:19:cf:64:4d:cf:a0:e5:36:
                    79:5d:ed:84:31:e8:34:8e:77:6a:4b:e0:74:17:6f:
                    15:a2:b3:e1:ef:8a:1e:22:6c:3e:a3:aa:43:47:f2:
                    c4:08:b3:8e:0f:86:36:1a:c7:bc:71:58:97:68:a4:
                    e0:12:c3
                Exponent: 65537 (0x10001)
        X509v3 extensions:
            X509v3 Key Usage: critical
                Digital Signature, Key Encipherment
            X509v3 Basic Constraints: 
                CA:FALSE
            X509v3 Extended Key Usage: 
                TLS Web Server Authentication, TLS Web Client Authentication
            X509v3 Subject Key Identifier: 
                5A:49:95:74:E1:A7:C6:04:56:9F:4F:F8:93:9D:F1:0E:3D:05:50:56
            X509v3 Authority Key Identifier: 
                keyid:F8:9E:02:FC:4A:0D:42:21:E6:18:5C:50:21:68:5A:34:79:23:14:65

            Authority Information Access: 
                CA Issuers - URI:http://nitpicksy.no/ca/tls-ca.cer

            X509v3 CRL Distribution Points: 

                Full Name:
                  URI:http://nitpicksy.no/ca/tls-ca.crl

            X509v3 Subject Alternative Name: 
                DNS:nitpicksy.no, DNS:www.nitpicksy.no, DNS:localhost
    Signature Algorithm: sha256WithRSAEncryption
         7b:10:a7:b5:f7:77:60:45:aa:2b:73:f4:a5:c7:ef:5e:47:93:
         39:70:51:44:af:87:15:82:ae:db:19:74:a8:4c:9a:84:97:4a:
         8a:79:46:6b:c5:87:dc:30:b6:3e:b1:46:18:3a:5e:52:2e:0b:
         11:07:2f:9d:72:80:7a:38:50:9f:00:6c:d1:d2:01:0f:dd:b0:
         dc:e6:44:70:f6:e0:fb:f2:40:89:ce:ad:c6:f7:09:07:6b:51:
         fa:8c:d7:ca:aa:08:e6:0c:ac:61:1e:c7:16:8b:23:87:1b:bd:
         b1:3b:cd:90:7f:ad:3c:e4:2a:12:67:28:96:86:59:37:38:a2:
         03:f0:2b:a4:ad:b3:cf:ea:35:17:84:bd:1f:0e:cd:b9:9f:e6:
         94:1b:8b:fd:25:b8:c6:16:4b:09:43:de:b4:e0:0c:a8:4b:d8:
         47:2f:aa:7e:b0:5c:d3:87:bc:47:46:2e:21:7d:00:db:4f:18:
         91:d7:ba:2b:5f:a3:55:16:41:fb:de:5a:da:ad:ad:ad:6a:95:
         1e:c9:3a:5f:e0:32:fa:a0:be:c6:f3:f2:7b:76:63:0e:a1:20:
         84:37:f5:e8:51:36:7b:de:77:9f:55:10:ba:f3:a7:5a:16:61:
         5c:aa:52:68:37:1c:6b:41:88:94:11:ae:1f:27:dd:19:40:9c:
         67:c4:b6:78:11:a7:cc:b8:85:c6:6a:6e:cd:b6:1a:06:3b:f8:
         11:7a:f9:e0:75:01:8a:6c:2f:94:27:0f:ed:8b:ba:91:e5:31:
         a2:e1:ea:6f:05:95:02:64:cd:0e:55:de:07:fc:08:12:42:79:
         08:ad:4e:09:2b:32:e9:72:27:08:48:3f:4c:22:ed:3e:72:0e:
         6c:81:03:f5:56:08:16:cd:68:de:60:09:02:a2:79:51:f6:fe:
         6d:97:f4:b2:19:5f:c3:b9:8d:2e:cc:9d:4a:95:6e:51:08:7f:
         ad:ee:0f:74:52:9b:ed:06:97:8d:46:6b:ac:40:f7:1d:42:18:
         01:41:4e:f5:d3:b5:ed:8a:f0:04:85:8a:77:59:f3:80:b7:24:
         ba:96:01:06:f1:44:b8:2d:3c:52:d5:be:16:72:74:60:09:9c:
         e6:e7:35:91:7d:04:5d:19:87:79:90:25:8a:d7:7c:12:db:26:
         87:6a:54:1e:e7:cf:78:c1:6b:ce:08:b1:59:9f:4a:b4:fd:ab:
         94:13:42:27:d0:9c:aa:3a:0f:08:5e:4b:97:22:82:66:b5:10:
         18:48:9f:a5:2a:3f:39:dc:e1:aa:f1:3a:44:a2:f7:a2:77:26:
         34:26:3c:26:3f:c9:cb:94:b0:d1:08:82:b4:4a:5a:2e:6d:b5:
         93:e0:e5:19:57:0f:b9:19
-----BEGIN CERTIFICATE-----
MIIGdzCCBF+gAwIBAgIUZshfhY2rxJb2OFgAterqGnBjZd8wDQYJKoZIhvcNAQEL
BQAwZjELMAkGA1UEBhMCTk8xEjAQBgNVBAoMCU5pdHBpY2tzeTEoMCYGA1UECwwf
Tml0cGlja3N5IENlcnRpZmljYXRlIEF1dGhvcml0eTEZMBcGA1UEAwwQTml0cGlj
a3N5IFRMUyBDQTAeFw0yMDEyMDYyMTU5NDVaFw0yMjEyMDYyMTU5NDVaMFoxCzAJ
BgNVBAYTAk5PMRIwEAYDVQQKDAlOaXRwaWNrc3kxKDAmBgNVBAsMH05pdHBpY2tz
eSBDZXJ0aWZpY2F0ZSBBdXRob3JpdHkxDTALBgNVBAMMBHp1dWwwggIiMA0GCSqG
SIb3DQEBAQUAA4ICDwAwggIKAoICAQDP5hqT1UwO555L7Fy8z/VLxsCdcd51Ur5i
fk4OeiIO9+ghVbrDW/8hUZxhrgJAD78a56X5HQbXgh7ZufY+7Kd74OedndJfZ8sV
XrJARBfztb0tfefJeXuJVEOHTJVran6mawo70UZ33RLqgCQAwX9cJnNxidB93gDe
U3Xq8GZPEG8JpqGjqoGJqHo2Enblsktym6pLXhg5fFv+Kxd/GQ/HFpKxgvLdQTsZ
eN8SKztnYQfnT/PlLLMSukRnxuuwsJKvRx374heQDlw7QwmZBkNt/k3sZoR0WAnD
JqXNRf4vYQGfU2BbiDJ46tm9cN2Kkl4wJv+yyofxqmBc2YnfbWUUADJLDDQd05yV
1SW9VH7yzNep/O0VY4BIvFY4RiY8Z4csU3aquQQMveUGhP0I8yePTDyC8B/sIVuM
NaW4kELmNL36NWtr+/DNa2U1P0aLOG3Yy8wMk+j7uTlGLAdciNJnVvVgbOKyvgQF
GjJlniUesiGvIoDJNUxJ6CsDy/ahsBbCcLEp25lgR0LF/KpX2gzJMG87DA2s27ym
6dVzBVTrdXDiuSkylBIcp9U+4ARxz5l3wCxWKMg/DtAAIzKqMReWF4wLql4OI6kZ
z2RNz6DlNnld7YQx6DSOd2pL4HQXbxWis+Hvih4ibD6jqkNH8sQIs44PhjYax7xx
WJdopOASwwIDAQABo4IBJzCCASMwDgYDVR0PAQH/BAQDAgWgMAkGA1UdEwQCMAAw
HQYDVR0lBBYwFAYIKwYBBQUHAwEGCCsGAQUFBwMCMB0GA1UdDgQWBBRaSZV04afG
BFafT/iTnfEOPQVQVjAfBgNVHSMEGDAWgBT4ngL8Sg1CIeYYXFAhaFo0eSMUZTA9
BggrBgEFBQcBAQQxMC8wLQYIKwYBBQUHMAKGIWh0dHA6Ly9uaXRwaWNrc3kubm8v
Y2EvdGxzLWNhLmNlcjAyBgNVHR8EKzApMCegJaAjhiFodHRwOi8vbml0cGlja3N5
Lm5vL2NhL3Rscy1jYS5jcmwwNAYDVR0RBC0wK4IMbml0cGlja3N5Lm5vghB3d3cu
bml0cGlja3N5Lm5vgglsb2NhbGhvc3QwDQYJKoZIhvcNAQELBQADggIBAHsQp7X3
d2BFqitz9KXH715HkzlwUUSvhxWCrtsZdKhMmoSXSop5RmvFh9wwtj6xRhg6XlIu
CxEHL51ygHo4UJ8AbNHSAQ/dsNzmRHD24PvyQInOrcb3CQdrUfqM18qqCOYMrGEe
xxaLI4cbvbE7zZB/rTzkKhJnKJaGWTc4ogPwK6Sts8/qNReEvR8Ozbmf5pQbi/0l
uMYWSwlD3rTgDKhL2Ecvqn6wXNOHvEdGLiF9ANtPGJHXuitfo1UWQfveWtqtra1q
lR7JOl/gMvqgvsbz8nt2Yw6hIIQ39ehRNnved59VELrzp1oWYVyqUmg3HGtBiJQR
rh8n3RlAnGfEtngRp8y4hcZqbs22GgY7+BF6+eB1AYpsL5QnD+2LupHlMaLh6m8F
lQJkzQ5V3gf8CBJCeQitTgkrMulyJwhIP0wi7T5yDmyBA/VWCBbNaN5gCQKieVH2
/m2X9LIZX8O5jS7MnUqVblEIf63uD3RSm+0Gl41Ga6xA9x1CGAFBTvXTte2K8ASF
indZ84C3JLqWAQbxRLgtPFLVvhZydGAJnObnNZF9BF0Zh3mQJYrXfBLbJodqVB7n
z3jBa84IsVmfSrT9q5QTQifQnKo6DwheS5cigma1EBhIn6UqPznc4arxOkSi96J3
JjQmPCY/ycuUsNEIgrRKWi5ttZPg5RlXD7kZ
-----END CERTIFICATE-----
