Certificate:
    Data:
        Version: 3 (0x2)
        Serial Number:
            66:f3:cf:78:f5:15:cf:2d:ee:bf:7e:d0:eb:38:8f:b6:b0:53:63:21
        Signature Algorithm: sha256WithRSAEncryption
        Issuer: C=NO, O=Nitpicksy, OU=Nitpicksy Certificate Authority, CN=Nitpicksy TLS CA
        Validity
            Not Before: Dec  6 21:37:46 2020 GMT
            Not After : Dec  6 21:37:46 2022 GMT
        Subject: C=NO, O=Nitpicksy, OU=Nitpicksy Certificate Authority, CN=zuul
        Subject Public Key Info:
            Public Key Algorithm: rsaEncryption
                RSA Public-Key: (4096 bit)
                Modulus:
                    00:e5:ec:34:3c:37:69:36:4c:db:77:d9:05:71:8f:
                    ef:80:a3:ce:f3:bd:cb:1d:50:9b:a6:fc:33:57:1b:
                    1e:b3:59:82:97:25:76:5f:a7:65:c8:28:1e:81:25:
                    06:b6:f4:59:c2:c3:1c:e9:29:9c:35:82:bb:cb:cd:
                    0e:11:d5:22:eb:61:39:fd:e3:b2:80:fd:90:6a:0f:
                    9d:6a:8d:b3:1c:07:63:6e:4d:a0:3e:71:ce:7b:13:
                    a6:69:21:d4:8d:32:3a:4b:e7:b0:09:13:db:0a:30:
                    f0:0c:6f:68:dd:1b:af:80:4d:ab:83:47:62:15:6d:
                    19:e1:9b:47:aa:21:bc:56:d0:f6:09:7c:b5:33:e7:
                    8d:d4:51:28:cb:50:2b:85:79:29:48:99:e3:8f:2b:
                    fd:6f:23:6d:e8:79:cd:9b:1c:37:df:4a:13:dd:6b:
                    42:32:8d:dc:73:e3:de:ba:47:6e:57:63:d5:05:fa:
                    2a:d0:2a:c2:a9:dd:f1:95:43:73:27:48:da:44:29:
                    d1:8b:05:05:de:ba:ae:f4:57:f9:a0:94:5b:3a:33:
                    cd:97:d9:c4:32:85:d7:4d:76:f2:71:07:4d:15:f4:
                    24:08:ca:4b:76:d4:74:68:e9:12:c3:e6:e3:42:d5:
                    5b:0a:e5:26:3e:74:62:27:2c:a4:ca:ce:43:b5:e6:
                    43:ad:07:34:05:f1:c1:60:b3:a0:79:46:7b:a3:b8:
                    6e:16:54:e8:03:dd:63:73:20:d0:be:69:11:63:d7:
                    8f:e0:83:3f:39:2b:b0:13:32:fa:52:ca:ab:23:4c:
                    b4:ab:d8:cb:d0:80:b1:4e:22:0e:2f:09:3b:be:25:
                    d6:7d:70:80:c4:42:05:a5:39:e1:df:e7:fa:37:f3:
                    fd:f2:98:1f:05:04:e1:fd:2b:e5:80:25:2a:3d:a8:
                    4b:58:21:4d:49:7c:a9:08:41:76:32:ec:e5:cc:61:
                    19:36:e2:f2:1b:1c:ca:06:d7:ef:47:0a:25:a2:76:
                    e9:b0:4c:2d:2f:3c:b7:7d:d4:33:13:04:18:3f:ba:
                    0e:b6:4b:ba:eb:01:e9:19:a8:c1:4a:02:53:3a:57:
                    13:85:d3:54:42:41:e5:0c:19:55:33:95:34:94:ea:
                    88:b3:8d:17:37:18:ec:80:fa:77:79:1a:81:c8:2b:
                    43:c6:c8:a0:04:5d:db:dd:52:41:a3:89:be:e7:f6:
                    b8:a4:5c:9d:0b:cb:27:53:52:d6:74:ee:b8:36:2b:
                    d5:60:4b:36:b1:ee:54:91:1a:e3:c7:a8:be:f5:cb:
                    f9:15:6c:c6:45:7e:9d:c3:ff:71:e8:4f:34:e3:34:
                    a3:99:d9:52:00:30:af:0c:bc:dc:c8:91:af:59:5c:
                    2a:45:0f
                Exponent: 65537 (0x10001)
        X509v3 extensions:
            X509v3 Key Usage: critical
                Digital Signature, Key Encipherment
            X509v3 Basic Constraints: 
                CA:FALSE
            X509v3 Extended Key Usage: 
                TLS Web Server Authentication, TLS Web Client Authentication
            X509v3 Subject Key Identifier: 
                4B:2D:7A:9D:7A:BE:81:01:49:4C:CC:18:7F:01:45:09:65:37:2F:91
            X509v3 Authority Key Identifier: 
                keyid:13:C7:9F:5E:B9:43:55:A8:78:A1:8C:2B:C2:F3:BE:BF:4D:3B:7C:FF

            Authority Information Access: 
                CA Issuers - URI:http://nitpicksy.no/ca/tls-ca.cer

            X509v3 CRL Distribution Points: 

                Full Name:
                  URI:http://nitpicksy.no/ca/tls-ca.crl

            X509v3 Subject Alternative Name: 
                DNS:nitpicksy.no, DNS:www.nitpicksy.no, DNS:localhost
    Signature Algorithm: sha256WithRSAEncryption
         a5:1f:91:ce:ee:2f:dc:74:7d:94:72:4a:95:ee:2a:74:40:f2:
         2b:f5:fc:c6:92:68:d1:3d:79:d2:4b:38:ec:76:21:20:6d:7e:
         8d:c6:c6:09:7c:75:ae:0a:38:e3:bf:37:6e:9a:fb:2f:42:b8:
         43:c0:8b:6e:0e:af:c9:68:56:93:1e:51:45:54:6e:8b:28:f2:
         55:0f:76:3d:b1:2a:79:60:45:b9:34:53:8c:f9:5e:f9:1f:06:
         92:52:35:e2:dd:b2:b8:93:82:2f:85:40:ba:8c:41:9d:12:cf:
         fd:06:6b:8d:19:7f:0f:48:70:b0:c7:23:e9:b7:13:45:3d:00:
         b7:9e:44:1b:cc:4f:a9:59:f4:ec:42:e8:ed:c6:8d:5c:34:82:
         43:bf:b8:17:e2:03:c0:46:41:5c:a9:7e:da:ae:99:9e:48:b4:
         7b:5f:99:ca:86:a0:58:31:0b:64:97:d3:b1:2e:77:76:e3:3e:
         28:77:be:0a:45:8f:75:e6:b1:6c:c5:c2:63:67:bf:37:ce:75:
         e6:e7:f8:6d:14:a9:a6:6f:16:02:80:f0:62:a5:0c:d7:ba:bc:
         02:79:87:fd:33:93:16:b6:5d:0b:6f:a3:2c:5f:12:7e:33:8d:
         f3:de:59:82:15:0f:75:b1:66:7f:92:db:8e:ac:0a:a9:aa:29:
         29:42:c7:e8:2e:88:30:08:19:01:cf:64:8e:80:32:67:53:73:
         60:b1:4a:72:be:e6:f5:5d:ae:82:52:65:17:bd:c6:b0:cf:f1:
         10:05:53:75:d0:b0:c1:5d:08:05:c2:fc:29:d1:fb:09:8b:cd:
         ba:0d:22:b9:fb:c8:6c:69:db:c6:26:8b:b2:81:a0:75:42:0d:
         84:7e:bd:b9:e7:1e:2d:b7:b8:aa:ce:bc:d4:98:d6:a8:91:56:
         54:b3:9f:51:93:51:a1:f9:c5:da:d6:f2:ac:f7:e1:a6:a3:4c:
         b6:f3:f4:29:9d:fa:85:ad:e2:67:e9:f0:b0:c3:ed:78:f0:ce:
         37:b2:43:73:23:24:f6:c0:6d:4e:8c:c6:ed:e3:6a:ad:f6:e9:
         1f:96:be:3b:c0:f5:82:05:12:d1:df:28:2e:b6:24:db:d7:75:
         13:e7:69:98:bf:11:b7:90:c0:80:cf:10:c4:b7:e8:39:33:13:
         4c:57:fa:14:47:80:bc:c0:f8:d2:33:d3:c2:ca:6f:fb:80:ec:
         06:93:c5:c4:3b:4c:4f:a5:07:92:77:c7:36:1b:4c:42:e3:ab:
         6f:20:ce:19:27:d4:31:84:ee:56:3f:a0:4c:ea:2c:33:e0:d3:
         48:d0:66:1f:82:5c:11:9a:10:23:49:3b:b3:18:8d:e0:7d:f1:
         9f:a8:a4:2f:3e:05:23:bd
-----BEGIN CERTIFICATE-----
MIIGdzCCBF+gAwIBAgIUZvPPePUVzy3uv37Q6ziPtrBTYyEwDQYJKoZIhvcNAQEL
BQAwZjELMAkGA1UEBhMCTk8xEjAQBgNVBAoMCU5pdHBpY2tzeTEoMCYGA1UECwwf
Tml0cGlja3N5IENlcnRpZmljYXRlIEF1dGhvcml0eTEZMBcGA1UEAwwQTml0cGlj
a3N5IFRMUyBDQTAeFw0yMDEyMDYyMTM3NDZaFw0yMjEyMDYyMTM3NDZaMFoxCzAJ
BgNVBAYTAk5PMRIwEAYDVQQKDAlOaXRwaWNrc3kxKDAmBgNVBAsMH05pdHBpY2tz
eSBDZXJ0aWZpY2F0ZSBBdXRob3JpdHkxDTALBgNVBAMMBHp1dWwwggIiMA0GCSqG
SIb3DQEBAQUAA4ICDwAwggIKAoICAQDl7DQ8N2k2TNt32QVxj++Ao87zvcsdUJum
/DNXGx6zWYKXJXZfp2XIKB6BJQa29FnCwxzpKZw1grvLzQ4R1SLrYTn947KA/ZBq
D51qjbMcB2NuTaA+cc57E6ZpIdSNMjpL57AJE9sKMPAMb2jdG6+ATauDR2IVbRnh
m0eqIbxW0PYJfLUz543UUSjLUCuFeSlImeOPK/1vI23oec2bHDffShPda0Iyjdxz
4966R25XY9UF+irQKsKp3fGVQ3MnSNpEKdGLBQXeuq70V/mglFs6M82X2cQyhddN
dvJxB00V9CQIykt21HRo6RLD5uNC1VsK5SY+dGInLKTKzkO15kOtBzQF8cFgs6B5
RnujuG4WVOgD3WNzINC+aRFj14/ggz85K7ATMvpSyqsjTLSr2MvQgLFOIg4vCTu+
JdZ9cIDEQgWlOeHf5/o38/3ymB8FBOH9K+WAJSo9qEtYIU1JfKkIQXYy7OXMYRk2
4vIbHMoG1+9HCiWidumwTC0vPLd91DMTBBg/ug62S7rrAekZqMFKAlM6VxOF01RC
QeUMGVUzlTSU6oizjRc3GOyA+nd5GoHIK0PGyKAEXdvdUkGjib7n9rikXJ0LyydT
UtZ07rg2K9VgSzax7lSRGuPHqL71y/kVbMZFfp3D/3HoTzTjNKOZ2VIAMK8MvNzI
ka9ZXCpFDwIDAQABo4IBJzCCASMwDgYDVR0PAQH/BAQDAgWgMAkGA1UdEwQCMAAw
HQYDVR0lBBYwFAYIKwYBBQUHAwEGCCsGAQUFBwMCMB0GA1UdDgQWBBRLLXqder6B
AUlMzBh/AUUJZTcvkTAfBgNVHSMEGDAWgBQTx59euUNVqHihjCvC876/TTt8/zA9
BggrBgEFBQcBAQQxMC8wLQYIKwYBBQUHMAKGIWh0dHA6Ly9uaXRwaWNrc3kubm8v
Y2EvdGxzLWNhLmNlcjAyBgNVHR8EKzApMCegJaAjhiFodHRwOi8vbml0cGlja3N5
Lm5vL2NhL3Rscy1jYS5jcmwwNAYDVR0RBC0wK4IMbml0cGlja3N5Lm5vghB3d3cu
bml0cGlja3N5Lm5vgglsb2NhbGhvc3QwDQYJKoZIhvcNAQELBQADggIBAKUfkc7u
L9x0fZRySpXuKnRA8iv1/MaSaNE9edJLOOx2ISBtfo3Gxgl8da4KOOO/N26a+y9C
uEPAi24Or8loVpMeUUVUboso8lUPdj2xKnlgRbk0U4z5XvkfBpJSNeLdsriTgi+F
QLqMQZ0Sz/0Ga40Zfw9IcLDHI+m3E0U9ALeeRBvMT6lZ9OxC6O3GjVw0gkO/uBfi
A8BGQVypftqumZ5ItHtfmcqGoFgxC2SX07Eud3bjPih3vgpFj3XmsWzFwmNnvzfO
debn+G0UqaZvFgKA8GKlDNe6vAJ5h/0zkxa2XQtvoyxfEn4zjfPeWYIVD3WxZn+S
246sCqmqKSlCx+guiDAIGQHPZI6AMmdTc2CxSnK+5vVdroJSZRe9xrDP8RAFU3XQ
sMFdCAXC/CnR+wmLzboNIrn7yGxp28Ymi7KBoHVCDYR+vbnnHi23uKrOvNSY1qiR
VlSzn1GTUaH5xdrW8qz34aajTLbz9Cmd+oWt4mfp8LDD7XjwzjeyQ3MjJPbAbU6M
xu3jaq326R+WvjvA9YIFEtHfKC62JNvXdRPnaZi/EbeQwIDPEMS36DkzE0xX+hRH
gLzA+NIz08LKb/uA7AaTxcQ7TE+lB5J3xzYbTELjq28gzhkn1DGE7lY/oEzqLDPg
00jQZh+CXBGaECNJO7MYjeB98Z+opC8+BSO9
-----END CERTIFICATE-----
