Certificate:
    Data:
        Version: 3 (0x2)
        Serial Number:
            67:69:62:54:cc:b8:03:a7:af:11:27:74:8e:3d:24:e4:2d:b2:b8:c1
        Signature Algorithm: sha256WithRSAEncryption
        Issuer: C=NO, O=Nitpicksy, OU=Nitpicksy Certificate Authority, CN=Nitpicksy TLS CA
        Validity
            Not Before: Dec  6 21:37:49 2020 GMT
            Not After : Dec  6 21:37:49 2022 GMT
        Subject: C=NO, O=Nitpicksy, OU=Nitpicksy Certificate Authority, CN=Cloud
        Subject Public Key Info:
            Public Key Algorithm: rsaEncryption
                RSA Public-Key: (4096 bit)
                Modulus:
                    00:d7:f3:45:af:18:df:02:aa:58:75:d7:6f:16:5b:
                    7f:82:da:79:01:ae:fb:fc:9d:a3:58:89:61:f2:48:
                    39:28:7d:dd:49:32:ab:78:37:c0:cc:74:38:6c:d8:
                    f8:c8:4b:ff:77:52:51:97:43:b3:68:3b:ab:7f:29:
                    f4:50:b6:3a:18:f8:4e:e3:dc:85:13:df:c5:81:c8:
                    0f:02:65:fd:9b:7d:24:76:19:2a:70:26:23:47:97:
                    82:38:94:d6:63:0f:d7:1a:11:75:8a:c5:fb:38:f3:
                    9d:35:82:ed:48:3a:16:f9:9e:ec:a0:d7:df:f9:a9:
                    20:00:f3:71:f8:ae:63:ca:11:77:9e:36:ee:cf:37:
                    bf:5b:ab:66:5e:97:20:fa:21:a0:f6:57:36:1e:5a:
                    78:3e:7a:a5:05:ec:d8:29:af:ec:83:11:1c:77:0f:
                    8d:e2:30:df:b5:3a:4f:84:f3:d2:e4:ff:da:fe:de:
                    b1:9a:b6:12:a0:bd:ce:17:42:6a:34:b7:1b:a7:c9:
                    c3:2a:0b:9f:cd:1d:42:6c:3c:af:3f:9a:7c:12:b9:
                    72:03:f6:fd:4f:78:12:64:47:e0:c8:fe:f5:89:20:
                    cb:57:39:33:63:d0:13:83:70:33:74:c9:c5:6a:ca:
                    19:e1:21:5f:da:80:52:6b:70:10:a7:fb:dd:41:fc:
                    48:b9:fb:8e:54:0c:a4:b5:5e:86:96:bc:f3:c7:cb:
                    5c:64:e9:56:d5:69:e7:27:08:98:26:40:5d:09:8b:
                    10:67:c4:95:5c:6b:5e:66:8f:44:4a:a7:ee:26:f8:
                    b0:1b:2c:78:1e:b7:76:54:0a:08:93:84:24:b4:64:
                    e3:57:c4:f5:2f:93:9b:4b:f2:60:1c:a3:b5:40:c7:
                    43:eb:9f:ce:38:86:42:aa:3d:ea:34:15:4a:20:26:
                    e6:10:f1:31:22:a8:f8:9c:52:9c:b0:86:94:1d:fb:
                    12:59:fd:35:c6:f8:56:2f:8d:8b:63:20:db:51:d9:
                    e4:d1:59:ef:90:17:55:e8:6a:c9:17:c6:92:a4:2d:
                    e3:7d:2a:11:e6:cd:ed:05:03:b6:2f:28:39:c4:6a:
                    16:d8:98:b8:81:ef:12:94:8e:55:b7:eb:a1:14:fc:
                    ba:9c:7b:70:f1:22:de:37:43:1c:45:48:04:8c:10:
                    80:3d:35:f8:be:fb:4d:77:6b:14:d6:2b:c1:b6:b8:
                    b1:96:fe:89:35:e2:e7:3a:db:2e:41:ef:d1:07:74:
                    cd:a2:30:dc:7b:e5:33:fc:91:49:5a:1e:5f:d0:5d:
                    a3:a3:4b:ee:66:28:f6:b2:39:96:2e:1a:ad:d2:7e:
                    a4:b1:80:49:48:15:aa:d4:81:d0:fb:28:f5:5a:8e:
                    1b:02:fb
                Exponent: 65537 (0x10001)
        X509v3 extensions:
            X509v3 Key Usage: critical
                Digital Signature, Key Encipherment
            X509v3 Basic Constraints: 
                CA:FALSE
            X509v3 Extended Key Usage: 
                TLS Web Server Authentication, TLS Web Client Authentication
            X509v3 Subject Key Identifier: 
                AF:4A:7C:FB:A4:BB:15:BB:E5:4C:5D:85:F3:36:AF:C2:0A:3D:4C:A6
            X509v3 Authority Key Identifier: 
                keyid:13:C7:9F:5E:B9:43:55:A8:78:A1:8C:2B:C2:F3:BE:BF:4D:3B:7C:FF

            Authority Information Access: 
                CA Issuers - URI:http://nitpicksy.no/ca/tls-ca.cer

            X509v3 CRL Distribution Points: 

                Full Name:
                  URI:http://nitpicksy.no/ca/tls-ca.crl

            X509v3 Subject Alternative Name: 
                DNS:nitpicksy.no, DNS:www.nitpicksy.no, DNS:localhost
    Signature Algorithm: sha256WithRSAEncryption
         8e:53:0d:85:4d:05:f8:2c:1f:e9:07:90:ff:48:98:fc:e0:3c:
         9c:7c:38:32:e1:cd:e5:71:76:76:48:cc:55:7c:04:16:ae:14:
         d8:ad:6c:14:df:3b:ff:06:59:6d:21:9b:43:08:54:e6:62:ee:
         33:f7:f1:0a:7f:65:63:34:9f:96:e7:4b:cc:d2:fe:51:f8:23:
         74:62:80:1f:c3:e2:af:d9:23:88:68:ff:c8:02:6e:5b:e4:a7:
         7d:47:f4:d0:5c:d0:25:3a:29:85:8a:68:03:3d:5c:c4:74:75:
         da:41:9e:8a:58:14:e6:08:b8:30:0a:85:91:d0:56:c0:89:fc:
         56:ef:11:f5:83:58:4c:c9:00:2b:36:69:7a:cd:7d:aa:6e:a9:
         0c:9b:c6:cc:f7:4d:d2:c4:ce:e7:6b:53:09:88:a9:e2:71:11:
         a1:9d:ce:76:c8:a2:bc:2e:63:ad:e4:e2:10:bf:60:1c:e6:2c:
         7a:97:b7:7a:e2:f7:5d:22:31:5b:5f:c5:b0:17:96:0e:b0:7f:
         01:d6:f9:6d:48:e2:b2:d0:2f:dc:95:a7:7c:b7:c7:dd:8b:76:
         73:c7:39:7a:25:7e:e2:14:cc:91:56:2d:79:1f:1f:d6:90:6e:
         e7:df:06:11:57:28:a4:9d:9d:fa:b7:28:74:6b:1b:58:3b:60:
         a3:27:ac:15:8f:45:bf:19:b3:c2:b3:3c:4d:45:e0:15:4b:a0:
         23:bc:9a:4b:0f:31:f5:b5:fc:7a:f8:94:bb:ef:67:93:23:f1:
         57:65:4f:76:c8:1c:0b:de:0e:b5:84:9d:3a:e4:3a:f8:8c:78:
         62:33:04:9f:62:a9:e4:3c:ab:84:b7:dc:86:2e:c5:5a:32:20:
         a6:b6:09:46:c3:d9:7b:cf:29:4e:08:e4:ef:d4:3e:a9:22:88:
         fe:d5:dc:41:0d:c7:97:34:b4:66:51:bf:12:0e:8d:c6:61:25:
         37:7d:0a:10:b8:6b:f8:cb:a5:9f:19:0c:7d:87:c3:f9:5a:60:
         c9:31:99:4f:d3:c5:83:73:4b:64:6f:84:8f:39:34:76:b4:26:
         9f:d3:6a:9d:25:ff:25:e0:98:3b:2c:18:56:d3:55:91:2b:3c:
         d2:a2:e3:0a:95:8f:12:ed:0c:db:86:23:a1:02:d3:81:45:ec:
         2c:0c:41:3d:f3:62:c0:af:82:c3:8f:29:8b:b7:ee:e4:33:cd:
         f5:7c:a6:31:f1:a0:84:49:77:e3:f0:df:51:47:46:d1:de:2d:
         80:06:18:a3:f4:ef:9f:a1:3d:bb:ad:9a:99:a5:f7:43:f8:7b:
         bf:b5:16:2b:b8:7a:dd:b2:97:59:b0:9d:cd:c7:c5:3e:60:2d:
         b3:4f:c8:ab:d5:f8:c9:76
-----BEGIN CERTIFICATE-----
MIIGeDCCBGCgAwIBAgIUZ2liVMy4A6evESd0jj0k5C2yuMEwDQYJKoZIhvcNAQEL
BQAwZjELMAkGA1UEBhMCTk8xEjAQBgNVBAoMCU5pdHBpY2tzeTEoMCYGA1UECwwf
Tml0cGlja3N5IENlcnRpZmljYXRlIEF1dGhvcml0eTEZMBcGA1UEAwwQTml0cGlj
a3N5IFRMUyBDQTAeFw0yMDEyMDYyMTM3NDlaFw0yMjEyMDYyMTM3NDlaMFsxCzAJ
BgNVBAYTAk5PMRIwEAYDVQQKDAlOaXRwaWNrc3kxKDAmBgNVBAsMH05pdHBpY2tz
eSBDZXJ0aWZpY2F0ZSBBdXRob3JpdHkxDjAMBgNVBAMMBUNsb3VkMIICIjANBgkq
hkiG9w0BAQEFAAOCAg8AMIICCgKCAgEA1/NFrxjfAqpYdddvFlt/gtp5Aa77/J2j
WIlh8kg5KH3dSTKreDfAzHQ4bNj4yEv/d1JRl0OzaDurfyn0ULY6GPhO49yFE9/F
gcgPAmX9m30kdhkqcCYjR5eCOJTWYw/XGhF1isX7OPOdNYLtSDoW+Z7soNff+akg
APNx+K5jyhF3njbuzze/W6tmXpcg+iGg9lc2Hlp4PnqlBezYKa/sgxEcdw+N4jDf
tTpPhPPS5P/a/t6xmrYSoL3OF0JqNLcbp8nDKgufzR1CbDyvP5p8ErlyA/b9T3gS
ZEfgyP71iSDLVzkzY9ATg3AzdMnFasoZ4SFf2oBSa3AQp/vdQfxIufuOVAyktV6G
lrzzx8tcZOlW1WnnJwiYJkBdCYsQZ8SVXGteZo9ESqfuJviwGyx4Hrd2VAoIk4Qk
tGTjV8T1L5ObS/JgHKO1QMdD65/OOIZCqj3qNBVKICbmEPExIqj4nFKcsIaUHfsS
Wf01xvhWL42LYyDbUdnk0VnvkBdV6GrJF8aSpC3jfSoR5s3tBQO2Lyg5xGoW2Ji4
ge8SlI5Vt+uhFPy6nHtw8SLeN0McRUgEjBCAPTX4vvtNd2sU1ivBtrixlv6JNeLn
OtsuQe/RB3TNojDce+Uz/JFJWh5f0F2jo0vuZij2sjmWLhqt0n6ksYBJSBWq1IHQ
+yj1Wo4bAvsCAwEAAaOCAScwggEjMA4GA1UdDwEB/wQEAwIFoDAJBgNVHRMEAjAA
MB0GA1UdJQQWMBQGCCsGAQUFBwMBBggrBgEFBQcDAjAdBgNVHQ4EFgQUr0p8+6S7
FbvlTF2F8zavwgo9TKYwHwYDVR0jBBgwFoAUE8efXrlDVah4oYwrwvO+v007fP8w
PQYIKwYBBQUHAQEEMTAvMC0GCCsGAQUFBzAChiFodHRwOi8vbml0cGlja3N5Lm5v
L2NhL3Rscy1jYS5jZXIwMgYDVR0fBCswKTAnoCWgI4YhaHR0cDovL25pdHBpY2tz
eS5uby9jYS90bHMtY2EuY3JsMDQGA1UdEQQtMCuCDG5pdHBpY2tzeS5ub4IQd3d3
Lm5pdHBpY2tzeS5ub4IJbG9jYWxob3N0MA0GCSqGSIb3DQEBCwUAA4ICAQCOUw2F
TQX4LB/pB5D/SJj84DycfDgy4c3lcXZ2SMxVfAQWrhTYrWwU3zv/BlltIZtDCFTm
Yu4z9/EKf2VjNJ+W50vM0v5R+CN0YoAfw+Kv2SOIaP/IAm5b5Kd9R/TQXNAlOimF
imgDPVzEdHXaQZ6KWBTmCLgwCoWR0FbAifxW7xH1g1hMyQArNml6zX2qbqkMm8bM
903SxM7na1MJiKnicRGhnc52yKK8LmOt5OIQv2Ac5ix6l7d64vddIjFbX8WwF5YO
sH8B1vltSOKy0C/clad8t8fdi3Zzxzl6JX7iFMyRVi15Hx/WkG7n3wYRVyiknZ36
tyh0axtYO2CjJ6wVj0W/GbPCszxNReAVS6AjvJpLDzH1tfx6+JS772eTI/FXZU92
yBwL3g61hJ065Dr4jHhiMwSfYqnkPKuEt9yGLsVaMiCmtglGw9l7zylOCOTv1D6p
Ioj+1dxBDceXNLRmUb8SDo3GYSU3fQoQuGv4y6WfGQx9h8P5WmDJMZlP08WDc0tk
b4SPOTR2tCaf02qdJf8l4Jg7LBhW01WRKzzSouMKlY8S7QzbhiOhAtOBRewsDEE9
82LAr4LDjymLt+7kM831fKYx8aCESXfj8N9RR0bR3i2ABhij9O+foT27rZqZpfdD
+Hu/tRYruHrdspdZsJ3Nx8U+YC2zT8ir1fjJdg==
-----END CERTIFICATE-----
