Certificate:
    Data:
        Version: 3 (0x2)
        Serial Number:
            68:09:91:22:e0:79:aa:e2:e7:e6:a4:6c:43:5f:3a:c2:c8:c2:d0:aa
        Signature Algorithm: sha256WithRSAEncryption
        Issuer: C=NO, O=Nitpicksy, OU=Nitpicksy Certificate Authority, CN=Nitpicksy TLS CA
        Validity
            Not Before: Dec  6 21:37:47 2020 GMT
            Not After : Dec  6 21:37:47 2022 GMT
        Subject: C=NO, O=Nitpicksy Client AS, OU=Nitpicksy Certificate Authority, CN=Nitpicksy Client
        Subject Public Key Info:
            Public Key Algorithm: rsaEncryption
                RSA Public-Key: (4096 bit)
                Modulus:
                    00:b4:e0:9f:24:16:e3:03:ca:e2:94:1c:5e:19:23:
                    88:e7:4f:40:f1:56:46:a0:60:5b:b2:75:c7:1b:02:
                    ad:75:b2:aa:f1:16:e0:8a:fb:0b:5c:cd:18:8b:e2:
                    f2:d6:80:1e:20:93:57:4e:49:54:53:d8:a0:79:2c:
                    1c:21:0b:c4:d9:44:9d:60:9a:cd:a2:13:ca:56:9f:
                    cc:3c:2e:93:67:3f:92:7e:78:26:04:20:8a:bd:86:
                    fd:05:5e:90:74:7a:cc:68:f2:6c:ed:48:02:1d:d2:
                    89:90:1a:ae:16:59:0b:3f:77:f0:47:41:87:46:dd:
                    fc:d9:84:96:dc:76:78:84:27:ae:7c:9e:b0:d8:35:
                    2b:09:e9:ab:23:3b:69:87:6e:a2:02:b9:1f:6f:5f:
                    c5:34:24:4d:5e:64:61:34:ff:f8:c3:87:64:02:8d:
                    d4:ad:c3:7a:36:0e:25:6d:05:29:f6:ba:51:46:9a:
                    06:26:6d:30:e0:78:44:61:46:fb:1d:74:62:1c:c7:
                    c3:0c:b5:dd:15:3b:7b:25:75:00:30:b5:56:25:eb:
                    8d:d2:57:52:52:e1:14:49:2d:18:f9:6f:ad:0e:6a:
                    78:b0:09:0a:d1:ef:b8:49:0f:80:31:e5:0c:a7:42:
                    52:4d:92:09:c9:e2:5d:07:0c:bf:6b:85:93:6d:6d:
                    38:44:ed:0e:5e:f1:5c:8e:6a:70:32:ca:77:df:92:
                    f1:9a:69:98:1d:bb:a7:bf:5a:ca:ca:03:97:b4:ce:
                    aa:7d:28:88:07:62:0f:50:5a:f5:f4:30:1e:29:a4:
                    0b:ee:6b:7c:f1:9e:75:86:c6:89:7a:64:dc:9b:46:
                    a8:1c:c0:56:51:8b:60:d1:e7:63:88:7f:fc:58:55:
                    c2:02:49:62:99:9a:a7:eb:57:8b:c4:77:a1:a2:5f:
                    28:f7:62:34:f6:31:4c:c1:0a:32:04:15:20:67:75:
                    26:9a:51:55:fd:37:ff:c9:1d:be:3e:27:ba:ed:8f:
                    66:3e:c9:c4:0e:6c:d6:95:0f:35:3c:76:39:82:44:
                    82:3d:46:7d:83:c6:fd:18:94:76:2a:d7:e9:58:8a:
                    c4:9a:f5:6d:50:e8:a8:61:91:db:d7:64:55:88:78:
                    d6:9a:13:91:5c:12:54:fc:09:20:d6:1c:54:22:51:
                    12:3f:aa:11:fc:60:c6:61:11:8c:2e:56:08:74:a3:
                    0b:f8:07:71:af:78:44:f0:bc:84:45:2f:e9:ee:09:
                    6d:dd:0e:37:81:52:10:15:26:05:e2:36:8d:2a:89:
                    a8:75:1e:23:1e:a0:3f:17:12:42:e0:8a:04:cc:1a:
                    ca:cf:2a:d0:a2:04:b8:cf:3d:1a:64:60:d0:95:35:
                    31:60:8d
                Exponent: 65537 (0x10001)
        X509v3 extensions:
            X509v3 Key Usage: critical
                Digital Signature
            X509v3 Basic Constraints: 
                CA:FALSE
            X509v3 Extended Key Usage: 
                TLS Web Client Authentication
            X509v3 Subject Key Identifier: 
                95:70:09:94:12:2F:58:10:D7:00:DA:5C:13:F5:01:03:F6:61:C1:C0
            X509v3 Authority Key Identifier: 
                keyid:13:C7:9F:5E:B9:43:55:A8:78:A1:8C:2B:C2:F3:BE:BF:4D:3B:7C:FF

            Authority Information Access: 
                CA Issuers - URI:http://nitpicksy.no/ca/tls-ca.cer

            X509v3 CRL Distribution Points: 

                Full Name:
                  URI:http://nitpicksy.no/ca/tls-ca.crl

    Signature Algorithm: sha256WithRSAEncryption
         82:32:02:c6:a1:14:61:49:ed:cc:23:27:ae:d5:e5:77:21:6c:
         33:1f:e8:c6:1f:54:04:3b:7a:d6:b9:fc:9d:f5:4b:f7:1d:1c:
         6b:62:08:17:a0:fd:56:cc:96:ae:c3:55:a9:23:83:7d:62:e6:
         61:75:13:32:b0:58:08:63:27:58:b9:ae:f4:59:ea:79:d9:5e:
         66:9d:41:9f:69:a3:c0:42:39:71:4a:fc:8c:29:29:3b:74:09:
         51:b9:94:ba:dc:bc:5f:10:e5:f1:97:0c:1e:da:cc:3a:38:e1:
         2e:5f:b8:b8:c6:4c:03:44:e2:1b:9f:5b:51:a9:48:5b:75:86:
         8f:68:68:7b:99:f3:39:91:6f:00:06:bc:54:b8:88:15:ce:f4:
         a9:97:c8:24:8f:ea:2b:64:a0:9d:95:f9:5a:10:73:79:8f:f9:
         d0:a4:4c:03:4f:42:de:46:37:06:ff:d7:27:da:33:43:fe:99:
         e7:fb:10:b6:64:f2:f6:88:b6:2c:d0:cc:53:44:9b:3b:37:ec:
         b5:50:f4:f6:38:e9:25:e5:3f:11:89:e4:87:34:aa:e8:f9:b7:
         eb:2b:68:06:47:0b:03:4f:35:10:46:ad:44:c8:c7:11:0d:27:
         d4:5b:01:06:f7:fc:e1:1c:6e:fb:d2:09:fb:57:ef:77:51:cc:
         03:fc:0c:4e:09:fa:fa:21:c0:87:4e:e6:84:ea:9a:7e:ce:86:
         76:3c:56:f6:7e:83:f4:d1:31:03:d1:ea:0c:af:be:b4:02:74:
         66:24:3f:3a:7c:41:49:69:71:73:72:e4:f5:c2:de:4f:8b:45:
         e3:c9:d7:a6:a7:17:8d:3e:b9:c4:bd:7c:9a:f3:82:b3:0e:66:
         0c:e0:4c:95:4c:70:ee:4d:4d:af:ec:96:50:fd:3e:49:3e:50:
         24:97:a0:17:5c:a2:96:84:a1:fe:18:40:fa:00:8c:45:01:96:
         89:ca:2c:e7:81:10:9b:cb:2c:30:c4:d0:64:f7:93:67:89:ae:
         91:4e:b6:14:aa:90:fb:14:b7:84:f4:26:3d:26:27:ae:a1:87:
         fc:27:b0:d8:3d:c0:c1:0e:f7:96:85:55:5e:81:ca:5b:30:6a:
         50:11:0a:ba:d7:0d:bc:86:0e:03:ba:a1:59:4f:5a:0f:45:13:
         a3:be:27:d9:47:dd:27:98:4a:a1:2f:24:8d:81:75:aa:e8:42:
         81:51:7b:8b:2f:d5:fe:10:ca:9c:f5:15:07:48:76:bb:cc:7c:
         34:36:c9:c6:8c:34:c1:80:85:82:8c:a8:21:73:2b:f9:37:8f:
         7d:3a:5d:88:5c:f8:d8:a8:3b:a6:bf:a2:73:63:93:dd:67:59:
         86:b3:4c:85:97:5c:50:d2
-----BEGIN CERTIFICATE-----
MIIGSzCCBDOgAwIBAgIUaAmRIuB5quLn5qRsQ186wsjC0KowDQYJKoZIhvcNAQEL
BQAwZjELMAkGA1UEBhMCTk8xEjAQBgNVBAoMCU5pdHBpY2tzeTEoMCYGA1UECwwf
Tml0cGlja3N5IENlcnRpZmljYXRlIEF1dGhvcml0eTEZMBcGA1UEAwwQTml0cGlj
a3N5IFRMUyBDQTAeFw0yMDEyMDYyMTM3NDdaFw0yMjEyMDYyMTM3NDdaMHAxCzAJ
BgNVBAYTAk5PMRwwGgYDVQQKDBNOaXRwaWNrc3kgQ2xpZW50IEFTMSgwJgYDVQQL
DB9OaXRwaWNrc3kgQ2VydGlmaWNhdGUgQXV0aG9yaXR5MRkwFwYDVQQDDBBOaXRw
aWNrc3kgQ2xpZW50MIICIjANBgkqhkiG9w0BAQEFAAOCAg8AMIICCgKCAgEAtOCf
JBbjA8rilBxeGSOI509A8VZGoGBbsnXHGwKtdbKq8RbgivsLXM0Yi+Ly1oAeIJNX
TklUU9igeSwcIQvE2USdYJrNohPKVp/MPC6TZz+SfngmBCCKvYb9BV6QdHrMaPJs
7UgCHdKJkBquFlkLP3fwR0GHRt382YSW3HZ4hCeufJ6w2DUrCemrIztph26iArkf
b1/FNCRNXmRhNP/4w4dkAo3UrcN6Ng4lbQUp9rpRRpoGJm0w4HhEYUb7HXRiHMfD
DLXdFTt7JXUAMLVWJeuN0ldSUuEUSS0Y+W+tDmp4sAkK0e+4SQ+AMeUMp0JSTZIJ
yeJdBwy/a4WTbW04RO0OXvFcjmpwMsp335LxmmmYHbunv1rKygOXtM6qfSiIB2IP
UFr19DAeKaQL7mt88Z51hsaJemTcm0aoHMBWUYtg0edjiH/8WFXCAklimZqn61eL
xHehol8o92I09jFMwQoyBBUgZ3UmmlFV/Tf/yR2+Pie67Y9mPsnEDmzWlQ81PHY5
gkSCPUZ9g8b9GJR2KtfpWIrEmvVtUOioYZHb12RViHjWmhORXBJU/Akg1hxUIlES
P6oR/GDGYRGMLlYIdKML+Adxr3hE8LyERS/p7glt3Q43gVIQFSYF4jaNKomodR4j
HqA/FxJC4IoEzBrKzyrQogS4zz0aZGDQlTUxYI0CAwEAAaOB5jCB4zAOBgNVHQ8B
Af8EBAMCB4AwCQYDVR0TBAIwADATBgNVHSUEDDAKBggrBgEFBQcDAjAdBgNVHQ4E
FgQUlXAJlBIvWBDXANpcE/UBA/ZhwcAwHwYDVR0jBBgwFoAUE8efXrlDVah4oYwr
wvO+v007fP8wPQYIKwYBBQUHAQEEMTAvMC0GCCsGAQUFBzAChiFodHRwOi8vbml0
cGlja3N5Lm5vL2NhL3Rscy1jYS5jZXIwMgYDVR0fBCswKTAnoCWgI4YhaHR0cDov
L25pdHBpY2tzeS5uby9jYS90bHMtY2EuY3JsMA0GCSqGSIb3DQEBCwUAA4ICAQCC
MgLGoRRhSe3MIyeu1eV3IWwzH+jGH1QEO3rWufyd9Uv3HRxrYggXoP1WzJauw1Wp
I4N9YuZhdRMysFgIYydYua70Wep52V5mnUGfaaPAQjlxSvyMKSk7dAlRuZS63Lxf
EOXxlwwe2sw6OOEuX7i4xkwDROIbn1tRqUhbdYaPaGh7mfM5kW8ABrxUuIgVzvSp
l8gkj+orZKCdlflaEHN5j/nQpEwDT0LeRjcG/9cn2jND/pnn+xC2ZPL2iLYs0MxT
RJs7N+y1UPT2OOkl5T8RieSHNKro+bfrK2gGRwsDTzUQRq1EyMcRDSfUWwEG9/zh
HG770gn7V+93UcwD/AxOCfr6IcCHTuaE6pp+zoZ2PFb2foP00TED0eoMr760AnRm
JD86fEFJaXFzcuT1wt5Pi0XjydempxeNPrnEvXya84KzDmYM4EyVTHDuTU2v7JZQ
/T5JPlAkl6AXXKKWhKH+GED6AIxFAZaJyizngRCbyywwxNBk95Nnia6RTrYUqpD7
FLeE9CY9JieuoYf8J7DYPcDBDveWhVVegcpbMGpQEQq61w28hg4DuqFZT1oPRROj
vifZR90nmEqhLySNgXWq6EKBUXuLL9X+EMqc9RUHSHa7zHw0NsnGjDTBgIWCjKgh
cyv5N499Ol2IXPjYqDumv6JzY5PdZ1mGs0yFl1xQ0g==
-----END CERTIFICATE-----
