Certificate:
    Data:
        Version: 3 (0x2)
        Serial Number:
            68:53:95:ac:07:59:26:57:8d:77:48:74:c8:33:a4:a4:05:63:0f:aa
        Signature Algorithm: sha256WithRSAEncryption
        Issuer: C=NO, O=Nitpicksy, OU=Nitpicksy Certificate Authority, CN=Nitpicksy TLS CA
        Validity
            Not Before: Dec  6 21:51:58 2020 GMT
            Not After : Dec  6 21:51:58 2022 GMT
        Subject: C=NO, O=Nitpicksy Client AS, OU=Nitpicksy Certificate Authority, CN=Nitpicksy Client
        Subject Public Key Info:
            Public Key Algorithm: rsaEncryption
                RSA Public-Key: (4096 bit)
                Modulus:
                    00:bc:a1:a2:f8:dd:ba:c2:5b:0d:7f:11:60:c9:d9:
                    92:d8:2d:65:26:e0:bd:be:8a:d8:31:9c:67:45:db:
                    f1:99:24:92:4b:e2:71:81:78:f5:cf:64:63:ad:ce:
                    30:45:22:93:86:8d:2d:b6:05:b3:20:7f:a7:91:db:
                    3c:91:d0:0e:c8:74:6d:cb:be:64:3b:b7:41:fe:7c:
                    85:bb:65:ac:70:ff:2b:07:40:10:82:03:0f:96:6b:
                    68:7a:5d:35:ef:1f:31:a0:3e:54:fe:69:00:4d:74:
                    8b:35:19:91:91:05:77:17:e8:66:05:05:27:60:18:
                    47:c0:30:8e:bf:91:ad:57:06:68:01:63:b3:f4:59:
                    f6:a3:14:3f:1b:41:33:38:bf:cb:05:32:aa:9b:d3:
                    27:13:6b:5d:66:f3:1d:40:66:3e:4e:70:c8:c8:e5:
                    26:8a:28:ef:c9:c9:39:41:12:51:f5:f8:bc:b0:e5:
                    0c:5a:95:64:38:64:16:64:96:a2:34:23:d1:05:8b:
                    07:10:11:00:30:2f:9b:93:cf:08:60:1c:5b:80:06:
                    3e:ed:68:8c:bd:a9:cb:d9:03:32:91:13:5d:55:58:
                    b3:c0:d1:13:83:fe:fa:60:4f:d7:e0:e7:6d:0b:6d:
                    f8:8f:46:48:81:b3:a5:94:50:01:72:76:e0:d7:61:
                    f9:a5:77:76:f6:73:9c:77:c4:fa:75:94:bf:61:24:
                    6d:e5:16:9e:41:e3:bf:f8:e7:93:3e:f8:57:ab:37:
                    81:c1:4c:e0:ed:a6:0c:49:d5:dd:b7:18:2b:e2:e1:
                    a4:43:8a:69:62:0a:0a:ea:ab:d0:c0:15:90:51:ac:
                    82:2a:f1:2a:e5:01:73:bf:db:88:34:03:e0:91:40:
                    6c:17:d1:b9:b3:d8:a4:ec:2d:ca:45:83:14:d8:52:
                    c1:28:b2:77:ef:88:1c:b1:e3:c1:df:6a:e0:b1:9c:
                    62:a4:ef:e8:30:89:f7:b5:5b:9b:4d:b0:e8:06:c8:
                    41:c4:70:5c:f9:62:78:a9:77:42:62:b5:3a:9a:86:
                    79:6e:60:69:e8:b7:18:18:94:20:ce:d0:79:08:e5:
                    9c:63:a4:c3:ec:bc:67:f9:85:ae:fb:67:95:70:8d:
                    f7:e4:5f:c7:6b:33:9a:7f:0e:6f:cd:ad:8a:49:49:
                    b7:7d:a5:a1:9e:f0:c0:58:31:d5:3c:07:d9:4c:fe:
                    33:01:43:52:55:04:75:b5:71:62:11:38:5d:60:40:
                    ad:2f:23:f7:44:91:fa:3e:fc:fa:9a:54:7e:16:ab:
                    5f:b6:56:1c:73:26:31:fd:9f:38:96:6c:1f:04:12:
                    c2:fd:1d:a5:27:4c:98:c9:dd:5c:e6:2b:11:ae:75:
                    1a:8b:75
                Exponent: 65537 (0x10001)
        X509v3 extensions:
            X509v3 Key Usage: critical
                Digital Signature
            X509v3 Basic Constraints: 
                CA:FALSE
            X509v3 Extended Key Usage: 
                TLS Web Client Authentication
            X509v3 Subject Key Identifier: 
                60:AF:9D:83:95:DC:8C:4C:E3:20:8B:F0:CA:9D:C4:20:69:70:54:D9
            X509v3 Authority Key Identifier: 
                keyid:20:BF:F7:C1:E5:9F:2D:61:99:7C:FA:1C:22:0D:11:35:06:9D:C9:5C

            Authority Information Access: 
                CA Issuers - URI:http://nitpicksy.no/ca/tls-ca.cer

            X509v3 CRL Distribution Points: 

                Full Name:
                  URI:http://nitpicksy.no/ca/tls-ca.crl

    Signature Algorithm: sha256WithRSAEncryption
         7d:a6:8f:a8:21:e6:66:24:ae:2f:d3:13:05:20:eb:23:a6:10:
         0b:b0:2b:67:64:dd:0e:b4:35:53:5e:28:5a:df:30:e6:82:0f:
         03:19:a7:c9:8e:a2:7e:59:9c:b6:8a:15:94:52:c6:a2:9f:7a:
         e7:24:a1:2a:fa:99:15:c1:03:3d:89:56:91:bf:00:15:87:7e:
         82:b2:01:46:bf:83:5b:df:bf:d0:c3:cf:41:3e:ee:49:e3:03:
         fb:1f:30:2a:04:32:74:ea:50:d2:82:29:96:10:c1:70:5c:2c:
         5d:5f:e8:cb:a0:74:aa:39:01:8b:b3:a8:43:f6:50:7c:70:5e:
         0b:b0:7b:58:af:63:f4:e8:7f:3a:9a:3c:3a:27:b0:aa:f5:8f:
         db:ed:e1:29:a1:e8:71:d0:fa:28:c3:18:b2:7e:58:99:0f:d3:
         c8:9a:84:bc:d8:7b:c5:9f:b5:80:49:30:e9:2a:79:cf:e1:66:
         9a:d7:a7:ed:93:4f:91:3d:7f:21:0a:65:31:7c:eb:b0:62:a9:
         18:b2:0d:aa:4f:65:2a:fd:ad:12:36:31:bf:1f:cc:1e:ff:79:
         93:2f:77:ce:0e:c0:59:53:47:73:93:84:b2:c0:40:39:fa:74:
         0e:9c:19:57:d0:23:60:4a:1a:54:fb:ca:f3:af:83:39:4d:f9:
         f4:73:44:bd:1a:85:d8:d5:ae:66:95:bb:7d:9c:55:ff:26:db:
         39:f3:2e:01:48:36:7a:08:a0:a6:05:6b:a5:f6:31:b5:01:0b:
         4b:e3:82:dd:21:57:8f:4f:5a:c1:76:a4:e8:f0:99:2d:ca:78:
         63:8d:ec:74:71:20:31:be:a0:ab:93:9a:06:63:b1:ea:fc:a1:
         8b:5c:b2:97:74:98:c5:14:c2:c3:7a:6a:86:92:e6:49:19:c6:
         f1:14:24:3c:68:22:95:b4:ac:ae:3f:39:89:b4:03:86:a1:70:
         38:89:33:9f:02:b0:e9:12:fd:35:47:33:f7:95:f0:1c:e0:26:
         9b:7e:93:0e:d3:0c:7a:71:3a:4d:b9:fd:37:60:88:82:37:10:
         9a:f6:ec:18:fc:0d:eb:c2:0f:0b:0d:a5:95:8a:cb:06:f4:cb:
         23:c7:6c:57:a0:17:a8:8a:7d:87:57:3a:26:cd:0b:0f:55:4b:
         63:19:93:46:e4:dc:66:9e:20:3b:f1:7b:e1:ed:64:91:33:3f:
         19:c9:71:46:cc:d8:57:57:bf:40:a6:fe:bf:c1:03:2a:6d:43:
         0b:49:43:18:07:cc:4b:4d:cc:c1:f3:69:10:08:f8:94:52:0c:
         bb:3f:bd:c3:23:43:7e:c7:be:22:a8:c2:75:fe:9a:db:a8:10:
         ad:30:c8:80:02:45:03:56
-----BEGIN CERTIFICATE-----
MIIGSzCCBDOgAwIBAgIUaFOVrAdZJleNd0h0yDOkpAVjD6owDQYJKoZIhvcNAQEL
BQAwZjELMAkGA1UEBhMCTk8xEjAQBgNVBAoMCU5pdHBpY2tzeTEoMCYGA1UECwwf
Tml0cGlja3N5IENlcnRpZmljYXRlIEF1dGhvcml0eTEZMBcGA1UEAwwQTml0cGlj
a3N5IFRMUyBDQTAeFw0yMDEyMDYyMTUxNThaFw0yMjEyMDYyMTUxNThaMHAxCzAJ
BgNVBAYTAk5PMRwwGgYDVQQKDBNOaXRwaWNrc3kgQ2xpZW50IEFTMSgwJgYDVQQL
DB9OaXRwaWNrc3kgQ2VydGlmaWNhdGUgQXV0aG9yaXR5MRkwFwYDVQQDDBBOaXRw
aWNrc3kgQ2xpZW50MIICIjANBgkqhkiG9w0BAQEFAAOCAg8AMIICCgKCAgEAvKGi
+N26wlsNfxFgydmS2C1lJuC9vorYMZxnRdvxmSSSS+JxgXj1z2Rjrc4wRSKTho0t
tgWzIH+nkds8kdAOyHRty75kO7dB/nyFu2WscP8rB0AQggMPlmtoel017x8xoD5U
/mkATXSLNRmRkQV3F+hmBQUnYBhHwDCOv5GtVwZoAWOz9Fn2oxQ/G0EzOL/LBTKq
m9MnE2tdZvMdQGY+TnDIyOUmiijvyck5QRJR9fi8sOUMWpVkOGQWZJaiNCPRBYsH
EBEAMC+bk88IYBxbgAY+7WiMvanL2QMykRNdVVizwNETg/76YE/X4OdtC234j0ZI
gbOllFABcnbg12H5pXd29nOcd8T6dZS/YSRt5RaeQeO/+OeTPvhXqzeBwUzg7aYM
SdXdtxgr4uGkQ4ppYgoK6qvQwBWQUayCKvEq5QFzv9uINAPgkUBsF9G5s9ik7C3K
RYMU2FLBKLJ374gcsePB32rgsZxipO/oMIn3tVubTbDoBshBxHBc+WJ4qXdCYrU6
moZ5bmBp6LcYGJQgztB5COWcY6TD7Lxn+YWu+2eVcI335F/HazOafw5vza2KSUm3
faWhnvDAWDHVPAfZTP4zAUNSVQR1tXFiEThdYECtLyP3RJH6Pvz6mlR+FqtftlYc
cyYx/Z84lmwfBBLC/R2lJ0yYyd1c5isRrnUai3UCAwEAAaOB5jCB4zAOBgNVHQ8B
Af8EBAMCB4AwCQYDVR0TBAIwADATBgNVHSUEDDAKBggrBgEFBQcDAjAdBgNVHQ4E
FgQUYK+dg5XcjEzjIIvwyp3EIGlwVNkwHwYDVR0jBBgwFoAUIL/3weWfLWGZfPoc
Ig0RNQadyVwwPQYIKwYBBQUHAQEEMTAvMC0GCCsGAQUFBzAChiFodHRwOi8vbml0
cGlja3N5Lm5vL2NhL3Rscy1jYS5jZXIwMgYDVR0fBCswKTAnoCWgI4YhaHR0cDov
L25pdHBpY2tzeS5uby9jYS90bHMtY2EuY3JsMA0GCSqGSIb3DQEBCwUAA4ICAQB9
po+oIeZmJK4v0xMFIOsjphALsCtnZN0OtDVTXiha3zDmgg8DGafJjqJ+WZy2ihWU
Usain3rnJKEq+pkVwQM9iVaRvwAVh36CsgFGv4Nb37/Qw89BPu5J4wP7HzAqBDJ0
6lDSgimWEMFwXCxdX+jLoHSqOQGLs6hD9lB8cF4LsHtYr2P06H86mjw6J7Cq9Y/b
7eEpoehx0PoowxiyfliZD9PImoS82HvFn7WASTDpKnnP4Waa16ftk0+RPX8hCmUx
fOuwYqkYsg2qT2Uq/a0SNjG/H8we/3mTL3fODsBZU0dzk4SywEA5+nQOnBlX0CNg
ShpU+8rzr4M5Tfn0c0S9GoXY1a5mlbt9nFX/Jts58y4BSDZ6CKCmBWul9jG1AQtL
44LdIVePT1rBdqTo8Jktynhjjex0cSAxvqCrk5oGY7Hq/KGLXLKXdJjFFMLDemqG
kuZJGcbxFCQ8aCKVtKyuPzmJtAOGoXA4iTOfArDpEv01RzP3lfAc4CabfpMO0wx6
cTpNuf03YIiCNxCa9uwY/A3rwg8LDaWVissG9Msjx2xXoBeoin2HVzomzQsPVUtj
GZNG5NxmniA78Xvh7WSRMz8ZyXFGzNhXV79Apv6/wQMqbUMLSUMYB8xLTczB82kQ
CPiUUgy7P73DI0N+x74iqMJ1/prbqBCtMMiAAkUDVg==
-----END CERTIFICATE-----
