Certificate:
    Data:
        Version: 3 (0x2)
        Serial Number:
            68:56:31:cf:b7:f6:1d:9c:e1:3c:bd:6c:b2:54:5a:a1:37:e0:18:12
        Signature Algorithm: sha256WithRSAEncryption
        Issuer: C=NO, O=Nitpicksy, OU=Nitpicksy Certificate Authority, CN=Nitpicksy TLS CA
        Validity
            Not Before: Dec 11 20:36:48 2020 GMT
            Not After : Dec 11 20:36:48 2022 GMT
        Subject: C=NO, O=Nitpicksy Client AS, OU=Nitpicksy Certificate Authority, CN=Nitpicksy Client
        Subject Public Key Info:
            Public Key Algorithm: rsaEncryption
                RSA Public-Key: (4096 bit)
                Modulus:
                    00:ad:9a:9e:1e:a4:c6:a6:67:18:9c:25:2f:47:08:
                    e1:a6:f4:f0:5f:9f:6a:91:70:ad:22:87:de:07:58:
                    d0:7a:13:87:12:9d:20:cf:b7:3c:52:56:49:31:e3:
                    80:c7:5d:3a:2a:58:42:30:b2:a1:c0:54:f0:c7:8b:
                    89:2c:6b:44:af:a8:32:c1:75:ef:be:f7:1c:ee:15:
                    39:75:47:22:e6:4a:6b:d0:14:63:43:f7:90:fb:a1:
                    d2:37:b6:d7:c7:b3:d5:df:4e:35:71:1d:4d:d4:37:
                    bf:19:0d:be:7a:d6:57:90:71:c0:98:4d:28:1e:2d:
                    59:b1:ba:96:45:6a:8d:57:59:5b:17:da:56:d2:80:
                    65:fc:18:4f:15:b5:65:71:43:0d:27:48:1e:d5:77:
                    c1:94:17:39:f6:4f:d9:e6:03:05:ba:1e:40:b9:f2:
                    13:95:69:42:92:bc:52:1e:03:d4:01:b2:5d:56:f6:
                    bd:30:85:fd:04:ae:f7:c2:05:7a:58:9e:d9:cb:b0:
                    e6:05:29:b6:63:f7:21:4e:e1:de:44:5e:d9:8c:07:
                    49:64:91:7f:e2:14:f3:4f:d1:b1:ce:49:9b:83:a7:
                    d2:8e:4a:96:f0:47:16:66:a6:14:6f:38:48:08:be:
                    89:5b:ba:67:7e:d6:bf:7f:d0:41:04:dc:af:b5:b9:
                    ad:b2:fc:d7:54:33:1f:34:01:50:a4:0e:53:54:3d:
                    7a:59:49:41:3f:c0:5a:df:15:b5:f5:18:8e:6d:6c:
                    fa:36:9b:be:7f:93:76:9f:7c:47:e7:67:1f:60:89:
                    2f:db:a4:3b:a9:67:9b:f0:11:94:3a:42:f2:b9:35:
                    91:71:88:2d:4a:72:04:ac:5c:cc:23:84:57:06:37:
                    7c:fd:b4:a3:c4:cc:1a:42:d8:f7:d1:5f:cd:f0:68:
                    39:8f:ea:f9:6b:ab:17:0a:74:c9:f8:a6:27:68:1f:
                    e3:98:74:fd:87:f2:ae:18:3f:2f:95:31:de:b1:5d:
                    df:30:fe:0e:6d:93:63:2e:c2:d2:83:87:52:e1:47:
                    0d:f3:81:14:4d:ff:94:17:97:0f:0e:66:c8:2b:82:
                    f7:04:fa:17:63:64:1d:85:da:c3:a6:be:53:1e:54:
                    fa:61:e9:01:e2:f8:cb:19:81:c0:64:64:e6:92:96:
                    51:fa:17:97:f1:2a:f6:f9:ab:1b:f1:f7:0d:bf:55:
                    68:1a:4d:8c:9f:34:c3:dc:f3:f0:ca:41:01:8d:f8:
                    b9:b1:5c:37:0b:57:24:8d:6b:7b:8e:92:13:77:f2:
                    1e:c2:3f:e0:ba:e8:cb:42:33:43:ed:2d:ac:42:cd:
                    42:83:67:37:c5:29:1f:c8:e7:fb:9b:dd:f1:9f:c8:
                    21:23:ef
                Exponent: 65537 (0x10001)
        X509v3 extensions:
            X509v3 Key Usage: critical
                Digital Signature
            X509v3 Basic Constraints: 
                CA:FALSE
            X509v3 Extended Key Usage: 
                TLS Web Client Authentication
            X509v3 Subject Key Identifier: 
                3B:D8:B9:BD:9B:25:F6:C5:26:21:E2:61:76:EC:E1:1C:F3:2F:1A:91
            X509v3 Authority Key Identifier: 
                keyid:CC:B0:B8:BC:D8:35:9B:94:9B:C9:52:8E:84:33:E7:D3:46:B9:14:ED

            Authority Information Access: 
                CA Issuers - URI:http://nitpicksy.no/ca/tls-ca.cer

            X509v3 CRL Distribution Points: 

                Full Name:
                  URI:http://nitpicksy.no/ca/tls-ca.crl

    Signature Algorithm: sha256WithRSAEncryption
         ba:78:4c:70:5e:01:40:a4:97:3e:d9:4b:9a:90:53:99:0b:28:
         30:83:15:0d:33:11:89:21:0d:40:3a:49:ed:61:fc:44:f8:51:
         ef:4c:31:97:4d:6e:8e:3e:41:b5:ca:06:23:5e:4b:ac:79:d1:
         a1:12:fe:b2:aa:d5:8f:cf:27:95:c0:e2:00:21:06:21:d6:b6:
         3a:b6:ba:1a:6e:65:71:e9:af:9d:0f:d9:d9:49:71:84:2b:06:
         64:5f:bd:d6:3f:0b:10:b0:b9:a5:30:f3:cd:be:6b:de:c1:50:
         59:c8:06:fa:3b:66:05:92:7d:fb:d2:6f:08:69:ed:92:ae:76:
         87:8a:fb:a7:09:b4:4a:15:a0:8f:30:2a:3a:8b:6f:38:18:96:
         ed:e2:02:43:49:a7:50:35:5b:62:78:86:bc:6a:36:7a:cc:27:
         9e:65:ed:16:e7:12:81:a7:c3:48:0b:cc:e0:af:68:00:c6:a8:
         9e:e9:e7:7b:77:99:85:75:45:a8:32:f1:c5:8b:e2:78:3a:d6:
         29:e0:74:8e:45:ae:58:94:8a:cd:f3:fb:21:ad:23:1e:95:fd:
         8f:35:a7:46:55:16:b3:a9:72:cb:19:36:5a:cf:ce:4a:e5:76:
         ea:53:b9:1b:19:5a:30:99:c2:1d:a3:df:f9:aa:ae:28:08:e0:
         76:61:6f:39:fb:a7:57:45:e5:62:07:e9:79:5f:40:11:f3:63:
         8f:1c:fa:79:8b:af:e9:cf:ca:be:08:3c:0a:8f:03:be:13:d8:
         77:f4:45:a0:de:42:7d:fc:b4:de:df:00:0e:24:d1:cc:e4:ab:
         ee:95:cd:3d:10:4f:34:5f:65:85:9a:b0:f1:7f:d7:24:05:04:
         cc:81:84:3d:6f:ca:d0:5b:96:99:27:5b:21:8a:36:f1:7c:1f:
         3f:91:1d:d6:7f:55:3b:dc:10:8e:88:99:3b:6f:c7:f0:e0:cc:
         4b:7b:04:61:89:b2:f8:cc:4d:9c:38:e4:52:b1:e7:a5:c8:61:
         e2:76:52:a4:eb:e4:72:09:62:48:95:e2:a0:00:4d:a6:8c:87:
         84:0b:48:96:14:83:8a:c9:0e:a3:00:1d:49:58:45:1b:3b:05:
         53:28:44:86:ca:04:7b:04:f2:8e:02:69:01:f9:31:c9:59:42:
         4b:e6:66:18:ee:dc:34:90:ec:83:64:9a:7f:42:45:19:3e:ed:
         9f:46:05:9e:d1:7b:de:9e:8a:e2:7a:7b:e9:ce:f9:b8:6e:fd:
         d9:13:31:8f:8a:1c:34:e6:ba:ab:b5:1d:17:16:3f:2f:dd:42:
         6a:6a:76:a2:44:5e:14:79:6f:b6:6b:c3:a7:fc:82:ae:1f:8e:
         23:76:53:af:71:32:f3:3e
-----BEGIN CERTIFICATE-----
MIIGSzCCBDOgAwIBAgIUaFYxz7f2HZzhPL1sslRaoTfgGBIwDQYJKoZIhvcNAQEL
BQAwZjELMAkGA1UEBhMCTk8xEjAQBgNVBAoMCU5pdHBpY2tzeTEoMCYGA1UECwwf
Tml0cGlja3N5IENlcnRpZmljYXRlIEF1dGhvcml0eTEZMBcGA1UEAwwQTml0cGlj
a3N5IFRMUyBDQTAeFw0yMDEyMTEyMDM2NDhaFw0yMjEyMTEyMDM2NDhaMHAxCzAJ
BgNVBAYTAk5PMRwwGgYDVQQKDBNOaXRwaWNrc3kgQ2xpZW50IEFTMSgwJgYDVQQL
DB9OaXRwaWNrc3kgQ2VydGlmaWNhdGUgQXV0aG9yaXR5MRkwFwYDVQQDDBBOaXRw
aWNrc3kgQ2xpZW50MIICIjANBgkqhkiG9w0BAQEFAAOCAg8AMIICCgKCAgEArZqe
HqTGpmcYnCUvRwjhpvTwX59qkXCtIofeB1jQehOHEp0gz7c8UlZJMeOAx106KlhC
MLKhwFTwx4uJLGtEr6gywXXvvvcc7hU5dUci5kpr0BRjQ/eQ+6HSN7bXx7PV3041
cR1N1De/GQ2+etZXkHHAmE0oHi1ZsbqWRWqNV1lbF9pW0oBl/BhPFbVlcUMNJ0ge
1XfBlBc59k/Z5gMFuh5AufITlWlCkrxSHgPUAbJdVva9MIX9BK73wgV6WJ7Zy7Dm
BSm2Y/chTuHeRF7ZjAdJZJF/4hTzT9Gxzkmbg6fSjkqW8EcWZqYUbzhICL6JW7pn
fta/f9BBBNyvtbmtsvzXVDMfNAFQpA5TVD16WUlBP8Ba3xW19RiObWz6Npu+f5N2
n3xH52cfYIkv26Q7qWeb8BGUOkLyuTWRcYgtSnIErFzMI4RXBjd8/bSjxMwaQtj3
0V/N8Gg5j+r5a6sXCnTJ+KYnaB/jmHT9h/KuGD8vlTHesV3fMP4ObZNjLsLSg4dS
4UcN84EUTf+UF5cPDmbIK4L3BPoXY2QdhdrDpr5THlT6YekB4vjLGYHAZGTmkpZR
+heX8Sr2+asb8fcNv1VoGk2MnzTD3PPwykEBjfi5sVw3C1ckjWt7jpITd/Iewj/g
uujLQjND7S2sQs1Cg2c3xSkfyOf7m93xn8ghI+8CAwEAAaOB5jCB4zAOBgNVHQ8B
Af8EBAMCB4AwCQYDVR0TBAIwADATBgNVHSUEDDAKBggrBgEFBQcDAjAdBgNVHQ4E
FgQUO9i5vZsl9sUmIeJhduzhHPMvGpEwHwYDVR0jBBgwFoAUzLC4vNg1m5SbyVKO
hDPn00a5FO0wPQYIKwYBBQUHAQEEMTAvMC0GCCsGAQUFBzAChiFodHRwOi8vbml0
cGlja3N5Lm5vL2NhL3Rscy1jYS5jZXIwMgYDVR0fBCswKTAnoCWgI4YhaHR0cDov
L25pdHBpY2tzeS5uby9jYS90bHMtY2EuY3JsMA0GCSqGSIb3DQEBCwUAA4ICAQC6
eExwXgFApJc+2UuakFOZCygwgxUNMxGJIQ1AOkntYfxE+FHvTDGXTW6OPkG1ygYj
XkusedGhEv6yqtWPzyeVwOIAIQYh1rY6troabmVx6a+dD9nZSXGEKwZkX73WPwsQ
sLmlMPPNvmvewVBZyAb6O2YFkn370m8Iae2SrnaHivunCbRKFaCPMCo6i284GJbt
4gJDSadQNVtieIa8ajZ6zCeeZe0W5xKBp8NIC8zgr2gAxqie6ed7d5mFdUWoMvHF
i+J4OtYp4HSORa5YlIrN8/shrSMelf2PNadGVRazqXLLGTZaz85K5XbqU7kbGVow
mcIdo9/5qq4oCOB2YW85+6dXReViB+l5X0AR82OPHPp5i6/pz8q+CDwKjwO+E9h3
9EWg3kJ9/LTe3wAOJNHM5Kvulc09EE80X2WFmrDxf9ckBQTMgYQ9b8rQW5aZJ1sh
ijbxfB8/kR3Wf1U73BCOiJk7b8fw4MxLewRhibL4zE2cOORSseelyGHidlKk6+Ry
CWJIleKgAE2mjIeEC0iWFIOKyQ6jAB1JWEUbOwVTKESGygR7BPKOAmkB+THJWUJL
5mYY7tw0kOyDZJp/QkUZPu2fRgWe0Xvenorienvpzvm4bv3ZEzGPihw05rqrtR0X
Fj8v3UJqanaiRF4UeW+2a8On/IKuH44jdlOvcTLzPg==
-----END CERTIFICATE-----
