Certificate:
    Data:
        Version: 3 (0x2)
        Serial Number:
            69:a7:2d:05:b4:ac:7b:b9:51:1f:53:41:d9:5f:ec:22:58:e6:7a:c5
        Signature Algorithm: sha256WithRSAEncryption
        Issuer: C=NO, O=Nitpicksy, OU=Nitpicksy Certificate Authority, CN=Nitpicksy TLS CA
        Validity
            Not Before: Dec 11 20:36:53 2020 GMT
            Not After : Dec 11 20:36:53 2022 GMT
        Subject: C=NO, O=Nitpicksy, OU=Nitpicksy Certificate Authority, CN=PCC
        Subject Public Key Info:
            Public Key Algorithm: rsaEncryption
                RSA Public-Key: (4096 bit)
                Modulus:
                    00:df:e0:5c:ee:42:04:16:93:17:b8:6f:3b:0d:21:
                    42:09:74:f5:cd:58:84:e8:be:bc:71:16:0b:66:ea:
                    06:e2:8e:61:22:03:75:10:9b:bd:82:ef:b8:70:b9:
                    bb:f6:b0:3d:94:72:46:67:2a:92:43:9e:44:12:b2:
                    2b:81:5d:93:3d:d2:a8:8a:d4:ba:e8:88:0d:e2:74:
                    b2:a1:8a:e3:51:b6:bc:ad:4a:76:b7:00:d0:a0:59:
                    ef:9d:71:f0:bb:c3:3f:80:24:01:0a:bc:9a:6a:ce:
                    2d:c0:ac:e1:88:9c:78:53:10:7f:1b:c3:a3:23:37:
                    81:85:e4:45:67:18:65:e7:d5:82:bf:0d:8e:b2:12:
                    53:f0:a8:e3:d0:44:a3:83:29:f5:36:a2:cb:df:df:
                    40:c1:ef:30:bb:ca:14:f1:af:db:81:72:4f:4e:72:
                    ef:cf:6b:a0:1f:6b:f5:a2:0b:b2:b7:73:d8:d8:67:
                    a7:4a:55:05:ac:73:66:eb:e8:4b:ee:bb:c3:a8:99:
                    a7:47:7a:a4:81:6c:d6:0f:81:73:06:4d:ea:a2:d4:
                    18:4d:56:dd:74:25:1f:62:d6:69:4b:17:2d:fd:bd:
                    4e:9f:7a:dc:c5:07:de:c2:fb:00:2f:2b:72:6e:65:
                    06:4a:b2:57:58:75:a1:f5:fa:40:c3:55:9d:fe:32:
                    df:23:2b:63:fc:ca:fa:b4:ff:d7:42:52:54:7e:56:
                    ee:2d:cc:bf:f1:6a:25:dc:ba:5a:dd:bc:3d:01:b2:
                    93:56:1d:6a:85:5f:39:75:53:dd:6c:ce:1c:07:82:
                    3c:14:eb:f5:b8:09:ee:9f:38:a5:1c:05:f8:d2:d3:
                    28:5e:37:11:a1:bd:cd:22:88:32:4d:85:e2:fd:92:
                    8c:e5:23:d4:05:04:87:8b:c0:ce:39:75:f4:d3:b3:
                    ac:34:e8:11:06:94:16:17:6f:a7:96:f2:5f:c5:d2:
                    e7:99:62:e0:1f:c1:25:6e:99:15:a3:d1:62:2e:83:
                    2b:3a:79:63:c2:b2:88:27:83:b2:ed:f8:4b:79:4c:
                    1a:a6:9e:d4:74:08:36:7b:56:08:de:ab:bc:eb:77:
                    1c:91:e7:a2:16:57:d7:50:92:6d:94:85:d8:0a:d4:
                    9c:8f:41:f7:97:8c:d8:f0:17:9d:51:c4:ff:34:da:
                    17:e9:51:23:65:3a:9b:fc:cd:19:36:a8:07:7f:4f:
                    34:c7:42:ea:9c:37:c9:4e:1a:bc:1d:28:dc:57:d1:
                    81:13:1b:c2:1a:98:88:47:90:eb:97:ff:66:49:f2:
                    df:df:4d:6c:bd:b0:1f:2f:14:f8:b6:31:8f:5d:7d:
                    72:9e:c9:5e:7a:dc:d7:6a:26:23:fd:af:91:d1:de:
                    6f:7f:35
                Exponent: 65537 (0x10001)
        X509v3 extensions:
            X509v3 Key Usage: critical
                Digital Signature, Key Encipherment
            X509v3 Basic Constraints: 
                CA:FALSE
            X509v3 Extended Key Usage: 
                TLS Web Server Authentication, TLS Web Client Authentication
            X509v3 Subject Key Identifier: 
                8E:80:36:A5:3F:A6:16:C3:3A:B5:52:CD:17:AA:0C:D4:23:D0:6D:B3
            X509v3 Authority Key Identifier: 
                keyid:CC:B0:B8:BC:D8:35:9B:94:9B:C9:52:8E:84:33:E7:D3:46:B9:14:ED

            Authority Information Access: 
                CA Issuers - URI:http://nitpicksy.no/ca/tls-ca.cer

            X509v3 CRL Distribution Points: 

                Full Name:
                  URI:http://nitpicksy.no/ca/tls-ca.crl

            X509v3 Subject Alternative Name: 
                DNS:nitpicksy.no, DNS:www.nitpicksy.no, DNS:localhost, IP Address:127.0.0.1
    Signature Algorithm: sha256WithRSAEncryption
         96:44:7e:5c:15:57:c7:db:00:de:ce:b4:36:4b:15:b2:3d:8d:
         96:46:3c:0b:ca:0e:68:df:e9:ca:53:16:47:f7:b2:0e:d8:7e:
         7b:9b:25:d5:e8:9e:b2:66:6f:2a:c1:0a:9a:84:ea:4f:26:5a:
         42:8e:db:16:62:d2:73:eb:5c:15:dd:d2:3e:4e:c3:7a:a8:69:
         dc:4b:73:96:03:80:15:34:90:f7:4c:66:f9:7e:77:9b:83:01:
         bb:f4:10:63:ea:8b:a8:3d:63:4d:60:4d:dd:7b:16:f8:7c:b0:
         dc:7a:c3:4a:84:c0:63:0f:71:f7:5a:f3:bb:dd:37:7f:f3:f4:
         c6:42:cd:8e:72:bc:71:98:d4:50:72:e2:fa:b6:8d:bf:96:e0:
         51:6d:49:3a:29:03:93:2d:59:31:48:1e:a4:c6:54:6e:58:c7:
         13:98:f1:0d:77:42:85:f9:84:35:a7:cb:77:0a:b1:13:65:3f:
         56:c4:10:76:36:19:0c:94:7c:59:9e:06:d4:71:97:db:26:c3:
         ea:07:3b:a0:ef:47:2b:81:d2:b3:99:54:71:ef:89:cd:a0:27:
         f1:cf:de:31:0f:a2:2a:6d:67:51:85:12:7d:e4:60:8f:c9:95:
         69:26:dd:f0:e5:d2:81:03:16:f8:c0:05:fb:71:27:7d:33:4e:
         5a:42:e8:8d:b5:4f:f9:ca:1b:82:cb:68:ce:22:cc:59:3f:78:
         3e:85:f7:5d:1a:81:5c:0f:bb:af:ad:96:f5:13:e9:ad:72:5d:
         00:37:8a:c9:62:18:2a:61:1a:1b:40:33:90:34:31:15:ee:7a:
         78:8c:ea:65:3d:60:34:25:4c:e4:33:66:29:bb:6a:30:57:76:
         e4:be:32:8e:04:b2:9b:84:e8:d8:43:d4:f0:e6:99:53:a1:ba:
         04:bb:39:f8:dc:59:94:b2:a6:8b:72:44:b0:f6:eb:85:6c:36:
         d6:13:c6:d1:7b:b1:f7:f4:ee:a5:13:db:9c:50:1a:84:fd:f1:
         86:50:f5:bf:4b:e7:2c:e7:8d:a7:53:58:2d:da:39:a0:0e:a0:
         cc:9d:5e:c6:26:73:b9:8e:33:c9:79:a6:9a:ea:55:f0:2c:70:
         51:a5:e8:76:e6:41:b6:f3:6d:10:ac:28:a9:3b:50:4b:8e:90:
         b0:48:85:a7:07:a9:8a:dd:9a:c3:65:f4:4f:f5:65:10:70:da:
         43:ca:f9:06:31:d6:01:1d:d4:80:97:d1:17:04:c8:e5:e2:65:
         d4:9a:dc:fc:dc:fa:cd:60:e6:60:fb:56:50:87:3f:30:96:e9:
         52:26:a1:49:3e:34:ba:f1:85:7c:5c:d2:63:00:ce:34:30:eb:
         45:cd:b7:4a:2f:1c:ff:08
-----BEGIN CERTIFICATE-----
MIIGfDCCBGSgAwIBAgIUaactBbSse7lRH1NB2V/sIljmesUwDQYJKoZIhvcNAQEL
BQAwZjELMAkGA1UEBhMCTk8xEjAQBgNVBAoMCU5pdHBpY2tzeTEoMCYGA1UECwwf
Tml0cGlja3N5IENlcnRpZmljYXRlIEF1dGhvcml0eTEZMBcGA1UEAwwQTml0cGlj
a3N5IFRMUyBDQTAeFw0yMDEyMTEyMDM2NTNaFw0yMjEyMTEyMDM2NTNaMFkxCzAJ
BgNVBAYTAk5PMRIwEAYDVQQKDAlOaXRwaWNrc3kxKDAmBgNVBAsMH05pdHBpY2tz
eSBDZXJ0aWZpY2F0ZSBBdXRob3JpdHkxDDAKBgNVBAMMA1BDQzCCAiIwDQYJKoZI
hvcNAQEBBQADggIPADCCAgoCggIBAN/gXO5CBBaTF7hvOw0hQgl09c1YhOi+vHEW
C2bqBuKOYSIDdRCbvYLvuHC5u/awPZRyRmcqkkOeRBKyK4Fdkz3SqIrUuuiIDeJ0
sqGK41G2vK1KdrcA0KBZ751x8LvDP4AkAQq8mmrOLcCs4YiceFMQfxvDoyM3gYXk
RWcYZefVgr8NjrISU/Co49BEo4Mp9Taiy9/fQMHvMLvKFPGv24FyT05y789roB9r
9aILsrdz2Nhnp0pVBaxzZuvoS+67w6iZp0d6pIFs1g+BcwZN6qLUGE1W3XQlH2LW
aUsXLf29Tp963MUH3sL7AC8rcm5lBkqyV1h1ofX6QMNVnf4y3yMrY/zK+rT/10JS
VH5W7i3Mv/FqJdy6Wt28PQGyk1YdaoVfOXVT3WzOHAeCPBTr9bgJ7p84pRwF+NLT
KF43EaG9zSKIMk2F4v2SjOUj1AUEh4vAzjl19NOzrDToEQaUFhdvp5byX8XS55li
4B/BJW6ZFaPRYi6DKzp5Y8KyiCeDsu34S3lMGqae1HQINntWCN6rvOt3HJHnohZX
11CSbZSF2ArUnI9B95eM2PAXnVHE/zTaF+lRI2U6m/zNGTaoB39PNMdC6pw3yU4a
vB0o3FfRgRMbwhqYiEeQ65f/Zkny399NbL2wHy8U+LYxj119cp7JXnrc12omI/2v
kdHeb381AgMBAAGjggEtMIIBKTAOBgNVHQ8BAf8EBAMCBaAwCQYDVR0TBAIwADAd
BgNVHSUEFjAUBggrBgEFBQcDAQYIKwYBBQUHAwIwHQYDVR0OBBYEFI6ANqU/phbD
OrVSzReqDNQj0G2zMB8GA1UdIwQYMBaAFMywuLzYNZuUm8lSjoQz59NGuRTtMD0G
CCsGAQUFBwEBBDEwLzAtBggrBgEFBQcwAoYhaHR0cDovL25pdHBpY2tzeS5uby9j
YS90bHMtY2EuY2VyMDIGA1UdHwQrMCkwJ6AloCOGIWh0dHA6Ly9uaXRwaWNrc3ku
bm8vY2EvdGxzLWNhLmNybDA6BgNVHREEMzAxggxuaXRwaWNrc3kubm+CEHd3dy5u
aXRwaWNrc3kubm+CCWxvY2FsaG9zdIcEfwAAATANBgkqhkiG9w0BAQsFAAOCAgEA
lkR+XBVXx9sA3s60NksVsj2NlkY8C8oOaN/pylMWR/eyDth+e5sl1eiesmZvKsEK
moTqTyZaQo7bFmLSc+tcFd3SPk7Deqhp3EtzlgOAFTSQ90xm+X53m4MBu/QQY+qL
qD1jTWBN3XsW+Hyw3HrDSoTAYw9x91rzu903f/P0xkLNjnK8cZjUUHLi+raNv5bg
UW1JOikDky1ZMUgepMZUbljHE5jxDXdChfmENafLdwqxE2U/VsQQdjYZDJR8WZ4G
1HGX2ybD6gc7oO9HK4HSs5lUce+JzaAn8c/eMQ+iKm1nUYUSfeRgj8mVaSbd8OXS
gQMW+MAF+3EnfTNOWkLojbVP+cobgstoziLMWT94PoX3XRqBXA+7r62W9RPprXJd
ADeKyWIYKmEaG0AzkDQxFe56eIzqZT1gNCVM5DNmKbtqMFd25L4yjgSym4To2EPU
8OaZU6G6BLs5+NxZlLKmi3JEsPbrhWw21hPG0Xux9/TupRPbnFAahP3xhlD1v0vn
LOeNp1NYLdo5oA6gzJ1exiZzuY4zyXmmmupV8CxwUaXoduZBtvNtEKwoqTtQS46Q
sEiFpwepit2aw2X0T/VlEHDaQ8r5BjHWAR3UgJfRFwTI5eJl1Jrc/Nz6zWDmYPtW
UIc/MJbpUiahST40uvGFfFzSYwDONDDrRc23Si8c/wg=
-----END CERTIFICATE-----
