Certificate:
    Data:
        Version: 3 (0x2)
        Serial Number:
            6a:97:6b:2a:4b:b6:28:65:0f:62:9d:e4:ca:ea:be:fd:71:64:77:12
        Signature Algorithm: sha256WithRSAEncryption
        Issuer: C=NO, O=Nitpicksy, OU=Nitpicksy Certificate Authority, CN=Nitpicksy TLS CA
        Validity
            Not Before: Dec  6 21:51:58 2020 GMT
            Not After : Dec  6 21:51:58 2022 GMT
        Subject: C=NO, O=Nitpicksy, OU=Nitpicksy Certificate Authority, CN=Eureka
        Subject Public Key Info:
            Public Key Algorithm: rsaEncryption
                RSA Public-Key: (4096 bit)
                Modulus:
                    00:b5:47:0a:f6:73:dc:8b:b3:7f:a3:c4:c2:51:8f:
                    be:27:07:26:40:38:e0:ef:97:b3:a6:7d:bb:44:1d:
                    d3:51:0f:3b:6f:2e:a2:4c:b5:74:28:d0:3c:12:fa:
                    74:94:80:2d:f4:74:de:0d:ee:34:0a:58:4b:4c:e4:
                    9a:7e:8e:6b:44:12:d7:77:b5:20:26:ee:31:7d:bd:
                    d6:24:c4:8d:75:12:81:69:70:ba:a0:36:89:c8:36:
                    84:b1:5e:d3:4c:64:70:8a:06:56:74:32:b6:0c:e8:
                    b2:bb:5b:56:9a:f5:ba:ff:8a:69:b8:4b:34:d5:70:
                    6d:62:67:2e:cb:94:e4:3d:02:ab:f7:33:01:bd:92:
                    d8:3d:4f:1e:e1:01:46:29:f7:8e:10:a9:45:10:3e:
                    10:ea:cf:26:c1:e4:50:a6:4b:d3:a6:c2:ac:52:b9:
                    d2:44:0b:91:b7:49:43:76:59:14:a5:17:17:70:e2:
                    2e:61:3c:3b:00:5a:11:cf:bc:df:bc:42:cc:e2:90:
                    e8:b1:a3:5f:90:51:f8:da:44:41:64:4a:18:dd:10:
                    d0:f7:0b:32:37:e8:1e:1d:82:6b:92:c0:1f:15:1b:
                    e3:c9:72:d0:12:eb:33:56:3c:7b:1a:f0:e6:ba:bc:
                    3b:ec:f9:d5:ba:90:af:1d:f2:3c:da:84:b8:a3:de:
                    a2:32:51:4e:19:8e:92:08:65:28:b9:1d:90:fa:57:
                    53:26:79:ec:9c:43:c5:7d:58:8b:00:2e:6d:15:38:
                    8d:57:f6:52:74:06:57:01:8c:f4:d3:00:a4:e4:94:
                    fd:19:b1:17:46:35:38:b7:32:d7:a6:fb:bb:70:a1:
                    51:72:bb:59:ef:af:8c:05:1f:83:4e:17:c1:9a:43:
                    bb:e5:75:b3:cf:e8:ab:45:cf:b9:3b:0b:74:f9:35:
                    64:52:94:4a:21:d4:42:7d:eb:59:24:4b:1d:62:48:
                    f2:82:47:5e:30:b0:9b:94:1e:91:49:26:32:42:86:
                    82:f7:03:cd:5e:31:a5:39:ea:53:3f:ce:72:d3:1a:
                    9f:bf:09:9c:5b:15:17:b3:68:d3:35:42:38:39:a4:
                    05:69:46:73:e1:f1:12:40:a1:86:42:c2:64:06:8b:
                    03:b2:5d:0c:5f:cd:c3:10:2e:54:ec:32:eb:e4:a2:
                    50:fe:da:09:3a:b6:33:fb:69:5f:ed:7e:fa:97:f2:
                    d7:2e:73:9c:ae:92:b5:30:da:b0:f3:9d:80:4f:05:
                    25:02:67:c0:7a:49:db:5e:c3:a9:07:59:95:6c:2a:
                    43:b3:ad:9a:13:84:75:62:84:44:c0:ef:59:e9:07:
                    f9:5a:a4:a9:7d:8d:2b:3c:cb:66:75:3f:56:75:ab:
                    2b:0b:05
                Exponent: 65537 (0x10001)
        X509v3 extensions:
            X509v3 Key Usage: critical
                Digital Signature, Key Encipherment
            X509v3 Basic Constraints: 
                CA:FALSE
            X509v3 Extended Key Usage: 
                TLS Web Server Authentication, TLS Web Client Authentication
            X509v3 Subject Key Identifier: 
                92:B8:02:80:3E:41:15:0A:FA:D6:4A:9C:15:5E:D6:B8:96:A4:80:B7
            X509v3 Authority Key Identifier: 
                keyid:20:BF:F7:C1:E5:9F:2D:61:99:7C:FA:1C:22:0D:11:35:06:9D:C9:5C

            Authority Information Access: 
                CA Issuers - URI:http://nitpicksy.no/ca/tls-ca.cer

            X509v3 CRL Distribution Points: 

                Full Name:
                  URI:http://nitpicksy.no/ca/tls-ca.crl

            X509v3 Subject Alternative Name: 
                DNS:nitpicksy.no, DNS:www.nitpicksy.no, DNS:localhost
    Signature Algorithm: sha256WithRSAEncryption
         06:3a:71:f8:29:f3:dd:9f:ca:db:09:b8:4a:b6:f7:e0:49:b4:
         dd:7c:4c:9a:2b:e1:74:19:44:47:6f:dd:c9:5c:bd:d9:a6:09:
         e8:45:52:40:fb:b0:0b:a1:8e:85:e2:04:10:0c:80:18:95:32:
         99:15:8e:43:78:37:76:1f:d4:c7:eb:21:ae:de:d3:0f:84:47:
         43:03:c7:10:ed:40:a8:d5:53:a9:b9:39:1a:be:6d:b6:8d:60:
         1a:ee:b8:2e:83:63:8f:9d:93:ea:65:b7:e9:f7:d9:1b:45:17:
         fa:73:b3:92:b6:c9:72:6c:37:ce:56:fc:a5:9d:3c:66:8e:73:
         a0:ff:11:ba:97:dc:ce:85:b8:06:d4:8b:a4:39:24:f2:b4:0d:
         e3:53:8e:5c:e6:0b:c9:62:ae:30:9e:d6:1d:b3:77:d5:7a:cf:
         14:be:0a:52:80:4f:99:f6:06:c1:d9:83:d8:87:d6:87:24:9a:
         40:e2:16:50:6a:9f:90:76:30:50:c0:55:ca:3b:11:b8:17:48:
         9b:73:02:cf:a5:d4:fe:e6:9f:14:04:1d:a8:23:6f:e5:91:d0:
         70:04:da:29:fd:45:7d:26:50:db:7a:3d:db:68:cf:59:45:bb:
         92:9a:01:62:fc:ab:d7:c0:5f:f0:31:41:c8:58:6c:7c:bf:73:
         48:f8:17:b0:d1:47:ff:97:da:44:c1:78:62:5c:62:0b:1d:1d:
         1f:27:b1:e1:37:e0:83:dd:0a:e8:00:2b:6e:e6:b3:36:26:c1:
         dc:27:cd:97:00:3d:c6:5a:03:82:eb:d7:d8:be:ce:15:3f:a7:
         d0:21:71:cb:2e:65:ad:42:27:9e:20:c1:14:a4:73:2a:ef:ea:
         71:bf:a7:93:ad:23:16:ac:ca:f1:c5:9a:41:50:57:64:49:87:
         07:c3:5a:5a:61:61:96:2a:7a:e7:ac:b5:a1:dc:78:a0:cf:97:
         0d:d9:6c:3f:e4:e0:c3:b1:9c:08:81:57:b2:f1:86:62:f6:74:
         70:b7:7f:93:5b:b9:e1:40:49:35:26:44:7a:83:37:c9:82:3a:
         2f:65:50:22:ab:47:3e:5a:53:d0:0f:69:89:9e:db:9d:82:5b:
         69:67:8c:74:ff:f0:d1:32:05:f6:fd:12:45:2e:49:2f:40:d1:
         27:1c:88:bf:a1:59:30:88:7e:0f:c2:16:ef:01:ea:d5:86:81:
         d5:50:54:07:ab:6a:23:11:d0:4f:01:93:04:0b:5f:1a:51:8a:
         bc:2f:a6:85:7d:ce:b4:cf:64:6c:8c:82:2e:ca:57:4a:44:5c:
         94:85:b6:5b:28:6a:30:37:90:af:6d:fd:64:01:f0:20:b9:1d:
         99:94:d8:7e:23:4b:af:1b
-----BEGIN CERTIFICATE-----
MIIGeTCCBGGgAwIBAgIUapdrKku2KGUPYp3kyuq+/XFkdxIwDQYJKoZIhvcNAQEL
BQAwZjELMAkGA1UEBhMCTk8xEjAQBgNVBAoMCU5pdHBpY2tzeTEoMCYGA1UECwwf
Tml0cGlja3N5IENlcnRpZmljYXRlIEF1dGhvcml0eTEZMBcGA1UEAwwQTml0cGlj
a3N5IFRMUyBDQTAeFw0yMDEyMDYyMTUxNThaFw0yMjEyMDYyMTUxNThaMFwxCzAJ
BgNVBAYTAk5PMRIwEAYDVQQKDAlOaXRwaWNrc3kxKDAmBgNVBAsMH05pdHBpY2tz
eSBDZXJ0aWZpY2F0ZSBBdXRob3JpdHkxDzANBgNVBAMMBkV1cmVrYTCCAiIwDQYJ
KoZIhvcNAQEBBQADggIPADCCAgoCggIBALVHCvZz3Iuzf6PEwlGPvicHJkA44O+X
s6Z9u0Qd01EPO28uoky1dCjQPBL6dJSALfR03g3uNApYS0zkmn6Oa0QS13e1ICbu
MX291iTEjXUSgWlwuqA2icg2hLFe00xkcIoGVnQytgzosrtbVpr1uv+KabhLNNVw
bWJnLsuU5D0Cq/czAb2S2D1PHuEBRin3jhCpRRA+EOrPJsHkUKZL06bCrFK50kQL
kbdJQ3ZZFKUXF3DiLmE8OwBaEc+837xCzOKQ6LGjX5BR+NpEQWRKGN0Q0PcLMjfo
Hh2Ca5LAHxUb48ly0BLrM1Y8exrw5rq8O+z51bqQrx3yPNqEuKPeojJRThmOkghl
KLkdkPpXUyZ57JxDxX1YiwAubRU4jVf2UnQGVwGM9NMApOSU/RmxF0Y1OLcy16b7
u3ChUXK7We+vjAUfg04XwZpDu+V1s8/oq0XPuTsLdPk1ZFKUSiHUQn3rWSRLHWJI
8oJHXjCwm5QekUkmMkKGgvcDzV4xpTnqUz/OctMan78JnFsVF7No0zVCODmkBWlG
c+HxEkChhkLCZAaLA7JdDF/NwxAuVOwy6+SiUP7aCTq2M/tpX+1++pfy1y5znK6S
tTDasPOdgE8FJQJnwHpJ217DqQdZlWwqQ7OtmhOEdWKERMDvWekH+VqkqX2NKzzL
ZnU/VnWrKwsFAgMBAAGjggEnMIIBIzAOBgNVHQ8BAf8EBAMCBaAwCQYDVR0TBAIw
ADAdBgNVHSUEFjAUBggrBgEFBQcDAQYIKwYBBQUHAwIwHQYDVR0OBBYEFJK4AoA+
QRUK+tZKnBVe1riWpIC3MB8GA1UdIwQYMBaAFCC/98Hlny1hmXz6HCINETUGnclc
MD0GCCsGAQUFBwEBBDEwLzAtBggrBgEFBQcwAoYhaHR0cDovL25pdHBpY2tzeS5u
by9jYS90bHMtY2EuY2VyMDIGA1UdHwQrMCkwJ6AloCOGIWh0dHA6Ly9uaXRwaWNr
c3kubm8vY2EvdGxzLWNhLmNybDA0BgNVHREELTArggxuaXRwaWNrc3kubm+CEHd3
dy5uaXRwaWNrc3kubm+CCWxvY2FsaG9zdDANBgkqhkiG9w0BAQsFAAOCAgEABjpx
+Cnz3Z/K2wm4Srb34Em03XxMmivhdBlER2/dyVy92aYJ6EVSQPuwC6GOheIEEAyA
GJUymRWOQ3g3dh/Ux+shrt7TD4RHQwPHEO1AqNVTqbk5Gr5tto1gGu64LoNjj52T
6mW36ffZG0UX+nOzkrbJcmw3zlb8pZ08Zo5zoP8RupfczoW4BtSLpDkk8rQN41OO
XOYLyWKuMJ7WHbN31XrPFL4KUoBPmfYGwdmD2IfWhySaQOIWUGqfkHYwUMBVyjsR
uBdIm3MCz6XU/uafFAQdqCNv5ZHQcATaKf1FfSZQ23o922jPWUW7kpoBYvyr18Bf
8DFByFhsfL9zSPgXsNFH/5faRMF4YlxiCx0dHyex4Tfgg90K6AArbuazNibB3CfN
lwA9xloDguvX2L7OFT+n0CFxyy5lrUInniDBFKRzKu/qcb+nk60jFqzK8cWaQVBX
ZEmHB8NaWmFhlip656y1odx4oM+XDdlsP+Tgw7GcCIFXsvGGYvZ0cLd/k1u54UBJ
NSZEeoM3yYI6L2VQIqtHPlpT0A9piZ7bnYJbaWeMdP/w0TIF9v0SRS5JL0DRJxyI
v6FZMIh+D8IW7wHq1YaB1VBUB6tqIxHQTwGTBAtfGlGKvC+mhX3OtM9kbIyCLspX
SkRclIW2WyhqMDeQr239ZAHwILkdmZTYfiNLrxs=
-----END CERTIFICATE-----
