Certificate:
    Data:
        Version: 3 (0x2)
        Serial Number:
            70:44:41:2f:77:58:a0:21:0d:bc:d7:4a:3a:b5:52:23:ee:6e:e3:19
        Signature Algorithm: sha256WithRSAEncryption
        Issuer: C=NO, O=Nitpicksy, OU=Nitpicksy Certificate Authority, CN=Nitpicksy TLS CA
        Validity
            Not Before: Dec  4 12:02:34 2020 GMT
            Not After : Dec  4 12:02:34 2022 GMT
        Subject: C=NO, O=Nitpicksy, OU=Nitpicksy Certificate Authority, CN=zuul
        Subject Public Key Info:
            Public Key Algorithm: rsaEncryption
                RSA Public-Key: (4096 bit)
                Modulus:
                    00:ce:11:d6:52:fa:f2:ad:88:d1:04:be:7b:22:3a:
                    f0:bc:0e:b2:ef:7a:54:be:0d:37:84:49:5a:99:46:
                    09:19:fd:65:23:9f:50:98:9e:42:05:72:26:6a:53:
                    5b:06:81:ba:26:92:c7:66:7d:65:46:1d:e9:e0:67:
                    57:04:43:d8:e1:16:45:25:a7:cd:30:93:d3:9b:d1:
                    b3:d2:d0:c3:fb:17:9a:32:83:50:e4:d0:c2:78:72:
                    57:d1:e2:37:4d:4b:3b:b0:b3:a1:65:07:b9:69:cc:
                    c8:61:5e:18:0b:85:86:a6:95:54:5b:ad:20:cb:f9:
                    7b:08:e8:0c:6b:a5:f0:d4:91:a9:62:8b:89:9a:6e:
                    5c:74:76:b6:3c:f0:39:5d:02:f9:d6:02:22:b7:da:
                    eb:a8:b1:cf:07:b2:84:42:d5:85:6a:8a:59:72:71:
                    19:16:f6:50:bd:3d:a4:a3:b4:8c:0d:12:a9:5d:ad:
                    87:25:9c:79:fc:ac:a1:95:09:b9:fc:3d:52:22:19:
                    ad:5c:93:f9:46:ff:54:10:07:a7:5a:75:fe:89:b7:
                    ff:a1:29:04:89:9c:8a:9b:df:de:1a:01:93:0f:a3:
                    71:5e:44:85:23:06:78:8e:2f:77:3c:04:f0:cd:f3:
                    63:be:67:c9:c9:e9:28:42:e6:ca:c8:3e:5d:4b:45:
                    9a:41:ac:75:04:9f:2e:e3:5f:7a:ba:61:d7:44:b9:
                    25:43:82:5f:62:cf:50:76:c0:e9:4e:f2:4e:24:de:
                    bc:d9:f4:d2:56:c1:35:b1:5f:31:19:ca:fe:1c:b3:
                    d2:ce:26:54:be:50:75:44:47:ee:6c:29:b8:14:50:
                    dd:cb:2c:7e:f7:f7:39:8f:f6:16:8f:61:bc:19:65:
                    db:e2:07:95:1a:c2:0a:85:e9:f0:6e:66:71:e6:d8:
                    5f:e9:4c:39:6d:bc:03:7c:19:a4:1a:35:bb:95:43:
                    e8:b3:a3:42:5c:af:c3:02:65:7e:1b:97:6f:83:93:
                    3b:27:0d:62:a8:75:7d:ce:46:c6:b9:2d:55:45:cf:
                    fe:ea:fb:be:19:75:15:71:d3:86:98:00:5a:f5:5f:
                    0c:3e:4a:fd:76:bd:b5:99:aa:e8:aa:f5:1e:d4:eb:
                    16:df:dc:f5:e6:16:f5:cf:49:ec:7e:12:7b:fa:2b:
                    68:53:cd:6c:14:7e:0d:e5:df:96:e4:87:7a:35:24:
                    bf:e7:0f:8d:40:65:48:1f:46:dd:2c:c4:c8:fb:96:
                    df:66:b2:af:e5:cc:ad:6a:2d:22:41:cc:7e:2f:7f:
                    83:62:3c:b8:74:ef:70:8b:fb:c3:86:1d:df:fb:68:
                    e0:1b:b2:22:27:2f:83:76:15:f2:a0:ba:cf:39:20:
                    58:81:ad
                Exponent: 65537 (0x10001)
        X509v3 extensions:
            X509v3 Key Usage: critical
                Digital Signature, Key Encipherment
            X509v3 Basic Constraints: 
                CA:FALSE
            X509v3 Extended Key Usage: 
                TLS Web Server Authentication, TLS Web Client Authentication
            X509v3 Subject Key Identifier: 
                11:7D:F5:53:0F:74:59:C8:C0:29:4D:56:1D:9F:2F:28:9B:1C:49:70
            X509v3 Authority Key Identifier: 
                keyid:D2:53:26:CF:E6:F6:19:54:29:73:17:A2:0D:1B:AF:E6:C8:8B:AC:46

            Authority Information Access: 
                CA Issuers - URI:http://nitpicksy.no/ca/tls-ca.cer

            X509v3 CRL Distribution Points: 

                Full Name:
                  URI:http://nitpicksy.no/ca/tls-ca.crl

            X509v3 Subject Alternative Name: 
                DNS:nitpicksy.no, DNS:www.nitpicksy.no, DNS:localhost
    Signature Algorithm: sha256WithRSAEncryption
         6b:dd:17:54:ef:75:b3:0b:2e:42:c1:85:92:5a:5c:0b:89:62:
         68:a2:0c:1a:68:bb:ad:28:44:f4:43:25:73:44:e0:de:7a:1d:
         f9:78:00:fa:04:f4:95:d6:03:eb:52:de:67:6a:18:50:ee:4e:
         76:9e:13:a7:c5:ab:44:e1:23:44:01:5e:83:23:74:14:f1:22:
         23:a8:6b:13:c4:30:6e:3f:47:91:36:5d:f8:c4:88:a0:eb:9a:
         41:e1:2a:cb:94:4a:a6:c3:49:52:f8:84:a8:20:78:7d:ea:50:
         a5:9d:85:94:e3:61:6f:d7:bf:3f:03:85:70:55:7f:f0:ef:4e:
         75:20:4f:09:02:23:ef:20:66:13:56:03:6d:ad:68:6f:fe:8b:
         5f:ad:02:d4:22:9a:ab:54:dc:d5:77:81:91:11:f2:8b:4e:71:
         6b:1d:09:f8:c4:a8:d7:69:c4:50:a2:89:dd:a8:af:de:2f:c6:
         3b:ff:ba:b7:b0:71:3a:19:eb:b2:4c:ce:a4:b2:cd:42:b0:7a:
         7c:4d:89:87:db:59:8c:0b:11:7d:86:2d:9a:23:c0:5f:2e:62:
         45:86:b1:56:f3:73:ba:d5:10:67:9d:d9:8a:d6:ea:f0:41:81:
         4e:74:9f:86:88:35:69:e9:16:18:43:34:f0:73:4c:e5:71:7b:
         99:23:0b:e4:1c:49:22:7f:ec:f3:96:f9:3d:09:c0:64:7e:94:
         6c:53:6d:61:22:d1:90:6a:86:dd:72:ac:d0:08:c8:9c:26:24:
         2c:41:48:cf:7b:41:c4:fc:b8:57:83:c9:c3:d4:ad:bf:26:13:
         0f:1f:25:80:01:d0:b5:6f:dc:4a:2d:be:a9:9b:59:b3:44:71:
         04:3c:7e:b3:48:32:da:0f:af:bd:64:44:f6:50:2e:0a:aa:5b:
         10:db:21:aa:9a:75:5f:8c:e0:87:dd:09:cc:01:d2:c6:5a:3b:
         14:de:79:6d:ec:70:c7:de:b2:6e:d7:60:71:f4:2c:2a:7e:78:
         58:93:bb:d9:e6:2a:23:60:bd:56:9b:a8:1f:45:a5:88:65:3f:
         ce:a5:2d:25:c1:01:4a:da:89:e9:37:e4:0d:10:5b:b2:ce:3f:
         ca:1a:c7:ae:d8:ee:1a:b2:f3:49:fd:e8:a3:06:db:08:ad:a5:
         7e:67:bf:25:25:91:fd:35:cd:ee:40:c3:3a:74:c5:5b:16:e1:
         6a:09:8c:d7:e2:4e:cb:f9:dd:20:c0:6c:8c:eb:2e:65:70:5f:
         fd:3a:75:fe:98:d8:63:99:d8:d7:17:c8:4c:20:2f:f3:8f:8a:
         80:5e:a6:30:59:aa:11:15:7c:54:3d:e4:86:87:04:91:b1:4d:
         a2:32:c5:23:28:cc:44:49
-----BEGIN CERTIFICATE-----
MIIGdzCCBF+gAwIBAgIUcERBL3dYoCENvNdKOrVSI+5u4xkwDQYJKoZIhvcNAQEL
BQAwZjELMAkGA1UEBhMCTk8xEjAQBgNVBAoMCU5pdHBpY2tzeTEoMCYGA1UECwwf
Tml0cGlja3N5IENlcnRpZmljYXRlIEF1dGhvcml0eTEZMBcGA1UEAwwQTml0cGlj
a3N5IFRMUyBDQTAeFw0yMDEyMDQxMjAyMzRaFw0yMjEyMDQxMjAyMzRaMFoxCzAJ
BgNVBAYTAk5PMRIwEAYDVQQKDAlOaXRwaWNrc3kxKDAmBgNVBAsMH05pdHBpY2tz
eSBDZXJ0aWZpY2F0ZSBBdXRob3JpdHkxDTALBgNVBAMMBHp1dWwwggIiMA0GCSqG
SIb3DQEBAQUAA4ICDwAwggIKAoICAQDOEdZS+vKtiNEEvnsiOvC8DrLvelS+DTeE
SVqZRgkZ/WUjn1CYnkIFciZqU1sGgbomksdmfWVGHengZ1cEQ9jhFkUlp80wk9Ob
0bPS0MP7F5oyg1Dk0MJ4clfR4jdNSzuws6FlB7lpzMhhXhgLhYamlVRbrSDL+XsI
6AxrpfDUkalii4mablx0drY88DldAvnWAiK32uuosc8HsoRC1YVqillycRkW9lC9
PaSjtIwNEqldrYclnHn8rKGVCbn8PVIiGa1ck/lG/1QQB6dadf6Jt/+hKQSJnIqb
394aAZMPo3FeRIUjBniOL3c8BPDN82O+Z8nJ6ShC5srIPl1LRZpBrHUEny7jX3q6
YddEuSVDgl9iz1B2wOlO8k4k3rzZ9NJWwTWxXzEZyv4cs9LOJlS+UHVER+5sKbgU
UN3LLH739zmP9haPYbwZZdviB5UawgqF6fBuZnHm2F/pTDltvAN8GaQaNbuVQ+iz
o0Jcr8MCZX4bl2+DkzsnDWKodX3ORsa5LVVFz/7q+74ZdRVx04aYAFr1Xww+Sv12
vbWZquiq9R7U6xbf3PXmFvXPSex+Env6K2hTzWwUfg3l35bkh3o1JL/nD41AZUgf
Rt0sxMj7lt9msq/lzK1qLSJBzH4vf4NiPLh073CL+8OGHd/7aOAbsiInL4N2FfKg
us85IFiBrQIDAQABo4IBJzCCASMwDgYDVR0PAQH/BAQDAgWgMAkGA1UdEwQCMAAw
HQYDVR0lBBYwFAYIKwYBBQUHAwEGCCsGAQUFBwMCMB0GA1UdDgQWBBQRffVTD3RZ
yMApTVYdny8omxxJcDAfBgNVHSMEGDAWgBTSUybP5vYZVClzF6ING6/myIusRjA9
BggrBgEFBQcBAQQxMC8wLQYIKwYBBQUHMAKGIWh0dHA6Ly9uaXRwaWNrc3kubm8v
Y2EvdGxzLWNhLmNlcjAyBgNVHR8EKzApMCegJaAjhiFodHRwOi8vbml0cGlja3N5
Lm5vL2NhL3Rscy1jYS5jcmwwNAYDVR0RBC0wK4IMbml0cGlja3N5Lm5vghB3d3cu
bml0cGlja3N5Lm5vgglsb2NhbGhvc3QwDQYJKoZIhvcNAQELBQADggIBAGvdF1Tv
dbMLLkLBhZJaXAuJYmiiDBpou60oRPRDJXNE4N56Hfl4APoE9JXWA+tS3mdqGFDu
TnaeE6fFq0ThI0QBXoMjdBTxIiOoaxPEMG4/R5E2XfjEiKDrmkHhKsuUSqbDSVL4
hKggeH3qUKWdhZTjYW/Xvz8DhXBVf/DvTnUgTwkCI+8gZhNWA22taG/+i1+tAtQi
mqtU3NV3gZER8otOcWsdCfjEqNdpxFCiid2or94vxjv/urewcToZ67JMzqSyzUKw
enxNiYfbWYwLEX2GLZojwF8uYkWGsVbzc7rVEGed2YrW6vBBgU50n4aINWnpFhhD
NPBzTOVxe5kjC+QcSSJ/7POW+T0JwGR+lGxTbWEi0ZBqht1yrNAIyJwmJCxBSM97
QcT8uFeDycPUrb8mEw8fJYAB0LVv3EotvqmbWbNEcQQ8frNIMtoPr71kRPZQLgqq
WxDbIaqadV+M4IfdCcwB0sZaOxTeeW3scMfesm7XYHH0LCp+eFiTu9nmKiNgvVab
qB9FpYhlP86lLSXBAUraiek35A0QW7LOP8oax67Y7hqy80n96KMG2witpX5nvyUl
kf01ze5Awzp0xVsW4WoJjNfiTsv53SDAbIzrLmVwX/06df6Y2GOZ2NcXyEwgL/OP
ioBepjBZqhEVfFQ95IaHBJGxTaIyxSMozERJ
-----END CERTIFICATE-----
