Certificate:
    Data:
        Version: 3 (0x2)
        Serial Number:
            70:94:a0:d8:1d:6b:f2:0d:02:f5:c3:71:6f:68:eb:bf:af:8f:66:22
        Signature Algorithm: sha256WithRSAEncryption
        Issuer: C=NO, O=Nitpicksy, OU=Nitpicksy Certificate Authority, CN=Nitpicksy TLS CA
        Validity
            Not Before: Dec  6 21:52:31 2020 GMT
            Not After : Dec  6 21:52:31 2022 GMT
        Subject: C=NO, O=Nitpicksy, OU=Nitpicksy Certificate Authority, CN=Eureka
        Subject Public Key Info:
            Public Key Algorithm: rsaEncryption
                RSA Public-Key: (4096 bit)
                Modulus:
                    00:be:b4:80:f1:60:15:a2:d5:55:7b:9f:a1:c0:b9:
                    d9:2e:4b:57:d6:9e:24:60:48:0a:86:ae:88:b5:55:
                    ce:f9:28:33:c2:0a:37:14:5d:c7:82:44:06:f6:e1:
                    9c:a8:68:59:3d:d4:0b:f9:88:94:87:13:77:70:cb:
                    2c:65:da:9a:d6:a8:ea:d9:00:ed:b7:ac:ff:8c:a6:
                    7f:78:f6:f1:25:eb:cf:a3:b8:5b:13:85:4b:a1:49:
                    1f:f1:56:ec:1f:ad:f6:52:de:07:38:9b:83:17:be:
                    bd:5d:13:b5:4a:60:3a:91:09:bf:48:ec:d3:64:3b:
                    09:f3:a4:ec:fe:ba:68:91:db:ac:33:f6:11:4e:bf:
                    40:b6:ae:ec:2f:0e:d7:b3:3f:f3:90:16:d8:5f:5c:
                    9d:16:7d:1f:f5:d2:f6:71:09:21:a5:cd:53:ec:16:
                    90:ca:b6:bb:cf:04:02:69:3b:4a:c2:df:a4:be:07:
                    ce:7c:0e:32:ad:93:d8:1c:45:32:06:06:e5:96:5f:
                    69:be:18:86:5a:02:39:21:37:7e:5d:fd:96:71:59:
                    d3:71:9b:b8:11:53:34:f3:aa:b7:90:84:f0:b9:85:
                    58:8f:df:37:f7:c6:70:a8:71:7c:7e:08:ff:39:71:
                    89:70:d6:8d:c8:ad:99:00:20:65:55:79:a6:08:57:
                    04:3f:24:78:23:9b:80:de:89:e6:da:3e:ae:3a:4c:
                    bf:60:6b:07:98:d9:dd:8c:e6:f7:e3:00:bf:5b:50:
                    7a:9e:3c:5d:49:da:90:ad:06:36:f4:0a:23:29:b5:
                    25:28:9b:3d:4b:6c:83:69:c8:d5:1e:47:8a:58:4a:
                    a2:a9:0f:0e:23:8c:13:6b:a3:ea:e9:3a:ba:74:ee:
                    ae:89:67:52:fa:86:5b:2c:b0:b6:61:e0:af:55:71:
                    09:c0:c6:86:83:3e:3d:1e:85:16:b3:e6:07:a2:ca:
                    bb:a9:d2:7e:ab:c3:6d:54:7d:73:5d:19:06:e8:70:
                    9c:bb:7d:7a:b1:b3:ff:3d:f5:86:83:f9:22:f7:14:
                    3e:23:2e:a1:ad:79:2f:66:16:4f:40:08:06:be:c4:
                    fc:66:f8:13:06:a3:9b:b9:42:c5:31:87:50:e8:66:
                    9d:cb:90:83:63:99:bb:c7:0a:3b:61:65:62:46:be:
                    b1:1d:bc:7d:03:0a:fc:a2:c0:cd:0c:5b:c1:c7:4b:
                    e9:b6:ec:2b:a2:60:3e:59:ef:c3:3c:bb:a7:05:a8:
                    4c:bb:1b:0a:81:bc:f4:ce:e6:10:9a:b4:b1:3d:7a:
                    9a:85:c4:cd:9d:85:c2:93:d4:52:fe:08:43:7f:63:
                    63:dc:da:9b:e0:05:5e:13:d6:db:ba:a3:1e:0e:03:
                    1c:ee:bf
                Exponent: 65537 (0x10001)
        X509v3 extensions:
            X509v3 Key Usage: critical
                Digital Signature, Key Encipherment
            X509v3 Basic Constraints: 
                CA:FALSE
            X509v3 Extended Key Usage: 
                TLS Web Server Authentication, TLS Web Client Authentication
            X509v3 Subject Key Identifier: 
                A3:86:9B:07:9E:C3:A7:7C:91:7C:2E:7E:F6:D9:55:F8:C9:D2:1C:94
            X509v3 Authority Key Identifier: 
                keyid:D7:D7:89:7B:D0:D8:5C:D5:C9:27:4E:98:7C:EE:76:73:F6:EB:7E:DB

            Authority Information Access: 
                CA Issuers - URI:http://nitpicksy.no/ca/tls-ca.cer

            X509v3 CRL Distribution Points: 

                Full Name:
                  URI:http://nitpicksy.no/ca/tls-ca.crl

            X509v3 Subject Alternative Name: 
                DNS:nitpicksy.no, DNS:www.nitpicksy.no, DNS:localhost
    Signature Algorithm: sha256WithRSAEncryption
         04:a8:53:e8:35:5b:9c:00:e2:d1:c9:fc:38:1e:7f:62:7a:2e:
         e1:7b:c6:70:3e:f1:a2:4c:9f:90:07:bf:f4:38:a4:1b:03:5d:
         52:2f:ee:a9:07:68:ef:42:5a:e7:4d:68:62:47:4c:33:d3:1e:
         09:3e:08:1d:c2:8d:af:ed:1a:d2:66:75:bf:e0:1e:4d:40:fd:
         06:ca:b1:1b:62:20:d2:6a:3f:9f:50:03:e8:81:09:9b:5a:8e:
         d8:77:24:56:9f:99:2f:40:20:61:6c:a0:d8:4d:17:47:af:67:
         f1:ab:8a:e0:1d:12:d2:ea:5a:fe:e1:55:e5:a8:68:31:52:65:
         66:c9:23:e1:cf:63:df:47:83:99:5a:10:c1:52:4f:5c:67:1a:
         38:98:10:03:09:f7:f1:4b:4b:30:b5:38:24:46:ee:36:66:05:
         41:c4:7c:a5:e4:20:f9:c6:5a:fc:c3:1f:52:f6:98:3f:59:d5:
         38:07:0d:ef:ed:e8:55:e3:08:53:c6:e0:64:30:fa:24:a6:f5:
         cf:fd:3d:20:54:dc:51:7d:8f:06:16:c0:08:6e:6f:2c:74:a3:
         54:22:29:0c:89:b7:fa:56:00:0c:67:3e:4a:b6:fe:66:af:13:
         25:de:40:e1:83:4b:47:06:e2:ac:a7:57:c0:c9:02:1e:57:2c:
         23:7d:40:15:8c:da:6e:2c:d8:8e:0d:dd:27:77:d7:96:3f:60:
         40:7d:e9:19:5a:30:b0:7b:60:d6:6f:13:29:c8:25:05:4c:ac:
         2e:d6:d6:48:7e:3b:d9:80:32:d5:62:b9:4e:b5:5c:54:ef:38:
         3d:ec:2f:91:ab:72:57:f0:78:d3:a6:80:5d:93:d6:c6:61:31:
         ca:18:f4:c2:27:fd:e6:13:34:05:ef:14:c6:8f:e6:88:23:23:
         bb:22:6b:84:c9:ae:48:07:b5:0e:aa:fa:11:cd:bf:39:e7:48:
         29:b4:a1:03:e5:87:32:8e:24:c6:a5:fc:4e:26:34:9a:24:c5:
         9b:3c:7d:14:9e:fa:74:e9:0b:74:d9:8a:32:d5:ac:18:bc:dd:
         62:cf:15:9d:ea:3b:02:cb:7a:a8:63:c2:74:36:cc:c0:a6:f6:
         c8:5a:70:08:0a:29:ac:fe:43:28:8f:d9:f4:9f:df:ce:55:08:
         ab:e8:c1:59:36:0e:2a:51:e4:b9:8b:d9:c8:a2:48:df:cf:b5:
         f3:c5:67:e8:c9:e6:1d:db:66:3b:96:81:e4:fc:b7:d5:35:1d:
         d8:fa:2e:f2:32:d9:4f:f2:a2:b4:5d:8a:c3:2d:26:ed:0d:3d:
         5c:4b:a6:22:2b:40:0a:74:48:96:d5:4a:a0:95:9c:db:3f:ca:
         9c:d5:de:59:5d:97:a5:9f
-----BEGIN CERTIFICATE-----
MIIGeTCCBGGgAwIBAgIUcJSg2B1r8g0C9cNxb2jrv6+PZiIwDQYJKoZIhvcNAQEL
BQAwZjELMAkGA1UEBhMCTk8xEjAQBgNVBAoMCU5pdHBpY2tzeTEoMCYGA1UECwwf
Tml0cGlja3N5IENlcnRpZmljYXRlIEF1dGhvcml0eTEZMBcGA1UEAwwQTml0cGlj
a3N5IFRMUyBDQTAeFw0yMDEyMDYyMTUyMzFaFw0yMjEyMDYyMTUyMzFaMFwxCzAJ
BgNVBAYTAk5PMRIwEAYDVQQKDAlOaXRwaWNrc3kxKDAmBgNVBAsMH05pdHBpY2tz
eSBDZXJ0aWZpY2F0ZSBBdXRob3JpdHkxDzANBgNVBAMMBkV1cmVrYTCCAiIwDQYJ
KoZIhvcNAQEBBQADggIPADCCAgoCggIBAL60gPFgFaLVVXufocC52S5LV9aeJGBI
CoauiLVVzvkoM8IKNxRdx4JEBvbhnKhoWT3UC/mIlIcTd3DLLGXamtao6tkA7bes
/4ymf3j28SXrz6O4WxOFS6FJH/FW7B+t9lLeBzibgxe+vV0TtUpgOpEJv0js02Q7
CfOk7P66aJHbrDP2EU6/QLau7C8O17M/85AW2F9cnRZ9H/XS9nEJIaXNU+wWkMq2
u88EAmk7SsLfpL4HznwOMq2T2BxFMgYG5ZZfab4YhloCOSE3fl39lnFZ03GbuBFT
NPOqt5CE8LmFWI/fN/fGcKhxfH4I/zlxiXDWjcitmQAgZVV5pghXBD8keCObgN6J
5to+rjpMv2BrB5jZ3Yzm9+MAv1tQep48XUnakK0GNvQKIym1JSibPUtsg2nI1R5H
ilhKoqkPDiOME2uj6uk6unTurolnUvqGWyywtmHgr1VxCcDGhoM+PR6FFrPmB6LK
u6nSfqvDbVR9c10ZBuhwnLt9erGz/z31hoP5IvcUPiMuoa15L2YWT0AIBr7E/Gb4
Ewajm7lCxTGHUOhmncuQg2OZu8cKO2FlYka+sR28fQMK/KLAzQxbwcdL6bbsK6Jg
Plnvwzy7pwWoTLsbCoG89M7mEJq0sT16moXEzZ2FwpPUUv4IQ39jY9zam+AFXhPW
27qjHg4DHO6/AgMBAAGjggEnMIIBIzAOBgNVHQ8BAf8EBAMCBaAwCQYDVR0TBAIw
ADAdBgNVHSUEFjAUBggrBgEFBQcDAQYIKwYBBQUHAwIwHQYDVR0OBBYEFKOGmwee
w6d8kXwufvbZVfjJ0hyUMB8GA1UdIwQYMBaAFNfXiXvQ2FzVySdOmHzudnP2637b
MD0GCCsGAQUFBwEBBDEwLzAtBggrBgEFBQcwAoYhaHR0cDovL25pdHBpY2tzeS5u
by9jYS90bHMtY2EuY2VyMDIGA1UdHwQrMCkwJ6AloCOGIWh0dHA6Ly9uaXRwaWNr
c3kubm8vY2EvdGxzLWNhLmNybDA0BgNVHREELTArggxuaXRwaWNrc3kubm+CEHd3
dy5uaXRwaWNrc3kubm+CCWxvY2FsaG9zdDANBgkqhkiG9w0BAQsFAAOCAgEABKhT
6DVbnADi0cn8OB5/Ynou4XvGcD7xokyfkAe/9DikGwNdUi/uqQdo70Ja501oYkdM
M9MeCT4IHcKNr+0a0mZ1v+AeTUD9BsqxG2Ig0mo/n1AD6IEJm1qO2HckVp+ZL0Ag
YWyg2E0XR69n8auK4B0S0upa/uFV5ahoMVJlZskj4c9j30eDmVoQwVJPXGcaOJgQ
Awn38UtLMLU4JEbuNmYFQcR8peQg+cZa/MMfUvaYP1nVOAcN7+3oVeMIU8bgZDD6
JKb1z/09IFTcUX2PBhbACG5vLHSjVCIpDIm3+lYADGc+Srb+Zq8TJd5A4YNLRwbi
rKdXwMkCHlcsI31AFYzabizYjg3dJ3fXlj9gQH3pGVowsHtg1m8TKcglBUysLtbW
SH472YAy1WK5TrVcVO84PewvkatyV/B406aAXZPWxmExyhj0wif95hM0Be8Uxo/m
iCMjuyJrhMmuSAe1Dqr6Ec2/OedIKbShA+WHMo4kxqX8TiY0miTFmzx9FJ76dOkL
dNmKMtWsGLzdYs8Vneo7Ast6qGPCdDbMwKb2yFpwCAoprP5DKI/Z9J/fzlUIq+jB
WTYOKlHkuYvZyKJI38+188Vn6MnmHdtmO5aB5Py31TUd2Pou8jLZT/KitF2Kwy0m
7Q09XEumIitACnRIltVKoJWc2z/KnNXeWV2XpZ8=
-----END CERTIFICATE-----
