Certificate:
    Data:
        Version: 3 (0x2)
        Serial Number:
            71:6c:33:a8:d1:76:ba:eb:b2:a8:3c:b2:d8:4e:b5:8e:65:d2:9a:21
        Signature Algorithm: sha256WithRSAEncryption
        Issuer: C=NO, O=Nitpicksy, OU=Nitpicksy Certificate Authority, CN=Nitpicksy TLS CA
        Validity
            Not Before: Dec  6 21:59:52 2020 GMT
            Not After : Dec  6 21:59:52 2022 GMT
        Subject: C=NO, O=Nitpicksy, OU=Nitpicksy Certificate Authority, CN=Payment Gateway
        Subject Public Key Info:
            Public Key Algorithm: rsaEncryption
                RSA Public-Key: (4096 bit)
                Modulus:
                    00:c2:f5:2b:0a:f7:b6:56:97:3b:cb:f6:b3:02:e8:
                    fa:ff:ca:28:33:6d:4c:cf:48:3b:0b:6c:7b:eb:ef:
                    e7:71:7e:e6:73:ee:6e:05:15:c2:99:f6:fc:1a:eb:
                    9a:70:c4:d8:10:fa:f3:91:e1:7e:76:c3:79:5b:6d:
                    1b:42:84:53:89:34:b5:c6:db:26:56:ff:75:82:1f:
                    f2:a4:7a:da:e0:ff:28:85:31:07:2d:5e:59:1b:32:
                    95:fe:1c:1f:a7:c8:bc:9e:23:b7:ba:5f:23:08:3b:
                    44:7c:38:71:c4:ec:2c:54:28:9f:8e:76:14:c8:23:
                    62:34:b6:13:b0:d0:e2:c1:25:9d:a6:91:a1:a5:ca:
                    3a:a6:c0:88:95:cd:a5:74:2a:7b:78:9e:20:a1:b0:
                    c9:a6:26:54:91:ac:6f:65:11:1d:a4:18:2a:69:39:
                    60:20:0c:f6:e9:d4:b0:e8:03:64:2e:cb:47:af:f0:
                    b5:39:7d:57:db:84:06:c8:d9:4e:91:7e:33:e3:84:
                    61:20:5e:86:ac:ee:e5:53:e5:6a:77:c0:38:a4:07:
                    d3:ce:e0:ff:d8:18:01:07:3a:ad:04:b7:51:eb:8c:
                    9e:8a:44:70:ee:6c:ed:48:a7:b5:e2:71:3b:b5:c8:
                    4b:34:f7:e7:35:6d:b3:cd:54:32:36:5a:cf:a0:47:
                    1f:de:a3:59:10:71:21:42:21:02:02:ae:8c:f0:dc:
                    be:b3:07:5a:ad:db:96:f3:72:5b:6a:1f:e5:05:b5:
                    c5:31:05:0e:0f:b9:dd:91:28:1d:0f:63:bb:a3:44:
                    9d:c6:12:e8:8e:c1:e8:47:7f:59:87:b9:f3:31:a8:
                    af:10:0a:7c:96:ba:ff:88:1a:91:0f:4d:7a:1f:31:
                    0f:28:e5:25:89:74:5c:5a:3b:15:0d:e6:80:21:37:
                    10:40:4c:f5:c1:40:4a:4a:61:ef:c4:20:7b:31:cd:
                    ba:b0:4e:9d:d5:ea:41:65:9e:dc:1a:53:ff:40:45:
                    5b:18:10:d7:e1:6a:f7:ae:2a:bb:5c:2c:4a:fb:b0:
                    db:9d:00:e5:eb:a6:f7:6a:79:8b:15:b7:8b:71:a9:
                    d0:b8:7e:7c:56:3a:ff:ae:1c:d4:a2:67:7a:b7:43:
                    2d:07:83:0f:4b:88:f3:1a:25:c0:12:32:0f:99:02:
                    78:4b:8a:d3:ae:19:d3:25:a1:c7:6d:01:38:43:e2:
                    be:ca:0c:6f:9b:55:a8:d6:00:7e:1d:d1:d3:eb:0f:
                    a2:86:43:cd:86:aa:cf:09:3e:d3:9a:1b:54:9c:c3:
                    04:d9:9d:9a:b7:cb:49:ce:6d:af:e9:1a:d4:c1:31:
                    64:d2:56:34:f9:d1:dd:3a:15:f7:97:7e:b8:a7:af:
                    b7:e1:dd
                Exponent: 65537 (0x10001)
        X509v3 extensions:
            X509v3 Key Usage: critical
                Digital Signature, Key Encipherment
            X509v3 Basic Constraints: 
                CA:FALSE
            X509v3 Extended Key Usage: 
                TLS Web Server Authentication, TLS Web Client Authentication
            X509v3 Subject Key Identifier: 
                AF:AE:02:10:D5:53:A4:2F:10:50:A0:B8:0A:7C:D7:FC:26:B0:47:CF
            X509v3 Authority Key Identifier: 
                keyid:F8:9E:02:FC:4A:0D:42:21:E6:18:5C:50:21:68:5A:34:79:23:14:65

            Authority Information Access: 
                CA Issuers - URI:http://nitpicksy.no/ca/tls-ca.cer

            X509v3 CRL Distribution Points: 

                Full Name:
                  URI:http://nitpicksy.no/ca/tls-ca.crl

            X509v3 Subject Alternative Name: 
                DNS:nitpicksy.no, DNS:www.nitpicksy.no, DNS:localhost
    Signature Algorithm: sha256WithRSAEncryption
         0f:cc:77:6b:84:53:17:69:13:31:53:14:10:33:83:f0:9d:50:
         1a:9b:a5:a9:58:94:15:16:e3:a0:34:8e:f6:cb:e7:37:ea:5d:
         0f:9c:e9:9e:7d:da:62:1b:00:65:ce:26:4c:6d:b5:38:92:80:
         39:40:c1:e6:b3:dc:a2:a4:49:f0:0a:82:93:c8:cd:b2:7b:65:
         88:07:23:79:56:6c:62:f6:5f:68:15:81:c7:65:e4:2b:a9:d3:
         d9:f1:95:8d:cf:62:f8:e0:a7:dd:d6:67:ad:7a:c6:13:11:e5:
         0a:13:c5:59:95:01:2a:c6:a8:b3:10:0d:80:8d:e5:de:cb:e4:
         e8:ec:0b:90:1d:60:9c:1c:66:b3:96:b1:71:bd:61:38:64:ef:
         c9:e9:bb:41:18:2c:36:de:09:80:f7:b0:f4:7c:fb:87:79:40:
         16:a1:34:d5:c0:79:d0:4e:50:17:23:72:ec:37:e2:35:5c:2a:
         0f:11:ba:ea:04:21:32:fe:3f:2f:69:9f:7d:c2:7e:65:9c:1e:
         54:14:bb:fe:78:95:f6:79:2f:46:29:1b:2b:cb:cb:af:78:03:
         92:b8:ba:6b:6f:00:ea:36:6e:be:ea:08:3f:37:60:58:2c:26:
         c5:0c:07:0e:a4:72:55:49:d1:63:6f:87:30:db:cb:ba:71:10:
         ce:7b:53:2b:cf:3b:23:ca:1b:0e:e2:e3:a5:6a:b1:a8:e7:46:
         c4:ce:ad:8a:ec:cf:61:b7:c1:c4:7b:5d:f2:2d:10:b7:ae:4d:
         f7:28:1f:fe:b1:9c:d6:cd:12:d0:e5:55:2c:6f:fd:9e:62:8a:
         9b:ac:cd:87:6b:33:86:b8:12:b9:91:84:d3:77:5b:11:20:a6:
         e1:30:5a:dc:2a:48:61:ae:d1:f5:a2:07:65:21:d7:7f:45:d1:
         18:11:72:e9:96:60:e8:29:71:20:59:79:96:cc:a1:03:93:ab:
         85:98:9d:50:45:6c:ae:d6:4d:8c:cc:72:ab:14:7f:f9:2e:c4:
         37:6a:2e:de:f4:a1:f6:64:a5:d3:bf:1e:f6:dd:15:6f:85:ea:
         83:da:fd:fe:bf:d6:f0:1a:f5:ef:d2:bc:1d:57:9c:4b:ed:7c:
         a8:32:28:1c:b9:9d:79:3a:24:08:d6:53:a2:2d:66:c5:37:82:
         db:f6:8d:64:d9:70:89:65:15:b7:8d:97:ef:56:a7:7a:ad:7d:
         65:86:64:39:22:ff:6c:18:c7:47:34:bd:75:d4:3b:96:52:be:
         b6:87:b2:68:ea:ec:d6:fe:7f:59:58:63:ad:15:66:b8:7f:18:
         63:4b:26:f9:04:d5:fb:d7:ed:5d:7a:08:96:e9:ba:23:af:5f:
         73:59:95:db:3c:46:84:33
-----BEGIN CERTIFICATE-----
MIIGgjCCBGqgAwIBAgIUcWwzqNF2uuuyqDyy2E61jmXSmiEwDQYJKoZIhvcNAQEL
BQAwZjELMAkGA1UEBhMCTk8xEjAQBgNVBAoMCU5pdHBpY2tzeTEoMCYGA1UECwwf
Tml0cGlja3N5IENlcnRpZmljYXRlIEF1dGhvcml0eTEZMBcGA1UEAwwQTml0cGlj
a3N5IFRMUyBDQTAeFw0yMDEyMDYyMTU5NTJaFw0yMjEyMDYyMTU5NTJaMGUxCzAJ
BgNVBAYTAk5PMRIwEAYDVQQKDAlOaXRwaWNrc3kxKDAmBgNVBAsMH05pdHBpY2tz
eSBDZXJ0aWZpY2F0ZSBBdXRob3JpdHkxGDAWBgNVBAMMD1BheW1lbnQgR2F0ZXdh
eTCCAiIwDQYJKoZIhvcNAQEBBQADggIPADCCAgoCggIBAML1Kwr3tlaXO8v2swLo
+v/KKDNtTM9IOwtse+vv53F+5nPubgUVwpn2/BrrmnDE2BD685HhfnbDeVttG0KE
U4k0tcbbJlb/dYIf8qR62uD/KIUxBy1eWRsylf4cH6fIvJ4jt7pfIwg7RHw4ccTs
LFQon452FMgjYjS2E7DQ4sElnaaRoaXKOqbAiJXNpXQqe3ieIKGwyaYmVJGsb2UR
HaQYKmk5YCAM9unUsOgDZC7LR6/wtTl9V9uEBsjZTpF+M+OEYSBehqzu5VPlanfA
OKQH087g/9gYAQc6rQS3UeuMnopEcO5s7UinteJxO7XISzT35zVts81UMjZaz6BH
H96jWRBxIUIhAgKujPDcvrMHWq3blvNyW2of5QW1xTEFDg+53ZEoHQ9ju6NEncYS
6I7B6Ed/WYe58zGorxAKfJa6/4gakQ9Neh8xDyjlJYl0XFo7FQ3mgCE3EEBM9cFA
Skph78QgezHNurBOndXqQWWe3BpT/0BFWxgQ1+Fq964qu1wsSvuw250A5eum92p5
ixW3i3Gp0Lh+fFY6/64c1KJnerdDLQeDD0uI8xolwBIyD5kCeEuK064Z0yWhx20B
OEPivsoMb5tVqNYAfh3R0+sPooZDzYaqzwk+05obVJzDBNmdmrfLSc5tr+ka1MEx
ZNJWNPnR3ToV95d+uKevt+HdAgMBAAGjggEnMIIBIzAOBgNVHQ8BAf8EBAMCBaAw
CQYDVR0TBAIwADAdBgNVHSUEFjAUBggrBgEFBQcDAQYIKwYBBQUHAwIwHQYDVR0O
BBYEFK+uAhDVU6QvEFCguAp81/wmsEfPMB8GA1UdIwQYMBaAFPieAvxKDUIh5hhc
UCFoWjR5IxRlMD0GCCsGAQUFBwEBBDEwLzAtBggrBgEFBQcwAoYhaHR0cDovL25p
dHBpY2tzeS5uby9jYS90bHMtY2EuY2VyMDIGA1UdHwQrMCkwJ6AloCOGIWh0dHA6
Ly9uaXRwaWNrc3kubm8vY2EvdGxzLWNhLmNybDA0BgNVHREELTArggxuaXRwaWNr
c3kubm+CEHd3dy5uaXRwaWNrc3kubm+CCWxvY2FsaG9zdDANBgkqhkiG9w0BAQsF
AAOCAgEAD8x3a4RTF2kTMVMUEDOD8J1QGpulqViUFRbjoDSO9svnN+pdD5zpnn3a
YhsAZc4mTG21OJKAOUDB5rPcoqRJ8AqCk8jNsntliAcjeVZsYvZfaBWBx2XkK6nT
2fGVjc9i+OCn3dZnrXrGExHlChPFWZUBKsaosxANgI3l3svk6OwLkB1gnBxms5ax
cb1hOGTvyem7QRgsNt4JgPew9Hz7h3lAFqE01cB50E5QFyNy7DfiNVwqDxG66gQh
Mv4/L2mffcJ+ZZweVBS7/niV9nkvRikbK8vLr3gDkri6a28A6jZuvuoIPzdgWCwm
xQwHDqRyVUnRY2+HMNvLunEQzntTK887I8obDuLjpWqxqOdGxM6tiuzPYbfBxHtd
8i0Qt65N9ygf/rGc1s0S0OVVLG/9nmKKm6zNh2szhrgSuZGE03dbESCm4TBa3CpI
Ya7R9aIHZSHXf0XRGBFy6ZZg6ClxIFl5lsyhA5OrhZidUEVsrtZNjMxyqxR/+S7E
N2ou3vSh9mSl078e9t0Vb4Xqg9r9/r/W8Br179K8HVecS+18qDIoHLmdeTokCNZT
oi1mxTeC2/aNZNlwiWUVt42X71aneq19ZYZkOSL/bBjHRzS9ddQ7llK+toeyaOrs
1v5/WVhjrRVmuH8YY0sm+QTV+9ftXXoIlum6I69fc1mV2zxGhDM=
-----END CERTIFICATE-----
