Certificate:
    Data:
        Version: 3 (0x2)
        Serial Number:
            72:81:25:df:1b:bf:17:af:5c:7a:83:ce:c4:b3:81:32:0b:23:6b:b6
        Signature Algorithm: sha256WithRSAEncryption
        Issuer: C=NO, O=Nitpicksy, OU=Nitpicksy Certificate Authority, CN=Nitpicksy TLS CA
        Validity
            Not Before: Dec 11 20:36:50 2020 GMT
            Not After : Dec 11 20:36:50 2022 GMT
        Subject: C=NO, O=Nitpicksy, OU=Nitpicksy Certificate Authority, CN=Payment Gateway
        Subject Public Key Info:
            Public Key Algorithm: rsaEncryption
                RSA Public-Key: (4096 bit)
                Modulus:
                    00:b8:9f:3e:d7:f9:67:27:fe:1d:56:0e:73:ba:eb:
                    a6:3b:9e:10:fb:0d:9c:84:7b:5f:ee:ae:79:c9:6e:
                    2e:36:89:5b:76:8b:31:d1:15:a1:c2:c1:bd:51:5f:
                    34:3c:87:c1:d8:7a:05:d9:53:f7:90:47:ed:d9:f6:
                    4a:d7:c1:db:ba:5d:bd:48:19:ec:14:9f:a8:65:d9:
                    63:ab:c8:4b:88:03:e1:fa:d9:01:d1:55:a5:a3:c6:
                    95:82:1d:33:4d:ff:37:6a:11:77:4f:0f:2b:dd:70:
                    c2:d3:8f:2c:8b:91:68:68:93:bf:88:a6:30:c3:dc:
                    01:49:b3:5d:76:49:16:7a:b4:fa:f9:be:86:b4:df:
                    12:48:7c:fd:ab:e0:7a:35:4f:45:ba:7f:b0:35:b9:
                    43:a5:c3:f7:b1:d3:19:26:88:da:41:3d:73:14:a7:
                    35:c1:c9:65:aa:0c:5f:fe:d4:87:08:47:1b:c3:87:
                    c4:0d:ec:f7:78:11:1a:4c:65:21:a5:21:e9:85:28:
                    24:52:38:f8:85:e4:ee:31:82:b9:8f:97:5e:a4:c2:
                    cf:2c:39:f8:fe:4a:0a:52:f1:d9:56:82:1f:0c:c4:
                    7f:84:1e:5b:77:09:80:b1:bd:1c:9c:38:fd:49:2f:
                    bd:20:1c:76:24:7d:87:ed:7e:cc:04:66:66:c8:c0:
                    08:24:29:27:ac:bd:b4:cc:cc:7b:d4:09:18:7c:63:
                    e3:43:06:9d:c5:61:6f:76:e8:ec:c7:a7:4d:a0:9c:
                    50:6a:9d:2e:f5:26:22:7d:0a:85:59:59:2e:3b:c9:
                    97:b2:ed:c4:ad:a0:d1:ac:e7:3c:3c:97:87:8d:4c:
                    c2:52:8d:19:ac:0b:7a:15:7f:43:75:e3:97:ef:64:
                    60:f7:f8:d6:22:b0:7c:10:a0:1e:13:49:41:a8:70:
                    26:1c:d7:1e:c4:5a:38:96:68:bb:9c:b7:e3:08:90:
                    b3:3e:63:c7:4b:0e:37:fe:79:ab:ef:73:97:2d:8c:
                    27:80:8b:c2:6e:2a:58:f4:6e:df:29:bd:00:e6:34:
                    89:86:f9:fb:b3:86:29:81:09:fc:54:cc:42:f6:1e:
                    83:c7:83:e1:0e:36:69:21:0a:ea:43:7b:c6:06:77:
                    21:ae:4f:42:05:9b:f7:4a:1f:cd:1b:6c:a8:ce:4f:
                    e7:f8:60:ed:fe:84:57:d0:43:c5:25:57:a4:3d:a9:
                    8f:a7:be:c5:10:3f:c0:af:2d:4a:4e:df:9d:6b:d8:
                    3b:1d:61:9c:fd:1b:06:2d:db:b2:6d:3b:0b:91:09:
                    4d:b5:14:58:a9:97:27:8d:06:f6:63:5f:29:28:56:
                    f6:6d:89:1c:4c:58:22:ae:00:50:5a:22:ca:f3:46:
                    21:a7:eb
                Exponent: 65537 (0x10001)
        X509v3 extensions:
            X509v3 Key Usage: critical
                Digital Signature, Key Encipherment
            X509v3 Basic Constraints: 
                CA:FALSE
            X509v3 Extended Key Usage: 
                TLS Web Server Authentication, TLS Web Client Authentication
            X509v3 Subject Key Identifier: 
                BF:B6:2C:08:8C:33:C4:C3:51:C6:66:81:CC:84:21:A3:8A:4F:E4:87
            X509v3 Authority Key Identifier: 
                keyid:CC:B0:B8:BC:D8:35:9B:94:9B:C9:52:8E:84:33:E7:D3:46:B9:14:ED

            Authority Information Access: 
                CA Issuers - URI:http://nitpicksy.no/ca/tls-ca.cer

            X509v3 CRL Distribution Points: 

                Full Name:
                  URI:http://nitpicksy.no/ca/tls-ca.crl

            X509v3 Subject Alternative Name: 
                DNS:nitpicksy.no, DNS:www.nitpicksy.no, DNS:localhost, IP Address:127.0.0.1
    Signature Algorithm: sha256WithRSAEncryption
         31:ab:4f:df:8a:d5:64:a9:5a:f4:0e:09:a5:c2:bd:bb:29:4b:
         eb:05:dd:d6:05:04:c6:88:51:a9:e6:8e:ae:db:72:e6:db:77:
         0a:19:ac:1e:ea:ea:ab:52:28:b8:16:2a:37:6a:34:e6:86:1b:
         9b:1f:59:14:f3:bb:fe:9b:24:1a:ef:01:4f:d8:b0:fe:63:c1:
         79:8f:5a:26:e4:e5:6c:ee:13:c5:96:d1:75:95:87:41:43:a8:
         8a:da:ef:78:a6:33:00:7a:f2:fb:cb:93:db:76:23:cb:3d:23:
         96:da:de:80:3f:98:ea:9b:e9:74:c5:15:8d:72:17:f2:26:93:
         f7:b4:54:c0:03:8e:6b:15:23:ce:e8:7c:f8:77:2c:18:92:c8:
         61:f6:f7:44:75:e1:e0:2c:ca:4e:20:09:59:92:e0:5f:17:cc:
         c1:1f:14:2b:66:17:a8:df:97:62:b1:52:c9:46:0f:4c:2c:af:
         93:35:9e:ea:2c:bc:31:51:8a:fe:00:88:55:ce:1f:f5:3d:67:
         3f:9d:e3:43:a9:bc:de:72:38:11:79:a9:2d:28:09:cd:02:88:
         e9:c2:93:70:ee:fa:eb:33:4f:6c:3a:04:cd:1a:51:91:12:4f:
         94:6a:17:c4:46:7a:92:e9:62:51:26:06:98:6c:f0:de:f9:c8:
         65:f5:ba:42:a5:83:fd:27:08:d4:77:79:8a:29:75:9e:f9:a0:
         c8:29:de:c4:6e:6f:ce:53:c0:fc:54:bb:db:e3:13:4b:4b:a1:
         0d:d4:71:8e:1e:38:bd:9e:c1:3b:05:1a:28:0d:a0:2f:1a:f7:
         26:57:a9:7a:55:76:c4:11:5e:12:55:1e:f3:63:0e:4a:97:5b:
         15:f3:db:51:5d:bf:01:6d:b5:49:e7:a4:90:f0:71:75:f6:1e:
         d9:6b:75:6b:bc:c2:79:d0:8e:d1:e6:00:82:a5:10:91:89:77:
         29:a3:0e:34:c6:62:52:9f:b9:d3:0f:4f:8c:e0:37:38:b9:10:
         8f:cf:8d:0d:6f:5d:29:fc:77:4a:4b:18:fa:a3:3a:90:2e:ce:
         44:74:35:ea:84:88:e5:24:4c:af:1f:02:36:53:c6:e6:0e:6f:
         f1:76:7d:9e:49:f1:f4:0f:80:89:00:38:19:b5:52:2c:0c:3a:
         bd:9a:63:f7:ed:56:e2:2d:7e:93:45:d5:b6:11:0e:5b:42:75:
         39:fc:78:49:6a:2c:de:80:c7:c2:40:9e:11:da:46:30:96:a9:
         89:81:c0:4e:e4:5a:19:e4:ee:2d:49:02:e3:57:fc:4f:d8:38:
         62:3e:7f:53:a6:3f:db:12:5e:f7:c1:4a:37:03:40:09:9b:d3:
         4f:0c:ac:49:55:6e:d0:01
-----BEGIN CERTIFICATE-----
MIIGiDCCBHCgAwIBAgIUcoEl3xu/F69ceoPOxLOBMgsja7YwDQYJKoZIhvcNAQEL
BQAwZjELMAkGA1UEBhMCTk8xEjAQBgNVBAoMCU5pdHBpY2tzeTEoMCYGA1UECwwf
Tml0cGlja3N5IENlcnRpZmljYXRlIEF1dGhvcml0eTEZMBcGA1UEAwwQTml0cGlj
a3N5IFRMUyBDQTAeFw0yMDEyMTEyMDM2NTBaFw0yMjEyMTEyMDM2NTBaMGUxCzAJ
BgNVBAYTAk5PMRIwEAYDVQQKDAlOaXRwaWNrc3kxKDAmBgNVBAsMH05pdHBpY2tz
eSBDZXJ0aWZpY2F0ZSBBdXRob3JpdHkxGDAWBgNVBAMMD1BheW1lbnQgR2F0ZXdh
eTCCAiIwDQYJKoZIhvcNAQEBBQADggIPADCCAgoCggIBALifPtf5Zyf+HVYOc7rr
pjueEPsNnIR7X+6uecluLjaJW3aLMdEVocLBvVFfNDyHwdh6BdlT95BH7dn2StfB
27pdvUgZ7BSfqGXZY6vIS4gD4frZAdFVpaPGlYIdM03/N2oRd08PK91wwtOPLIuR
aGiTv4imMMPcAUmzXXZJFnq0+vm+hrTfEkh8/avgejVPRbp/sDW5Q6XD97HTGSaI
2kE9cxSnNcHJZaoMX/7UhwhHG8OHxA3s93gRGkxlIaUh6YUoJFI4+IXk7jGCuY+X
XqTCzyw5+P5KClLx2VaCHwzEf4QeW3cJgLG9HJw4/UkvvSAcdiR9h+1+zARmZsjA
CCQpJ6y9tMzMe9QJGHxj40MGncVhb3bo7MenTaCcUGqdLvUmIn0KhVlZLjvJl7Lt
xK2g0aznPDyXh41MwlKNGawLehV/Q3Xjl+9kYPf41iKwfBCgHhNJQahwJhzXHsRa
OJZou5y34wiQsz5jx0sON/55q+9zly2MJ4CLwm4qWPRu3ym9AOY0iYb5+7OGKYEJ
/FTMQvYeg8eD4Q42aSEK6kN7xgZ3Ia5PQgWb90ofzRtsqM5P5/hg7f6EV9BDxSVX
pD2pj6e+xRA/wK8tSk7fnWvYOx1hnP0bBi3bsm07C5EJTbUUWKmXJ40G9mNfKShW
9m2JHExYIq4AUFoiyvNGIafrAgMBAAGjggEtMIIBKTAOBgNVHQ8BAf8EBAMCBaAw
CQYDVR0TBAIwADAdBgNVHSUEFjAUBggrBgEFBQcDAQYIKwYBBQUHAwIwHQYDVR0O
BBYEFL+2LAiMM8TDUcZmgcyEIaOKT+SHMB8GA1UdIwQYMBaAFMywuLzYNZuUm8lS
joQz59NGuRTtMD0GCCsGAQUFBwEBBDEwLzAtBggrBgEFBQcwAoYhaHR0cDovL25p
dHBpY2tzeS5uby9jYS90bHMtY2EuY2VyMDIGA1UdHwQrMCkwJ6AloCOGIWh0dHA6
Ly9uaXRwaWNrc3kubm8vY2EvdGxzLWNhLmNybDA6BgNVHREEMzAxggxuaXRwaWNr
c3kubm+CEHd3dy5uaXRwaWNrc3kubm+CCWxvY2FsaG9zdIcEfwAAATANBgkqhkiG
9w0BAQsFAAOCAgEAMatP34rVZKla9A4JpcK9uylL6wXd1gUExohRqeaOrtty5tt3
ChmsHurqq1IouBYqN2o05oYbmx9ZFPO7/pskGu8BT9iw/mPBeY9aJuTlbO4TxZbR
dZWHQUOoitrveKYzAHry+8uT23Yjyz0jltregD+Y6pvpdMUVjXIX8iaT97RUwAOO
axUjzuh8+HcsGJLIYfb3RHXh4CzKTiAJWZLgXxfMwR8UK2YXqN+XYrFSyUYPTCyv
kzWe6iy8MVGK/gCIVc4f9T1nP53jQ6m83nI4EXmpLSgJzQKI6cKTcO766zNPbDoE
zRpRkRJPlGoXxEZ6kuliUSYGmGzw3vnIZfW6QqWD/ScI1Hd5iil1nvmgyCnexG5v
zlPA/FS72+MTS0uhDdRxjh44vZ7BOwUaKA2gLxr3JlepelV2xBFeElUe82MOSpdb
FfPbUV2/AW21SeekkPBxdfYe2Wt1a7zCedCO0eYAgqUQkYl3KaMONMZiUp+50w9P
jOA3OLkQj8+NDW9dKfx3SksY+qM6kC7ORHQ16oSI5SRMrx8CNlPG5g5v8XZ9nknx
9A+AiQA4GbVSLAw6vZpj9+1W4i1+k0XVthEOW0J1Ofx4SWos3oDHwkCeEdpGMJap
iYHATuRaGeTuLUkC41f8T9g4Yj5/U6Y/2xJe98FKNwNACZvTTwysSVVu0AE=
-----END CERTIFICATE-----
