Certificate:
    Data:
        Version: 3 (0x2)
        Serial Number:
            75:aa:65:7a:f5:bd:6c:ad:da:0b:a1:bb:f7:ec:8b:5a:d6:d4:74:ac
        Signature Algorithm: sha256WithRSAEncryption
        Issuer: C=NO, O=Nitpicksy, OU=Nitpicksy Certificate Authority, CN=Nitpicksy TLS CA
        Validity
            Not Before: Dec 11 23:35:53 2020 GMT
            Not After : Dec 11 23:35:53 2022 GMT
        Subject: C=NO, O=Nitpicksy, OU=Nitpicksy Certificate Authority, CN=Eureka
        Subject Public Key Info:
            Public Key Algorithm: rsaEncryption
                RSA Public-Key: (4096 bit)
                Modulus:
                    00:bc:45:ee:6a:9d:42:8f:ce:4a:b4:64:73:2a:f8:
                    2b:ba:65:ba:e1:2c:2d:f4:94:a5:71:13:ee:91:13:
                    81:67:1c:16:3e:fa:36:4c:24:87:8e:68:25:71:28:
                    d3:e9:96:27:30:2c:d0:5e:35:9d:78:e5:6f:51:21:
                    19:0d:cf:fd:64:d2:82:1e:21:1a:52:dd:ea:4f:bd:
                    df:ae:91:45:34:fe:fd:f5:ba:7f:5d:1d:c2:03:fe:
                    bf:b8:3c:b5:21:07:15:32:84:52:32:37:c2:f1:64:
                    03:35:15:97:93:bb:a7:03:5b:7e:8c:b5:64:ed:74:
                    50:60:2e:39:4b:5f:b1:db:0b:ed:2c:fa:cd:e0:7f:
                    5a:ea:5b:a4:3d:c2:9e:cd:3e:e5:f6:24:a6:6d:cc:
                    39:ee:37:52:c2:b5:2d:a5:c6:53:84:01:14:16:6d:
                    ed:de:d8:16:3d:12:3d:a6:2b:96:cd:bf:81:0f:e9:
                    54:ad:5e:6b:0b:eb:04:90:55:bc:b8:ff:4f:91:63:
                    45:7e:a8:18:39:43:29:07:08:46:56:0f:17:a7:15:
                    97:02:d3:ee:e2:7e:85:02:13:c4:d4:8d:3c:90:0d:
                    71:f1:ba:3a:10:16:df:44:d9:26:7a:45:c2:53:41:
                    13:da:0c:2d:a1:cf:55:48:2b:91:a1:58:e9:c2:b5:
                    fb:9c:92:68:7e:82:ee:f2:6d:d6:68:17:a9:95:ec:
                    aa:15:0f:03:8c:48:fb:48:4e:bf:e3:d1:24:fb:c5:
                    30:d7:a7:51:e3:43:d0:ff:e3:b2:fe:42:f9:b5:9c:
                    1f:f5:a3:bd:79:43:ad:3e:8c:08:1e:93:ef:1d:1d:
                    ec:bd:02:9a:17:5a:f1:e1:67:bb:fa:2f:d8:c2:fc:
                    d1:35:2a:30:6d:9e:8b:71:27:d8:cf:cf:ee:77:d6:
                    61:19:dd:6b:f4:e3:4f:ab:3a:12:71:6f:da:f0:98:
                    fb:2a:6b:22:b5:b8:88:3a:02:87:c3:6a:2b:62:1c:
                    ae:06:d9:4e:af:0d:8d:8c:e6:08:de:40:f7:0f:55:
                    d2:94:86:e9:fb:6e:2d:22:15:11:ef:b7:15:32:66:
                    2e:b7:d2:0c:39:ab:51:ad:49:1a:12:ff:7e:7b:a3:
                    5d:5f:b2:2e:eb:14:58:e7:f9:87:fb:25:e3:55:07:
                    5f:15:d3:f9:9d:ae:53:3b:a1:67:6e:35:7d:5a:ab:
                    63:ce:96:dc:09:05:4a:49:c6:81:7a:4d:5b:33:dc:
                    44:de:0d:ae:5f:68:7a:51:2c:c2:39:d8:b6:81:44:
                    c3:41:2b:c6:3c:a7:0b:02:51:f6:a9:03:1d:82:2d:
                    eb:dc:e5:3d:74:0d:b5:03:59:0f:24:27:11:b3:11:
                    18:39:55
                Exponent: 65537 (0x10001)
        X509v3 extensions:
            X509v3 Key Usage: critical
                Digital Signature, Key Encipherment
            X509v3 Basic Constraints: 
                CA:FALSE
            X509v3 Extended Key Usage: 
                TLS Web Server Authentication, TLS Web Client Authentication
            X509v3 Subject Key Identifier: 
                AE:8A:2C:F1:CF:6D:31:C2:88:C0:C0:AA:64:E6:8C:94:17:A5:68:A1
            X509v3 Authority Key Identifier: 
                keyid:99:B8:0A:C6:F9:8F:63:32:21:3F:40:58:30:B1:09:38:21:F0:EA:62

            Authority Information Access: 
                CA Issuers - URI:http://nitpicksy.no/ca/tls-ca.cer

            X509v3 CRL Distribution Points: 

                Full Name:
                  URI:http://nitpicksy.no/ca/tls-ca.crl

            X509v3 Subject Alternative Name: 
                DNS:nitpicksy.no, DNS:www.nitpicksy.no, DNS:localhost, IP Address:127.0.0.1, DNS:eureka-peer1, IP Address:127.0.0.1, DNS:eureka-peer2, IP Address:127.0.0.1
    Signature Algorithm: sha256WithRSAEncryption
         cb:42:d5:50:37:aa:a5:25:cf:95:be:94:d7:b1:8d:b1:77:41:
         0b:95:1c:b9:24:76:d5:e9:49:e3:66:03:fa:28:84:78:b5:2a:
         ee:9c:c1:2e:73:51:3f:34:9d:7f:d9:31:91:d2:e6:54:de:3f:
         a3:0d:48:84:21:5c:f1:86:97:a5:46:38:40:5a:40:a0:cf:ad:
         0b:2c:78:2d:79:b6:75:84:14:8c:77:44:54:96:10:c3:fa:82:
         8b:c6:54:5e:7d:51:13:89:f3:5a:9d:ad:61:97:e9:e0:fc:ef:
         80:62:05:df:75:c5:a4:dd:6e:1a:c8:77:58:56:23:52:dc:85:
         66:3b:bc:b9:06:d7:75:12:77:6d:c9:10:e1:ad:e0:1d:ab:6a:
         8e:07:00:7a:bb:ab:c8:a9:95:8d:09:43:20:04:4b:02:fb:d1:
         9b:e5:4a:4a:73:95:f1:6b:ed:1e:43:8f:18:01:1c:4b:2a:43:
         f4:1a:b9:09:12:c6:93:14:d1:2c:38:2d:39:53:6a:dd:0f:29:
         52:4c:8f:7f:6c:e7:e0:34:1a:95:b0:0f:04:68:99:59:13:71:
         1c:85:25:52:fd:2c:44:c9:f6:77:b9:19:f9:3f:93:b4:1c:08:
         13:73:ce:22:e9:55:a8:ab:1e:11:dd:b4:a4:2b:22:90:e3:e6:
         26:e2:ba:59:77:d8:20:c0:e0:17:b3:4b:fb:4e:84:19:6c:cc:
         09:43:86:34:ce:ed:83:34:57:d4:c1:e2:e2:97:0c:de:94:03:
         22:7e:3a:5b:e6:5c:12:5e:ab:66:74:aa:ba:b0:5c:1d:13:80:
         6c:40:74:34:0b:0d:22:2f:50:55:25:cd:f7:53:21:c9:0d:9b:
         5c:ed:4d:82:2b:59:ea:4f:ea:e0:b0:01:44:ff:a4:89:60:d4:
         b6:b8:70:fc:eb:25:35:e6:7a:6a:f7:2c:2c:24:54:3f:5c:46:
         ac:67:2c:4c:f0:96:0b:25:36:8f:78:0f:ee:89:24:9d:5e:57:
         ca:90:14:13:e0:b9:be:54:ff:bc:32:11:42:99:55:b0:7d:7e:
         12:3a:f8:cc:1f:3c:ad:a7:fb:e8:06:d2:27:16:70:8d:95:e0:
         0c:68:3e:2c:92:3b:8e:62:0f:fd:18:46:39:72:e1:e4:86:9d:
         d4:51:22:4f:81:7e:60:62:8f:a4:f3:d5:d8:e4:19:16:73:12:
         cd:b5:a4:43:6f:85:17:6b:61:70:1a:57:11:68:40:fe:3e:1c:
         a3:c9:f5:cb:64:7a:3d:d7:98:d7:58:71:07:f5:6d:4a:f6:e3:
         8e:38:41:75:cc:0b:75:e6:b4:8a:64:a2:dc:be:ac:dc:a0:1b:
         b2:b6:5b:49:2a:c7:a0:f6
-----BEGIN CERTIFICATE-----
MIIGpzCCBI+gAwIBAgIUdaplevW9bK3aC6G79+yLWtbUdKwwDQYJKoZIhvcNAQEL
BQAwZjELMAkGA1UEBhMCTk8xEjAQBgNVBAoMCU5pdHBpY2tzeTEoMCYGA1UECwwf
Tml0cGlja3N5IENlcnRpZmljYXRlIEF1dGhvcml0eTEZMBcGA1UEAwwQTml0cGlj
a3N5IFRMUyBDQTAeFw0yMDEyMTEyMzM1NTNaFw0yMjEyMTEyMzM1NTNaMFwxCzAJ
BgNVBAYTAk5PMRIwEAYDVQQKDAlOaXRwaWNrc3kxKDAmBgNVBAsMH05pdHBpY2tz
eSBDZXJ0aWZpY2F0ZSBBdXRob3JpdHkxDzANBgNVBAMMBkV1cmVrYTCCAiIwDQYJ
KoZIhvcNAQEBBQADggIPADCCAgoCggIBALxF7mqdQo/OSrRkcyr4K7pluuEsLfSU
pXET7pETgWccFj76Nkwkh45oJXEo0+mWJzAs0F41nXjlb1EhGQ3P/WTSgh4hGlLd
6k+9366RRTT+/fW6f10dwgP+v7g8tSEHFTKEUjI3wvFkAzUVl5O7pwNbfoy1ZO10
UGAuOUtfsdsL7Sz6zeB/WupbpD3Cns0+5fYkpm3MOe43UsK1LaXGU4QBFBZt7d7Y
Fj0SPaYrls2/gQ/pVK1eawvrBJBVvLj/T5FjRX6oGDlDKQcIRlYPF6cVlwLT7uJ+
hQITxNSNPJANcfG6OhAW30TZJnpFwlNBE9oMLaHPVUgrkaFY6cK1+5ySaH6C7vJt
1mgXqZXsqhUPA4xI+0hOv+PRJPvFMNenUeND0P/jsv5C+bWcH/WjvXlDrT6MCB6T
7x0d7L0Cmhda8eFnu/ov2ML80TUqMG2ei3En2M/P7nfWYRnda/TjT6s6EnFv2vCY
+yprIrW4iDoCh8NqK2IcrgbZTq8NjYzmCN5A9w9V0pSG6ftuLSIVEe+3FTJmLrfS
DDmrUa1JGhL/fnujXV+yLusUWOf5h/sl41UHXxXT+Z2uUzuhZ241fVqrY86W3AkF
SknGgXpNWzPcRN4Nrl9oelEswjnYtoFEw0ErxjynCwJR9qkDHYIt69zlPXQNtQNZ
DyQnEbMRGDlVAgMBAAGjggFVMIIBUTAOBgNVHQ8BAf8EBAMCBaAwCQYDVR0TBAIw
ADAdBgNVHSUEFjAUBggrBgEFBQcDAQYIKwYBBQUHAwIwHQYDVR0OBBYEFK6KLPHP
bTHCiMDAqmTmjJQXpWihMB8GA1UdIwQYMBaAFJm4Csb5j2MyIT9AWDCxCTgh8Opi
MD0GCCsGAQUFBwEBBDEwLzAtBggrBgEFBQcwAoYhaHR0cDovL25pdHBpY2tzeS5u
by9jYS90bHMtY2EuY2VyMDIGA1UdHwQrMCkwJ6AloCOGIWh0dHA6Ly9uaXRwaWNr
c3kubm8vY2EvdGxzLWNhLmNybDBiBgNVHREEWzBZggxuaXRwaWNrc3kubm+CEHd3
dy5uaXRwaWNrc3kubm+CCWxvY2FsaG9zdIcEfwAAAYIMZXVyZWthLXBlZXIxhwR/
AAABggxldXJla2EtcGVlcjKHBH8AAAEwDQYJKoZIhvcNAQELBQADggIBAMtC1VA3
qqUlz5W+lNexjbF3QQuVHLkkdtXpSeNmA/oohHi1Ku6cwS5zUT80nX/ZMZHS5lTe
P6MNSIQhXPGGl6VGOEBaQKDPrQsseC15tnWEFIx3RFSWEMP6govGVF59UROJ81qd
rWGX6eD874BiBd91xaTdbhrId1hWI1LchWY7vLkG13USd23JEOGt4B2rao4HAHq7
q8iplY0JQyAESwL70ZvlSkpzlfFr7R5DjxgBHEsqQ/QauQkSxpMU0Sw4LTlTat0P
KVJMj39s5+A0GpWwDwRomVkTcRyFJVL9LETJ9ne5Gfk/k7QcCBNzziLpVairHhHd
tKQrIpDj5ibiull32CDA4BezS/tOhBlszAlDhjTO7YM0V9TB4uKXDN6UAyJ+Olvm
XBJeq2Z0qrqwXB0TgGxAdDQLDSIvUFUlzfdTIckNm1ztTYIrWepP6uCwAUT/pIlg
1La4cPzrJTXmemr3LCwkVD9cRqxnLEzwlgslNo94D+6JJJ1eV8qQFBPgub5U/7wy
EUKZVbB9fhI6+MwfPK2n++gG0icWcI2V4AxoPiySO45iD/0YRjly4eSGndRRIk+B
fmBij6Tz1djkGRZzEs21pENvhRdrYXAaVxFoQP4+HKPJ9ctkej3XmNdYcQf1bUr2
4444QXXMC3XmtIpkoty+rNygG7K2W0kqx6D2
-----END CERTIFICATE-----
