Certificate:
    Data:
        Version: 3 (0x2)
        Serial Number:
            76:5d:8e:eb:bc:38:38:57:27:3a:5b:7c:28:7f:8b:33:82:22:71:97
        Signature Algorithm: sha256WithRSAEncryption
        Issuer: C=NO, O=Nitpicksy, OU=Nitpicksy Certificate Authority, CN=Nitpicksy TLS CA
        Validity
            Not Before: Dec  6 21:39:36 2020 GMT
            Not After : Dec  6 21:39:36 2022 GMT
        Subject: C=NO, O=Nitpicksy, OU=Nitpicksy Certificate Authority, CN=Literary Society
        Subject Public Key Info:
            Public Key Algorithm: rsaEncryption
                RSA Public-Key: (4096 bit)
                Modulus:
                    00:a2:a2:c0:9d:36:3f:c5:79:0b:20:88:8a:9b:37:
                    f9:89:a3:27:08:1a:8b:bc:a8:9d:0b:17:57:ac:75:
                    16:1f:70:5c:84:11:9b:20:f7:43:0a:29:5b:0c:4e:
                    f0:7a:06:77:7d:ea:7d:ec:81:34:a4:7e:98:bb:0e:
                    9f:d8:33:4c:97:e8:3f:2c:9c:b7:a2:05:8f:1b:8c:
                    20:d9:24:11:53:9a:9e:0d:4f:c4:b8:a7:9d:e8:61:
                    9a:ea:df:d9:14:1a:9f:05:d3:d8:84:03:c5:61:05:
                    26:da:9e:a2:1e:7a:cc:b6:e1:7d:98:34:76:b3:f5:
                    44:58:06:7e:7b:38:c6:37:c3:7f:ad:c3:c8:c8:f2:
                    bd:03:37:e4:b9:03:c8:d5:f4:84:a6:a1:4a:2c:2b:
                    f5:fd:5e:a1:1d:45:aa:89:39:96:ae:64:aa:c7:9d:
                    22:99:a1:f3:08:40:54:0b:86:c3:38:a2:de:ac:90:
                    bb:32:0c:e4:a1:c4:a6:70:62:b4:e9:47:49:a6:10:
                    f0:84:0e:dc:50:54:32:10:cd:35:5d:83:1a:62:dd:
                    85:12:81:df:ce:e1:46:3e:da:61:fe:60:61:d8:cf:
                    cb:9d:33:70:38:5f:d8:27:72:db:9a:8f:8f:9d:f9:
                    2e:a1:46:0b:7d:7a:fd:d7:e4:9f:b9:50:61:0a:9e:
                    9f:ca:ef:15:72:2b:c9:a0:79:cc:16:be:ac:fe:20:
                    ad:02:12:cb:ef:4b:80:29:0a:72:cf:74:75:b5:4f:
                    74:eb:7f:d8:6d:e2:4e:eb:1e:ed:b9:b1:fb:aa:66:
                    47:8a:74:1c:7f:81:40:12:9b:75:6b:8c:92:44:88:
                    bb:60:e3:27:0d:da:de:a5:77:dd:87:5c:bb:95:92:
                    43:53:66:51:c8:8d:20:b1:20:28:1d:ec:e1:28:e5:
                    59:1f:1a:96:8d:b8:19:82:fb:d7:31:94:90:03:ac:
                    f5:e0:9e:b6:93:4a:fc:5a:46:93:53:2d:96:6d:ec:
                    c0:58:7b:75:3d:f4:c5:ce:d9:62:e6:6f:15:a9:bd:
                    01:9b:88:9e:11:24:b4:4c:78:f4:da:25:10:24:ca:
                    86:ae:7c:a5:ce:1f:ee:52:3c:52:13:24:b5:01:e2:
                    27:6e:01:63:e9:f6:06:2a:0d:5b:c7:d1:a9:2f:da:
                    1c:9f:b0:34:bf:28:4d:47:b6:cc:20:5b:65:56:ee:
                    bf:56:f6:65:3f:95:9e:95:de:73:54:ae:e8:d1:a2:
                    b2:eb:a4:4c:5b:07:b4:42:cd:87:70:5e:14:69:65:
                    dd:65:da:c8:5a:36:ab:08:6c:5d:f3:0c:08:45:de:
                    3c:d2:bc:27:f4:c0:f1:a1:f3:bb:01:24:9f:15:8e:
                    01:bd:d7
                Exponent: 65537 (0x10001)
        X509v3 extensions:
            X509v3 Key Usage: critical
                Digital Signature, Key Encipherment
            X509v3 Basic Constraints: 
                CA:FALSE
            X509v3 Extended Key Usage: 
                TLS Web Server Authentication, TLS Web Client Authentication
            X509v3 Subject Key Identifier: 
                A2:1F:E5:CA:35:CB:2C:91:E3:2E:16:90:A5:10:CE:1E:93:16:A0:80
            X509v3 Authority Key Identifier: 
                keyid:73:22:F9:68:31:83:E6:3A:55:0D:D5:B0:7B:20:10:F1:2E:0B:77:9F

            Authority Information Access: 
                CA Issuers - URI:http://nitpicksy.no/ca/tls-ca.cer

            X509v3 CRL Distribution Points: 

                Full Name:
                  URI:http://nitpicksy.no/ca/tls-ca.crl

            X509v3 Subject Alternative Name: 
                DNS:nitpicksy.no, DNS:www.nitpicksy.no, DNS:localhost
    Signature Algorithm: sha256WithRSAEncryption
         33:49:49:90:9e:f0:d1:12:3f:d8:fe:eb:4d:85:b3:ec:af:ad:
         00:32:c3:59:5f:bb:37:c2:8e:c7:48:9a:ff:62:7a:8b:83:7a:
         cb:1b:eb:6f:e5:a4:7f:27:a7:49:33:0c:f5:90:61:fd:62:b5:
         ec:b1:b4:29:52:cd:c7:eb:38:0c:d6:c4:43:dc:81:ec:99:fe:
         2d:38:97:9e:fc:51:5b:f2:5e:19:2d:60:d4:f9:a3:6a:a9:5a:
         85:c0:cd:2b:7b:24:c2:0a:ac:8c:73:a1:ce:32:4d:3d:39:8e:
         1a:1f:a3:c1:2e:59:2a:e7:00:93:b0:6e:09:e0:fd:c7:8e:33:
         f3:15:94:32:1b:4a:de:e7:f1:87:35:4c:69:29:1e:a1:f5:20:
         50:fe:56:74:a2:cd:e9:28:83:39:55:2c:e9:e1:ce:f9:8d:78:
         9a:f2:66:d0:c7:03:27:62:d7:49:bf:6e:95:32:00:0e:45:30:
         7c:b8:4d:c2:08:d5:19:63:a7:10:1b:da:10:37:b2:d3:e8:45:
         54:7a:ca:2d:df:8f:f9:15:2e:d6:a2:b0:94:32:15:46:f4:10:
         88:75:28:fb:26:d8:ce:bd:04:32:9e:2f:50:5f:bd:d1:6f:bb:
         e0:f0:da:fe:79:3b:d3:59:8b:8e:77:d4:a4:25:85:8d:c9:45:
         4c:df:11:d9:08:93:c8:8c:65:6e:08:c1:d0:21:f8:8b:3d:a2:
         15:94:24:8a:fe:9d:20:1f:4d:55:19:0d:03:b6:69:a3:d9:07:
         01:a5:9a:c2:e8:79:81:c7:6b:b1:55:a3:6a:a8:2f:a3:fe:0f:
         7d:c7:b1:e6:16:5c:f5:b3:f0:17:21:9f:b3:be:af:46:34:cd:
         e5:fa:af:02:6e:64:05:1a:c9:b4:31:77:4c:53:79:55:09:4b:
         af:fc:e3:03:7d:04:5b:da:fe:5b:aa:b9:3d:d2:76:76:c2:ac:
         0a:2b:96:2e:0c:4b:92:91:9b:3f:86:05:cc:50:66:7f:e5:e2:
         17:03:bb:0a:74:50:79:ad:e7:37:3b:f4:48:fe:70:e2:00:a1:
         50:38:f1:82:23:00:20:58:2b:02:8d:ae:f2:7b:83:d2:27:14:
         bb:ea:33:a7:79:8c:84:3e:fb:fc:50:95:60:59:64:0a:83:6f:
         7b:f1:3e:24:d5:54:cf:f7:2a:25:a4:c1:ae:2e:44:ad:66:c9:
         0d:97:97:34:ad:28:3c:7f:ce:a3:83:a5:71:a2:f5:50:3c:a6:
         95:ef:ef:da:55:8b:66:cf:82:25:8d:43:5d:6e:67:14:6c:cf:
         48:e5:9b:41:f0:3a:2e:20:5c:ce:d6:d7:c6:93:36:57:09:cd:
         ae:9b:66:2e:be:c6:e3:88
-----BEGIN CERTIFICATE-----
MIIGgzCCBGugAwIBAgIUdl2O67w4OFcnOlt8KH+LM4IicZcwDQYJKoZIhvcNAQEL
BQAwZjELMAkGA1UEBhMCTk8xEjAQBgNVBAoMCU5pdHBpY2tzeTEoMCYGA1UECwwf
Tml0cGlja3N5IENlcnRpZmljYXRlIEF1dGhvcml0eTEZMBcGA1UEAwwQTml0cGlj
a3N5IFRMUyBDQTAeFw0yMDEyMDYyMTM5MzZaFw0yMjEyMDYyMTM5MzZaMGYxCzAJ
BgNVBAYTAk5PMRIwEAYDVQQKDAlOaXRwaWNrc3kxKDAmBgNVBAsMH05pdHBpY2tz
eSBDZXJ0aWZpY2F0ZSBBdXRob3JpdHkxGTAXBgNVBAMMEExpdGVyYXJ5IFNvY2ll
dHkwggIiMA0GCSqGSIb3DQEBAQUAA4ICDwAwggIKAoICAQCiosCdNj/FeQsgiIqb
N/mJoycIGou8qJ0LF1esdRYfcFyEEZsg90MKKVsMTvB6Bnd96n3sgTSkfpi7Dp/Y
M0yX6D8snLeiBY8bjCDZJBFTmp4NT8S4p53oYZrq39kUGp8F09iEA8VhBSbanqIe
esy24X2YNHaz9URYBn57OMY3w3+tw8jI8r0DN+S5A8jV9ISmoUosK/X9XqEdRaqJ
OZauZKrHnSKZofMIQFQLhsM4ot6skLsyDOShxKZwYrTpR0mmEPCEDtxQVDIQzTVd
gxpi3YUSgd/O4UY+2mH+YGHYz8udM3A4X9gnctuaj4+d+S6hRgt9ev3X5J+5UGEK
np/K7xVyK8mgecwWvqz+IK0CEsvvS4ApCnLPdHW1T3Trf9ht4k7rHu25sfuqZkeK
dBx/gUASm3VrjJJEiLtg4ycN2t6ld92HXLuVkkNTZlHIjSCxICgd7OEo5VkfGpaN
uBmC+9cxlJADrPXgnraTSvxaRpNTLZZt7MBYe3U99MXO2WLmbxWpvQGbiJ4RJLRM
ePTaJRAkyoaufKXOH+5SPFITJLUB4iduAWPp9gYqDVvH0akv2hyfsDS/KE1Htswg
W2VW7r9W9mU/lZ6V3nNUrujRorLrpExbB7RCzYdwXhRpZd1l2shaNqsIbF3zDAhF
3jzSvCf0wPGh87sBJJ8VjgG91wIDAQABo4IBJzCCASMwDgYDVR0PAQH/BAQDAgWg
MAkGA1UdEwQCMAAwHQYDVR0lBBYwFAYIKwYBBQUHAwEGCCsGAQUFBwMCMB0GA1Ud
DgQWBBSiH+XKNcsskeMuFpClEM4ekxaggDAfBgNVHSMEGDAWgBRzIvloMYPmOlUN
1bB7IBDxLgt3nzA9BggrBgEFBQcBAQQxMC8wLQYIKwYBBQUHMAKGIWh0dHA6Ly9u
aXRwaWNrc3kubm8vY2EvdGxzLWNhLmNlcjAyBgNVHR8EKzApMCegJaAjhiFodHRw
Oi8vbml0cGlja3N5Lm5vL2NhL3Rscy1jYS5jcmwwNAYDVR0RBC0wK4IMbml0cGlj
a3N5Lm5vghB3d3cubml0cGlja3N5Lm5vgglsb2NhbGhvc3QwDQYJKoZIhvcNAQEL
BQADggIBADNJSZCe8NESP9j+602Fs+yvrQAyw1lfuzfCjsdImv9ieouDessb62/l
pH8np0kzDPWQYf1iteyxtClSzcfrOAzWxEPcgeyZ/i04l578UVvyXhktYNT5o2qp
WoXAzSt7JMIKrIxzoc4yTT05jhofo8EuWSrnAJOwbgng/ceOM/MVlDIbSt7n8Yc1
TGkpHqH1IFD+VnSizekogzlVLOnhzvmNeJryZtDHAydi10m/bpUyAA5FMHy4TcII
1RljpxAb2hA3stPoRVR6yi3fj/kVLtaisJQyFUb0EIh1KPsm2M69BDKeL1BfvdFv
u+Dw2v55O9NZi4531KQlhY3JRUzfEdkIk8iMZW4IwdAh+Is9ohWUJIr+nSAfTVUZ
DQO2aaPZBwGlmsLoeYHHa7FVo2qoL6P+D33HseYWXPWz8Bchn7O+r0Y0zeX6rwJu
ZAUaybQxd0xTeVUJS6/84wN9BFva/luquT3SdnbCrAorli4MS5KRmz+GBcxQZn/l
4hcDuwp0UHmt5zc79Ej+cOIAoVA48YIjACBYKwKNrvJ7g9InFLvqM6d5jIQ++/xQ
lWBZZAqDb3vxPiTVVM/3KiWkwa4uRK1myQ2XlzStKDx/zqODpXGi9VA8ppXv79pV
i2bPgiWNQ11uZxRsz0jlm0HwOi4gXM7W18aTNlcJza6bZi6+xuOI
-----END CERTIFICATE-----
