Certificate:
    Data:
        Version: 3 (0x2)
        Serial Number:
            7b:3d:cd:32:4d:d2:46:a8:31:16:4d:f8:6b:db:cd:23:ac:2c:70:57
        Signature Algorithm: sha256WithRSAEncryption
        Issuer: C=NO, O=Nitpicksy, OU=Nitpicksy Certificate Authority, CN=Nitpicksy TLS CA
        Validity
            Not Before: Dec 11 20:36:51 2020 GMT
            Not After : Dec 11 20:36:51 2022 GMT
        Subject: C=NO, O=Nitpicksy, OU=Nitpicksy Certificate Authority, CN=Paypal
        Subject Public Key Info:
            Public Key Algorithm: rsaEncryption
                RSA Public-Key: (4096 bit)
                Modulus:
                    00:9d:63:16:13:b7:cd:64:c0:b3:0d:89:8d:6f:2b:
                    21:91:14:07:82:fa:77:73:38:75:9f:8f:59:a5:e8:
                    00:f0:62:4d:b2:c1:7c:3d:ff:85:31:5a:82:16:0d:
                    06:24:0f:35:39:2e:ee:95:14:b9:8c:92:b2:bc:05:
                    74:1c:d0:eb:3e:af:09:13:54:5d:d5:3a:e6:39:11:
                    a9:31:19:f8:e7:87:90:f9:7d:b0:60:00:ae:be:2a:
                    e9:da:12:d4:73:5f:71:03:ef:2f:cd:6e:59:12:99:
                    70:a0:90:3a:35:23:0c:14:5e:d2:03:59:f7:52:2a:
                    92:28:4a:47:a6:da:86:68:ee:4e:c8:26:ed:b7:17:
                    1e:bb:ae:09:fd:42:45:bf:fc:b9:21:fc:38:ab:ed:
                    29:82:e1:99:36:f2:eb:09:64:4e:b4:d8:6b:da:a5:
                    b0:3f:69:40:5f:4d:44:46:3d:60:7d:f2:49:dc:65:
                    06:aa:d0:7c:dc:90:77:a7:02:99:96:50:37:7e:76:
                    46:b3:e4:c3:d9:fc:8f:0a:c9:ae:38:54:e3:73:41:
                    8b:46:97:e0:0a:23:d1:7d:be:11:23:3a:91:5f:06:
                    c2:4a:1e:22:8f:f9:eb:8d:84:1a:50:c9:a8:22:88:
                    63:5e:dd:02:8b:7d:4e:a2:ba:b5:1c:71:bc:bc:54:
                    8c:d2:97:1f:16:cc:47:5a:63:df:d7:c2:d2:22:e5:
                    65:2c:f4:9c:51:bd:3b:b1:06:1e:77:e9:8a:72:80:
                    56:0a:3a:f9:23:31:61:10:d9:3f:fe:27:8c:b6:34:
                    ad:a3:b5:53:fa:46:93:4a:e2:09:7b:6a:37:13:82:
                    56:75:fb:04:b2:63:40:58:c1:9e:38:38:08:47:d4:
                    c7:45:6e:33:47:5d:a8:59:08:01:39:b9:00:b4:d4:
                    c2:0b:cc:7a:4b:23:3a:c7:36:47:97:56:96:df:f5:
                    4e:04:2a:20:b9:8f:c3:f8:bf:e0:f8:b7:4f:09:9a:
                    14:09:f2:12:1a:e1:c5:f1:43:65:56:44:dc:cc:ba:
                    31:18:24:45:26:d0:ce:20:bc:b8:24:a4:d1:c8:f5:
                    c4:09:b3:7c:26:dd:5f:fe:5d:70:47:f5:38:89:80:
                    31:24:38:c9:fb:03:66:c9:4f:7f:b3:d9:32:82:d1:
                    08:2c:be:50:f4:25:45:6e:09:89:3f:ab:2d:61:97:
                    48:17:b4:43:1a:f8:cd:31:5e:b2:d7:69:4f:dc:db:
                    63:59:b8:7c:3b:1b:da:76:70:58:8b:bf:1e:cb:78:
                    92:eb:68:6d:c5:d5:f4:c6:f7:87:c3:43:d1:41:1d:
                    dd:a9:5c:5a:6b:c1:b4:a7:80:0e:33:3d:8d:c2:86:
                    ed:50:5f
                Exponent: 65537 (0x10001)
        X509v3 extensions:
            X509v3 Key Usage: critical
                Digital Signature, Key Encipherment
            X509v3 Basic Constraints: 
                CA:FALSE
            X509v3 Extended Key Usage: 
                TLS Web Server Authentication, TLS Web Client Authentication
            X509v3 Subject Key Identifier: 
                49:32:50:82:5A:25:EB:5F:76:9E:9B:89:0D:77:9D:A7:DF:50:DF:AA
            X509v3 Authority Key Identifier: 
                keyid:CC:B0:B8:BC:D8:35:9B:94:9B:C9:52:8E:84:33:E7:D3:46:B9:14:ED

            Authority Information Access: 
                CA Issuers - URI:http://nitpicksy.no/ca/tls-ca.cer

            X509v3 CRL Distribution Points: 

                Full Name:
                  URI:http://nitpicksy.no/ca/tls-ca.crl

            X509v3 Subject Alternative Name: 
                DNS:nitpicksy.no, DNS:www.nitpicksy.no, DNS:localhost, IP Address:127.0.0.1
    Signature Algorithm: sha256WithRSAEncryption
         80:bb:7d:9e:dd:1d:6e:ca:e6:98:dc:e9:9f:63:64:b3:a3:86:
         0f:d2:d2:9e:26:bc:ee:f1:ba:ad:7e:aa:a6:a8:b1:fc:05:8d:
         df:84:b4:ea:3e:3e:cc:7a:d8:0d:c4:58:da:a9:3f:05:60:63:
         c4:6e:eb:5b:10:cb:c9:ba:1a:43:b8:3a:c0:08:9a:c8:a5:73:
         b1:87:52:b3:70:23:7d:80:68:10:31:03:15:d6:d5:49:90:98:
         ec:e6:09:93:63:44:b7:46:d9:33:b9:96:6a:90:0a:73:64:2a:
         ba:ff:92:70:a9:d4:c1:b3:92:bf:ef:c0:e8:86:10:55:70:d0:
         72:39:05:3c:d6:43:7b:a3:9c:b6:cf:da:e8:51:66:1e:03:08:
         33:48:74:ed:23:d4:ac:12:c5:98:8d:e9:ca:24:6a:7d:00:55:
         c3:e7:9f:d6:10:36:a4:f5:ab:67:f6:d5:48:03:cc:8a:0f:dd:
         cb:7a:45:26:fd:4f:a4:0d:80:bf:4a:a3:58:af:ce:86:59:03:
         c7:59:b7:42:24:28:22:47:2a:d1:31:20:5e:5f:35:b1:f2:1d:
         cc:ff:22:3b:16:19:a4:12:79:01:c4:51:4a:ed:cf:0e:b9:09:
         bd:e1:78:53:52:2f:b8:6d:1d:e8:41:39:4d:28:76:b3:6f:ca:
         9f:d1:a6:5f:43:06:e6:46:18:9a:41:47:20:f6:5d:15:f5:77:
         0e:0e:10:03:96:b3:95:59:c4:2c:ee:8a:8c:77:de:c5:e6:ae:
         31:7f:a7:11:ae:1a:be:e9:bd:86:80:a7:65:29:1f:38:70:06:
         51:a5:c2:e6:be:bb:7b:eb:41:4a:ef:8b:d4:8b:49:b9:9a:38:
         20:f4:52:c2:46:2a:c8:75:0e:86:bf:ba:c0:3f:9f:90:8e:95:
         f8:c9:a8:97:d7:9f:24:29:d9:c6:7b:03:eb:f8:74:f4:bd:3f:
         ec:23:25:5c:d7:49:76:07:06:b0:61:0e:4a:bc:5a:6a:f5:32:
         e8:74:b7:83:7f:41:9b:72:59:8c:ef:b7:5b:95:dd:14:4d:07:
         d9:ed:d5:5f:16:7c:51:e4:20:b3:74:29:61:c0:d5:48:69:5b:
         34:94:4f:34:2a:bd:9a:66:81:d6:6c:4a:1d:1f:d3:86:96:7b:
         b3:af:92:6c:88:a5:97:7a:26:16:b8:5b:ab:23:13:51:a6:e5:
         ac:52:4b:46:68:36:43:fe:b2:cc:34:36:ed:b8:36:ce:02:ee:
         76:9a:51:61:13:74:13:7e:d0:9f:b6:b4:23:36:00:47:69:13:
         8e:10:e3:dc:43:b6:d9:da:0a:b2:c6:0d:68:06:d2:a2:96:a7:
         45:df:02:b0:7c:db:38:5c
-----BEGIN CERTIFICATE-----
MIIGfzCCBGegAwIBAgIUez3NMk3SRqgxFk34a9vNI6wscFcwDQYJKoZIhvcNAQEL
BQAwZjELMAkGA1UEBhMCTk8xEjAQBgNVBAoMCU5pdHBpY2tzeTEoMCYGA1UECwwf
Tml0cGlja3N5IENlcnRpZmljYXRlIEF1dGhvcml0eTEZMBcGA1UEAwwQTml0cGlj
a3N5IFRMUyBDQTAeFw0yMDEyMTEyMDM2NTFaFw0yMjEyMTEyMDM2NTFaMFwxCzAJ
BgNVBAYTAk5PMRIwEAYDVQQKDAlOaXRwaWNrc3kxKDAmBgNVBAsMH05pdHBpY2tz
eSBDZXJ0aWZpY2F0ZSBBdXRob3JpdHkxDzANBgNVBAMMBlBheXBhbDCCAiIwDQYJ
KoZIhvcNAQEBBQADggIPADCCAgoCggIBAJ1jFhO3zWTAsw2JjW8rIZEUB4L6d3M4
dZ+PWaXoAPBiTbLBfD3/hTFaghYNBiQPNTku7pUUuYySsrwFdBzQ6z6vCRNUXdU6
5jkRqTEZ+OeHkPl9sGAArr4q6doS1HNfcQPvL81uWRKZcKCQOjUjDBRe0gNZ91Iq
kihKR6bahmjuTsgm7bcXHruuCf1CRb/8uSH8OKvtKYLhmTby6wlkTrTYa9qlsD9p
QF9NREY9YH3ySdxlBqrQfNyQd6cCmZZQN352RrPkw9n8jwrJrjhU43NBi0aX4Aoj
0X2+ESM6kV8GwkoeIo/5642EGlDJqCKIY17dAot9TqK6tRxxvLxUjNKXHxbMR1pj
39fC0iLlZSz0nFG9O7EGHnfpinKAVgo6+SMxYRDZP/4njLY0raO1U/pGk0riCXtq
NxOCVnX7BLJjQFjBnjg4CEfUx0VuM0ddqFkIATm5ALTUwgvMeksjOsc2R5dWlt/1
TgQqILmPw/i/4Pi3TwmaFAnyEhrhxfFDZVZE3My6MRgkRSbQziC8uCSk0cj1xAmz
fCbdX/5dcEf1OImAMSQ4yfsDZslPf7PZMoLRCCy+UPQlRW4JiT+rLWGXSBe0Qxr4
zTFestdpT9zbY1m4fDsb2nZwWIu/Hst4kutobcXV9Mb3h8ND0UEd3alcWmvBtKeA
DjM9jcKG7VBfAgMBAAGjggEtMIIBKTAOBgNVHQ8BAf8EBAMCBaAwCQYDVR0TBAIw
ADAdBgNVHSUEFjAUBggrBgEFBQcDAQYIKwYBBQUHAwIwHQYDVR0OBBYEFEkyUIJa
Jetfdp6biQ13naffUN+qMB8GA1UdIwQYMBaAFMywuLzYNZuUm8lSjoQz59NGuRTt
MD0GCCsGAQUFBwEBBDEwLzAtBggrBgEFBQcwAoYhaHR0cDovL25pdHBpY2tzeS5u
by9jYS90bHMtY2EuY2VyMDIGA1UdHwQrMCkwJ6AloCOGIWh0dHA6Ly9uaXRwaWNr
c3kubm8vY2EvdGxzLWNhLmNybDA6BgNVHREEMzAxggxuaXRwaWNrc3kubm+CEHd3
dy5uaXRwaWNrc3kubm+CCWxvY2FsaG9zdIcEfwAAATANBgkqhkiG9w0BAQsFAAOC
AgEAgLt9nt0dbsrmmNzpn2Nks6OGD9LSnia87vG6rX6qpqix/AWN34S06j4+zHrY
DcRY2qk/BWBjxG7rWxDLyboaQ7g6wAiayKVzsYdSs3AjfYBoEDEDFdbVSZCY7OYJ
k2NEt0bZM7mWapAKc2Qquv+ScKnUwbOSv+/A6IYQVXDQcjkFPNZDe6Octs/a6FFm
HgMIM0h07SPUrBLFmI3pyiRqfQBVw+ef1hA2pPWrZ/bVSAPMig/dy3pFJv1PpA2A
v0qjWK/OhlkDx1m3QiQoIkcq0TEgXl81sfIdzP8iOxYZpBJ5AcRRSu3PDrkJveF4
U1IvuG0d6EE5TSh2s2/Kn9GmX0MG5kYYmkFHIPZdFfV3Dg4QA5azlVnELO6KjHfe
xeauMX+nEa4avum9hoCnZSkfOHAGUaXC5r67e+tBSu+L1ItJuZo4IPRSwkYqyHUO
hr+6wD+fkI6V+Mmol9efJCnZxnsD6/h09L0/7CMlXNdJdgcGsGEOSrxaavUy6HS3
g39Bm3JZjO+3W5XdFE0H2e3VXxZ8UeQgs3QpYcDVSGlbNJRPNCq9mmaB1mxKHR/T
hpZ7s6+SbIill3omFrhbqyMTUablrFJLRmg2Q/6yzDQ27bg2zgLudppRYRN0E37Q
n7a0IzYAR2kTjhDj3EO22doKssYNaAbSopanRd8CsHzbOFw=
-----END CERTIFICATE-----
