Certificate:
    Data:
        Version: 3 (0x2)
        Serial Number:
            7b:aa:86:d7:2d:cc:5c:ce:e4:32:89:0d:39:e5:58:3b:e4:c7:fb:c0
        Signature Algorithm: sha256WithRSAEncryption
        Issuer: C=NO, O=Nitpicksy, OU=Nitpicksy Certificate Authority, CN=Nitpicksy TLS CA
        Validity
            Not Before: Dec  6 22:39:35 2020 GMT
            Not After : Dec  6 22:39:35 2022 GMT
        Subject: C=NO, O=Nitpicksy, OU=Nitpicksy Certificate Authority, CN=Eureka
        Subject Public Key Info:
            Public Key Algorithm: rsaEncryption
                RSA Public-Key: (4096 bit)
                Modulus:
                    00:d9:5e:de:1d:91:5b:37:0c:f7:b0:db:1a:a2:75:
                    f4:05:f8:f5:b4:3e:1b:86:9c:fe:02:0c:2d:32:55:
                    b3:45:f9:de:99:53:34:6a:dd:56:6c:e7:22:60:f4:
                    5d:ab:b2:e2:fd:1b:f1:ca:72:bf:e8:1a:61:af:94:
                    da:9a:07:3f:2a:b0:a2:62:bb:24:30:e0:9a:88:ad:
                    b9:9b:88:5b:34:f8:3f:11:59:fb:6e:00:23:17:42:
                    69:cc:de:c3:90:19:7e:a3:fc:84:83:80:cc:53:ba:
                    53:8a:02:1b:f3:9d:cc:af:4e:ae:47:9f:58:f6:5d:
                    6d:d1:df:74:b7:09:09:04:20:db:2f:70:6c:68:ec:
                    e7:e8:ce:ab:cb:6d:91:c3:11:4c:06:3f:94:b4:80:
                    dd:8f:c8:c0:3a:51:09:48:c7:47:ef:86:62:f2:ac:
                    a2:28:5b:d4:89:f9:ce:38:8a:57:27:d1:ba:ec:88:
                    f1:25:9c:06:c5:db:72:ac:65:76:ba:89:ce:bb:53:
                    1d:ef:b4:69:c8:71:79:69:44:8c:2b:9a:d9:ab:bc:
                    64:87:b9:ce:dd:a6:ca:40:d3:e8:85:42:00:ca:37:
                    06:4b:ef:d2:74:39:b3:bd:6b:b6:59:f3:70:a6:b3:
                    72:78:d3:99:b5:79:bc:fe:9f:ff:18:94:c9:d5:f1:
                    68:b1:6a:84:d2:ed:a6:2e:7b:fe:32:c2:71:ae:15:
                    c5:6a:37:6d:fd:53:50:dc:3e:af:53:25:24:2c:69:
                    bf:4d:ab:4d:ea:f3:10:ed:92:3f:fb:f0:28:7e:6f:
                    fc:c8:69:62:60:c4:ce:3f:9f:59:fb:72:e5:41:82:
                    2d:33:2e:c6:d2:a6:ba:0d:c0:98:f8:93:85:cc:52:
                    85:d5:6b:c1:32:e6:17:1b:9e:e2:17:af:52:f9:e5:
                    22:48:5d:f7:90:a0:13:14:45:26:91:db:f6:82:e4:
                    89:48:66:8f:2b:86:9b:07:98:96:95:47:39:55:a2:
                    3b:2f:2e:b9:30:ef:46:d6:e2:87:56:fa:95:4b:1c:
                    eb:60:11:94:5c:d3:2c:58:62:1c:59:2d:d2:14:2d:
                    34:7c:63:5b:f7:f4:e4:ec:5b:22:21:79:ab:7e:bb:
                    d0:61:44:1b:76:34:0d:15:09:99:3c:70:8d:44:e0:
                    43:f8:48:21:11:9e:56:bd:cd:11:b0:7e:22:fd:e4:
                    2c:cf:2f:c7:44:88:fa:7f:56:cb:ea:ed:dc:b3:91:
                    87:91:d2:69:0a:4f:12:5b:8b:8f:5c:bc:af:48:7f:
                    19:86:5c:0a:1f:cf:7c:fa:e9:1b:89:ef:40:b5:fc:
                    d1:e5:1c:b7:da:1e:27:c2:66:b3:32:bb:72:f4:59:
                    09:15:91
                Exponent: 65537 (0x10001)
        X509v3 extensions:
            X509v3 Key Usage: critical
                Digital Signature, Key Encipherment
            X509v3 Basic Constraints: 
                CA:FALSE
            X509v3 Extended Key Usage: 
                TLS Web Server Authentication, TLS Web Client Authentication
            X509v3 Subject Key Identifier: 
                20:9C:D3:E6:8D:18:EE:FB:30:30:A7:FD:D4:F6:84:E7:9F:55:80:7E
            X509v3 Authority Key Identifier: 
                keyid:83:CC:02:D6:E0:31:A6:2D:8E:F8:85:43:99:55:48:F6:21:22:90:49

            Authority Information Access: 
                CA Issuers - URI:http://nitpicksy.no/ca/tls-ca.cer

            X509v3 CRL Distribution Points: 

                Full Name:
                  URI:http://nitpicksy.no/ca/tls-ca.crl

            X509v3 Subject Alternative Name: 
                DNS:nitpicksy.no, DNS:www.nitpicksy.no, DNS:localhost
    Signature Algorithm: sha256WithRSAEncryption
         5e:34:8f:06:44:17:9f:f0:57:3f:8e:e0:f6:46:b5:b7:28:57:
         cf:eb:7f:72:06:a8:ac:ee:c0:95:1e:f3:dd:0e:47:f3:ac:ff:
         4b:0c:bc:4b:48:4e:02:5d:b4:4f:c7:8b:0c:51:3d:ca:47:8e:
         49:b3:d2:c6:8c:b3:58:14:80:28:43:77:30:4b:26:3b:25:73:
         ed:21:75:f5:52:a7:2c:13:49:91:71:4f:00:4c:87:83:0a:4f:
         ce:5b:aa:0f:a9:0d:7b:d3:bd:0a:a3:28:df:61:a7:6d:f8:39:
         2c:d3:a7:22:eb:94:ac:46:91:19:1c:c8:8b:04:ba:03:9f:e9:
         97:f7:72:36:c5:fa:f1:70:30:49:09:c5:5d:73:af:11:26:7d:
         25:fa:de:95:9a:f5:75:f1:01:fe:60:75:66:62:c2:5f:32:11:
         b7:cf:82:59:f8:40:bb:35:7a:7d:54:a0:7e:e8:50:35:4d:c1:
         74:0a:00:9b:01:75:29:5b:fc:15:aa:19:5d:01:65:68:96:31:
         ce:d9:77:eb:ac:2f:18:57:50:4e:c2:cf:ac:7e:64:13:8b:df:
         ae:ab:be:9d:2c:46:2c:56:05:c7:83:41:3c:4f:93:d1:dd:5b:
         e6:9a:94:d7:8f:29:2b:da:34:0c:c9:74:d8:fb:e8:b5:a0:da:
         71:d1:2b:ea:c4:a0:57:00:66:1b:1b:50:d2:88:b7:b8:19:f8:
         29:ac:a9:cd:c3:c2:b6:60:50:5e:54:79:6b:bd:dc:fb:63:d3:
         cb:d8:f0:24:a7:2e:e5:93:6b:67:0e:b1:ab:09:1c:fb:24:68:
         fd:04:7c:d1:81:fe:86:19:d1:a9:0a:50:1d:b2:2b:22:63:be:
         38:dc:51:44:8a:1c:3d:c5:e8:d8:87:27:49:26:77:cc:dd:d3:
         67:e8:12:81:30:4e:c5:96:5a:c6:91:b5:7c:f9:47:42:bb:a6:
         1d:34:ef:32:0c:9a:44:cc:78:17:6e:55:cb:11:9d:76:38:62:
         9c:47:94:d6:03:ae:24:b6:ed:94:ac:a5:ac:cd:ed:3b:21:8e:
         3a:c9:6f:fc:86:ba:0c:e9:ff:7c:51:c6:ab:52:bd:2f:2d:2c:
         ef:f0:92:7c:9d:ed:41:04:3d:c9:7e:08:f1:d4:77:46:f5:4a:
         fb:55:ad:ed:04:00:ca:05:4a:3b:e0:15:87:3b:93:59:79:e6:
         55:ed:5c:b7:fb:f7:01:d2:ad:89:24:c5:a1:58:cb:d3:85:d3:
         cc:d6:7e:a5:17:9e:71:7b:b1:63:b0:4d:ad:89:81:79:b6:94:
         c7:57:5f:83:58:a2:c3:e9:6b:41:46:b2:d2:55:25:9d:eb:84:
         5c:66:07:f5:dd:e6:5c:10
-----BEGIN CERTIFICATE-----
MIIGeTCCBGGgAwIBAgIUe6qG1y3MXM7kMokNOeVYO+TH+8AwDQYJKoZIhvcNAQEL
BQAwZjELMAkGA1UEBhMCTk8xEjAQBgNVBAoMCU5pdHBpY2tzeTEoMCYGA1UECwwf
Tml0cGlja3N5IENlcnRpZmljYXRlIEF1dGhvcml0eTEZMBcGA1UEAwwQTml0cGlj
a3N5IFRMUyBDQTAeFw0yMDEyMDYyMjM5MzVaFw0yMjEyMDYyMjM5MzVaMFwxCzAJ
BgNVBAYTAk5PMRIwEAYDVQQKDAlOaXRwaWNrc3kxKDAmBgNVBAsMH05pdHBpY2tz
eSBDZXJ0aWZpY2F0ZSBBdXRob3JpdHkxDzANBgNVBAMMBkV1cmVrYTCCAiIwDQYJ
KoZIhvcNAQEBBQADggIPADCCAgoCggIBANle3h2RWzcM97DbGqJ19AX49bQ+G4ac
/gIMLTJVs0X53plTNGrdVmznImD0Xauy4v0b8cpyv+gaYa+U2poHPyqwomK7JDDg
moituZuIWzT4PxFZ+24AIxdCaczew5AZfqP8hIOAzFO6U4oCG/OdzK9OrkefWPZd
bdHfdLcJCQQg2y9wbGjs5+jOq8ttkcMRTAY/lLSA3Y/IwDpRCUjHR++GYvKsoihb
1In5zjiKVyfRuuyI8SWcBsXbcqxldrqJzrtTHe+0achxeWlEjCua2au8ZIe5zt2m
ykDT6IVCAMo3Bkvv0nQ5s71rtlnzcKazcnjTmbV5vP6f/xiUydXxaLFqhNLtpi57
/jLCca4VxWo3bf1TUNw+r1MlJCxpv02rTerzEO2SP/vwKH5v/MhpYmDEzj+fWfty
5UGCLTMuxtKmug3AmPiThcxShdVrwTLmFxue4hevUvnlIkhd95CgExRFJpHb9oLk
iUhmjyuGmweYlpVHOVWiOy8uuTDvRtbih1b6lUsc62ARlFzTLFhiHFkt0hQtNHxj
W/f05OxbIiF5q3670GFEG3Y0DRUJmTxwjUTgQ/hIIRGeVr3NEbB+Iv3kLM8vx0SI
+n9Wy+rt3LORh5HSaQpPEluLj1y8r0h/GYZcCh/PfPrpG4nvQLX80eUct9oeJ8Jm
szK7cvRZCRWRAgMBAAGjggEnMIIBIzAOBgNVHQ8BAf8EBAMCBaAwCQYDVR0TBAIw
ADAdBgNVHSUEFjAUBggrBgEFBQcDAQYIKwYBBQUHAwIwHQYDVR0OBBYEFCCc0+aN
GO77MDCn/dT2hOefVYB+MB8GA1UdIwQYMBaAFIPMAtbgMaYtjviFQ5lVSPYhIpBJ
MD0GCCsGAQUFBwEBBDEwLzAtBggrBgEFBQcwAoYhaHR0cDovL25pdHBpY2tzeS5u
by9jYS90bHMtY2EuY2VyMDIGA1UdHwQrMCkwJ6AloCOGIWh0dHA6Ly9uaXRwaWNr
c3kubm8vY2EvdGxzLWNhLmNybDA0BgNVHREELTArggxuaXRwaWNrc3kubm+CEHd3
dy5uaXRwaWNrc3kubm+CCWxvY2FsaG9zdDANBgkqhkiG9w0BAQsFAAOCAgEAXjSP
BkQXn/BXP47g9ka1tyhXz+t/cgaorO7AlR7z3Q5H86z/Swy8S0hOAl20T8eLDFE9
ykeOSbPSxoyzWBSAKEN3MEsmOyVz7SF19VKnLBNJkXFPAEyHgwpPzluqD6kNe9O9
CqMo32Gnbfg5LNOnIuuUrEaRGRzIiwS6A5/pl/dyNsX68XAwSQnFXXOvESZ9Jfre
lZr1dfEB/mB1ZmLCXzIRt8+CWfhAuzV6fVSgfuhQNU3BdAoAmwF1KVv8FaoZXQFl
aJYxztl366wvGFdQTsLPrH5kE4vfrqu+nSxGLFYFx4NBPE+T0d1b5pqU148pK9o0
DMl02PvotaDacdEr6sSgVwBmGxtQ0oi3uBn4KaypzcPCtmBQXlR5a73c+2PTy9jw
JKcu5ZNrZw6xqwkc+yRo/QR80YH+hhnRqQpQHbIrImO+ONxRRIocPcXo2IcnSSZ3
zN3TZ+gSgTBOxZZaxpG1fPlHQrumHTTvMgyaRMx4F25VyxGddjhinEeU1gOuJLbt
lKylrM3tOyGOOslv/Ia6DOn/fFHGq1K9Ly0s7/CSfJ3tQQQ9yX4I8dR3RvVK+1Wt
7QQAygVKO+AVhzuTWXnmVe1ct/v3AdKtiSTFoVjL04XTzNZ+pReecXuxY7BNrYmB
ebaUx1dfg1iiw+lrQUay0lUlneuEXGYH9d3mXBA=
-----END CERTIFICATE-----
