Certificate:
    Data:
        Version: 3 (0x2)
        Serial Number:
            7c:34:c6:6b:9d:d9:08:3e:ad:cf:dd:f5:08:78:33:fc:83:33:4f:a7
        Signature Algorithm: sha256WithRSAEncryption
        Issuer: C=NO, O=Nitpicksy, OU=Nitpicksy Certificate Authority, CN=Nitpicksy TLS CA
        Validity
            Not Before: Dec  6 21:59:48 2020 GMT
            Not After : Dec  6 21:59:48 2022 GMT
        Subject: C=NO, O=Nitpicksy Client AS, OU=Nitpicksy Certificate Authority, CN=Nitpicksy Client
        Subject Public Key Info:
            Public Key Algorithm: rsaEncryption
                RSA Public-Key: (4096 bit)
                Modulus:
                    00:a5:52:ad:68:c6:52:e4:85:52:16:f1:30:d9:14:
                    bd:6b:5b:91:ce:c5:59:2c:d8:8b:f2:cb:81:52:c6:
                    60:a1:e8:1a:71:e8:44:36:59:29:71:b8:c1:d6:ea:
                    98:ce:fa:4a:d5:8f:c1:27:86:f4:24:1e:e3:8e:67:
                    b3:81:23:dd:37:01:b2:06:21:8c:4d:92:7f:e7:b9:
                    e8:4a:a9:d5:56:cb:3b:5f:1b:ce:4e:1f:23:9c:12:
                    43:9d:09:57:62:8d:81:ce:3c:4c:37:d5:75:46:c2:
                    62:9c:3d:d4:b6:eb:80:ba:60:0f:4d:52:75:45:88:
                    ac:65:47:9a:a3:1b:02:70:d5:16:a3:02:9c:7e:32:
                    cc:88:35:ea:8b:ee:d6:90:03:cd:68:5e:e9:96:8f:
                    fd:55:a4:7a:7a:2d:5e:1e:b8:f8:89:7e:26:39:41:
                    63:6f:a2:30:6b:45:af:82:1b:6f:40:ee:24:c9:3a:
                    86:b4:36:31:28:a6:c5:f0:69:78:b0:0b:7f:ef:7c:
                    88:73:cc:b4:4f:e6:82:aa:ba:7e:08:fe:87:1f:e4:
                    c3:af:51:6b:b4:56:12:3a:dd:04:5e:50:df:d0:ac:
                    f7:5c:5b:c3:5b:e7:4c:00:67:62:49:d1:e9:e2:87:
                    f3:b7:a1:c3:6d:45:fa:ab:5e:c0:7d:b2:03:8e:64:
                    e4:0d:5a:ff:28:d8:1d:8b:e7:e8:2e:32:4e:9d:34:
                    a2:3a:35:df:9f:18:4c:b8:03:82:89:7c:b6:79:cd:
                    5a:6f:c6:9e:5b:8c:ca:39:6e:99:ed:16:8e:ce:0c:
                    07:0a:31:a5:74:79:91:9a:ea:22:e1:65:87:99:e5:
                    74:a6:6d:18:46:e1:9e:09:ca:82:06:80:7d:3f:8f:
                    ad:3f:12:3f:ad:82:e3:a3:94:6a:57:dc:25:9a:ba:
                    58:ab:7d:a8:9c:36:ba:c4:75:64:f7:02:72:e0:76:
                    2f:e9:c7:ea:1c:ca:e9:ba:14:91:77:a9:62:cf:99:
                    26:ce:63:d0:82:1a:63:fa:45:ef:6d:fd:a4:e9:65:
                    a4:8d:d8:f9:b5:02:81:3b:a8:98:02:3a:17:cf:15:
                    e2:a7:d7:74:4c:a2:e5:2b:8c:60:7c:cd:20:69:c6:
                    71:4a:f7:6d:52:a2:1b:db:84:e7:aa:ff:e1:7b:77:
                    11:50:55:c0:70:02:cb:3a:c2:05:2e:25:50:74:9e:
                    96:67:05:f0:0e:4d:cd:ba:b3:76:db:72:08:7c:7e:
                    bc:09:0a:1e:49:f4:e2:e7:31:6f:27:90:b5:43:3f:
                    ed:7a:a0:ae:7c:30:d0:51:62:4f:1a:88:c8:fe:ef:
                    b6:5b:b6:61:2c:ad:9a:78:53:b1:33:4a:53:68:22:
                    e2:6d:83
                Exponent: 65537 (0x10001)
        X509v3 extensions:
            X509v3 Key Usage: critical
                Digital Signature
            X509v3 Basic Constraints: 
                CA:FALSE
            X509v3 Extended Key Usage: 
                TLS Web Client Authentication
            X509v3 Subject Key Identifier: 
                5E:83:AB:6D:53:D8:AE:08:C8:29:E5:73:C4:FB:DB:BA:30:A6:B0:95
            X509v3 Authority Key Identifier: 
                keyid:F8:9E:02:FC:4A:0D:42:21:E6:18:5C:50:21:68:5A:34:79:23:14:65

            Authority Information Access: 
                CA Issuers - URI:http://nitpicksy.no/ca/tls-ca.cer

            X509v3 CRL Distribution Points: 

                Full Name:
                  URI:http://nitpicksy.no/ca/tls-ca.crl

    Signature Algorithm: sha256WithRSAEncryption
         8c:bd:e0:00:b2:55:cf:eb:ad:9d:d6:73:63:57:03:d1:c0:04:
         6d:ba:b6:3a:dd:cd:72:e7:ed:fd:fc:80:1a:43:88:47:4f:6e:
         5e:2c:0a:c2:c7:c7:9e:c1:7d:2b:26:db:c3:41:00:86:49:38:
         f2:d3:07:c8:07:ef:0a:78:93:43:8b:25:4f:73:42:7e:c3:c1:
         b3:f7:2e:69:49:d4:c8:32:82:56:15:bc:16:8d:15:7d:b1:c3:
         26:d1:36:ad:12:a6:08:d2:a7:c3:6d:e8:82:d9:2a:e8:7f:1b:
         8d:d8:21:57:87:3f:f1:5d:ce:1b:04:d6:fe:4c:70:a8:0b:78:
         54:75:97:d9:03:56:12:13:a5:9e:bc:b7:6b:84:e5:a6:dc:f2:
         64:95:5f:c3:4a:cd:0f:a0:b9:91:2c:7d:8c:3a:29:2d:c6:3e:
         0a:25:80:c8:6b:10:ec:21:e2:b6:19:c8:bf:95:84:e2:1d:59:
         1c:a2:47:f4:f8:32:e0:0b:2f:f8:01:4e:32:3e:8a:0d:03:87:
         95:ca:bb:8a:a2:50:00:02:46:2c:5f:8c:9e:7f:13:ac:e0:96:
         34:c8:9d:89:9b:ce:43:5e:9c:19:70:94:ea:17:d4:fc:ba:8a:
         9d:6e:2e:50:6e:20:dc:2e:b5:95:89:dc:ad:23:cd:b0:01:54:
         9f:c6:be:86:17:c8:27:81:29:58:42:15:79:6d:1d:9f:1a:67:
         7d:0f:c9:83:bd:d0:3c:ed:50:e7:c0:5f:a6:e1:3c:e3:72:9b:
         21:99:89:df:88:e3:b0:78:47:3a:14:39:11:f2:f5:ab:9b:39:
         77:81:b5:93:fc:17:4d:46:13:d1:1c:59:66:3b:66:f6:b0:10:
         72:f5:04:00:48:f9:4a:af:bf:25:26:8a:bf:3b:e8:ae:3e:f4:
         d5:2a:0a:88:8c:64:d3:56:0d:1b:7b:83:78:0c:7a:35:fd:1d:
         ad:0a:28:32:d8:e7:8d:e1:76:c1:e6:66:c2:28:a5:62:65:b4:
         e0:38:d5:25:36:71:69:e3:ca:14:3a:ea:cc:62:a7:71:95:b0:
         f0:c8:3a:7b:cf:97:db:69:d2:7a:22:41:d8:45:49:4e:df:42:
         a9:45:ab:60:b5:60:da:63:a1:0e:c8:42:65:64:4e:86:a4:c2:
         c1:6c:68:c0:92:bc:b5:9c:81:17:e2:18:d5:cf:f8:ec:0b:13:
         c3:09:89:94:8d:b3:4e:9d:4e:ef:ad:d5:3c:ed:c9:23:f3:99:
         f3:f4:1d:c2:ec:42:e0:49:70:02:85:0d:ca:46:b6:1a:24:4a:
         2a:b5:42:6d:61:3d:69:af:c3:2d:0d:1c:f4:c0:55:2e:f5:13:
         05:4a:85:dc:47:f0:ac:d5
-----BEGIN CERTIFICATE-----
MIIGSzCCBDOgAwIBAgIUfDTGa53ZCD6tz931CHgz/IMzT6cwDQYJKoZIhvcNAQEL
BQAwZjELMAkGA1UEBhMCTk8xEjAQBgNVBAoMCU5pdHBpY2tzeTEoMCYGA1UECwwf
Tml0cGlja3N5IENlcnRpZmljYXRlIEF1dGhvcml0eTEZMBcGA1UEAwwQTml0cGlj
a3N5IFRMUyBDQTAeFw0yMDEyMDYyMTU5NDhaFw0yMjEyMDYyMTU5NDhaMHAxCzAJ
BgNVBAYTAk5PMRwwGgYDVQQKDBNOaXRwaWNrc3kgQ2xpZW50IEFTMSgwJgYDVQQL
DB9OaXRwaWNrc3kgQ2VydGlmaWNhdGUgQXV0aG9yaXR5MRkwFwYDVQQDDBBOaXRw
aWNrc3kgQ2xpZW50MIICIjANBgkqhkiG9w0BAQEFAAOCAg8AMIICCgKCAgEApVKt
aMZS5IVSFvEw2RS9a1uRzsVZLNiL8suBUsZgoegacehENlkpcbjB1uqYzvpK1Y/B
J4b0JB7jjmezgSPdNwGyBiGMTZJ/57noSqnVVss7XxvOTh8jnBJDnQlXYo2BzjxM
N9V1RsJinD3UtuuAumAPTVJ1RYisZUeaoxsCcNUWowKcfjLMiDXqi+7WkAPNaF7p
lo/9VaR6ei1eHrj4iX4mOUFjb6Iwa0WvghtvQO4kyTqGtDYxKKbF8Gl4sAt/73yI
c8y0T+aCqrp+CP6HH+TDr1FrtFYSOt0EXlDf0Kz3XFvDW+dMAGdiSdHp4ofzt6HD
bUX6q17AfbIDjmTkDVr/KNgdi+foLjJOnTSiOjXfnxhMuAOCiXy2ec1ab8aeW4zK
OW6Z7RaOzgwHCjGldHmRmuoi4WWHmeV0pm0YRuGeCcqCBoB9P4+tPxI/rYLjo5Rq
V9wlmrpYq32onDa6xHVk9wJy4HYv6cfqHMrpuhSRd6liz5kmzmPQghpj+kXvbf2k
6WWkjdj5tQKBO6iYAjoXzxXip9d0TKLlK4xgfM0gacZxSvdtUqIb24Tnqv/he3cR
UFXAcALLOsIFLiVQdJ6WZwXwDk3NurN223IIfH68CQoeSfTi5zFvJ5C1Qz/teqCu
fDDQUWJPGojI/u+2W7ZhLK2aeFOxM0pTaCLibYMCAwEAAaOB5jCB4zAOBgNVHQ8B
Af8EBAMCB4AwCQYDVR0TBAIwADATBgNVHSUEDDAKBggrBgEFBQcDAjAdBgNVHQ4E
FgQUXoOrbVPYrgjIKeVzxPvbujCmsJUwHwYDVR0jBBgwFoAU+J4C/EoNQiHmGFxQ
IWhaNHkjFGUwPQYIKwYBBQUHAQEEMTAvMC0GCCsGAQUFBzAChiFodHRwOi8vbml0
cGlja3N5Lm5vL2NhL3Rscy1jYS5jZXIwMgYDVR0fBCswKTAnoCWgI4YhaHR0cDov
L25pdHBpY2tzeS5uby9jYS90bHMtY2EuY3JsMA0GCSqGSIb3DQEBCwUAA4ICAQCM
veAAslXP662d1nNjVwPRwARturY63c1y5+39/IAaQ4hHT25eLArCx8eewX0rJtvD
QQCGSTjy0wfIB+8KeJNDiyVPc0J+w8Gz9y5pSdTIMoJWFbwWjRV9scMm0TatEqYI
0qfDbeiC2SrofxuN2CFXhz/xXc4bBNb+THCoC3hUdZfZA1YSE6WevLdrhOWm3PJk
lV/DSs0PoLmRLH2MOiktxj4KJYDIaxDsIeK2Gci/lYTiHVkcokf0+DLgCy/4AU4y
PooNA4eVyruKolAAAkYsX4yefxOs4JY0yJ2Jm85DXpwZcJTqF9T8uoqdbi5QbiDc
LrWVidytI82wAVSfxr6GF8gngSlYQhV5bR2fGmd9D8mDvdA87VDnwF+m4Tzjcpsh
mYnfiOOweEc6FDkR8vWrmzl3gbWT/BdNRhPRHFlmO2b2sBBy9QQASPlKr78lJoq/
O+iuPvTVKgqIjGTTVg0be4N4DHo1/R2tCigy2OeN4XbB5mbCKKViZbTgONUlNnFp
48oUOurMYqdxlbDwyDp7z5fbadJ6IkHYRUlO30KpRatgtWDaY6EOyEJlZE6GpMLB
bGjAkry1nIEX4hjVz/jsCxPDCYmUjbNOnU7vrdU87ckj85nz9B3C7ELgSXAChQ3K
RrYaJEoqtUJtYT1pr8MtDRz0wFUu9RMFSoXcR/Cs1Q==
-----END CERTIFICATE-----
