Certificate:
    Data:
        Version: 3 (0x2)
        Serial Number:
            7f:56:fd:9a:a9:32:f3:82:b5:7a:82:31:d9:31:66:86:7f:4d:2c:8f
        Signature Algorithm: sha256WithRSAEncryption
        Issuer: C=NO, O=Nitpicksy, OU=Nitpicksy Certificate Authority, CN=Nitpicksy TLS CA
        Validity
            Not Before: Dec 11 20:36:52 2020 GMT
            Not After : Dec 11 20:36:52 2022 GMT
        Subject: C=NO, O=Nitpicksy, OU=Nitpicksy Certificate Authority, CN=Bank
        Subject Public Key Info:
            Public Key Algorithm: rsaEncryption
                RSA Public-Key: (4096 bit)
                Modulus:
                    00:c0:a7:df:be:cf:4b:e1:78:2d:8e:13:43:0d:bf:
                    aa:39:22:cc:aa:1d:7b:9b:55:ae:8c:c3:36:70:28:
                    d9:8a:56:e3:2d:d0:7a:f0:17:9f:82:1e:3f:50:94:
                    08:0d:82:1a:9f:e5:08:13:30:bc:f2:64:93:8b:b7:
                    c1:ad:d4:ed:b4:2f:cc:8a:09:86:eb:a0:66:89:21:
                    fb:ec:b1:09:0d:ea:69:69:07:1f:2f:0f:b6:40:0b:
                    27:c8:3f:0b:0d:37:8f:8a:55:7c:b7:19:01:35:5d:
                    c9:f0:cc:b1:b1:fd:5b:50:af:a3:eb:34:08:af:18:
                    f7:a5:ad:fa:18:f9:f6:08:b6:ff:5b:52:1a:70:ee:
                    c7:8d:80:78:5a:7b:a5:bd:cd:33:ca:9f:c4:a8:a2:
                    d6:3f:54:02:7d:93:e7:d0:46:09:3b:cf:11:da:3a:
                    3b:c7:06:87:5a:e0:d3:7d:d3:4b:9e:7b:29:bf:14:
                    21:72:ec:71:f7:12:f8:ad:c5:84:1f:2d:46:f4:ed:
                    a0:aa:aa:19:3a:63:73:fa:ec:04:eb:a9:15:71:9d:
                    87:90:cc:eb:d1:d0:3a:a4:17:ac:1c:40:fd:a2:f3:
                    4f:44:f8:4a:39:c3:51:b3:e9:fc:43:3c:e2:ae:c5:
                    8b:5d:6e:df:15:6e:56:0b:52:13:62:58:13:7b:58:
                    14:fe:0e:7b:1d:7f:32:86:25:ec:ca:c4:69:ad:ae:
                    f8:a7:8b:b5:b8:66:71:8d:f6:a6:17:8f:1c:6f:2c:
                    93:db:38:d1:f0:63:ed:28:09:08:fc:cd:54:f9:18:
                    1d:a1:ad:18:cb:f2:2a:17:93:37:28:bb:50:28:c1:
                    22:46:8b:7f:4a:5a:3f:2a:50:6c:c0:41:ed:df:26:
                    9f:0f:52:c5:5b:e7:5e:e1:ca:9c:31:71:42:fb:b9:
                    00:4d:65:c5:a0:f0:50:72:6b:3f:57:70:69:d7:e0:
                    ba:9f:fb:24:d1:a3:72:be:fd:f5:21:d8:07:48:60:
                    e8:7d:92:1e:13:74:5b:c5:79:b4:19:db:5d:ed:58:
                    31:38:75:60:75:44:f2:6d:15:1c:72:1f:01:7e:00:
                    1a:52:fb:e8:5d:5b:86:78:82:8d:5a:e5:18:2a:6e:
                    5e:ea:78:aa:45:39:33:84:9e:36:6f:1b:f2:1d:ed:
                    a6:d0:88:f8:0c:05:06:9f:32:04:4d:58:7d:04:93:
                    ee:65:94:a6:01:40:fe:35:42:d4:f3:23:c1:c9:9c:
                    a2:fc:3e:c0:21:f5:73:11:da:1f:2d:30:ea:e6:5d:
                    c4:59:6a:ee:2e:d1:cb:d7:e2:37:a2:2a:fd:c7:5f:
                    7e:53:56:f8:37:51:f3:88:e7:bc:89:2b:ac:10:06:
                    9f:cc:7b
                Exponent: 65537 (0x10001)
        X509v3 extensions:
            X509v3 Key Usage: critical
                Digital Signature, Key Encipherment
            X509v3 Basic Constraints: 
                CA:FALSE
            X509v3 Extended Key Usage: 
                TLS Web Server Authentication, TLS Web Client Authentication
            X509v3 Subject Key Identifier: 
                AA:CB:A5:6A:7F:62:76:28:32:01:7C:57:7A:2A:9B:4D:D3:CC:0A:2E
            X509v3 Authority Key Identifier: 
                keyid:CC:B0:B8:BC:D8:35:9B:94:9B:C9:52:8E:84:33:E7:D3:46:B9:14:ED

            Authority Information Access: 
                CA Issuers - URI:http://nitpicksy.no/ca/tls-ca.cer

            X509v3 CRL Distribution Points: 

                Full Name:
                  URI:http://nitpicksy.no/ca/tls-ca.crl

            X509v3 Subject Alternative Name: 
                DNS:nitpicksy.no, DNS:www.nitpicksy.no, DNS:localhost, IP Address:127.0.0.1
    Signature Algorithm: sha256WithRSAEncryption
         92:20:23:c6:b2:68:64:13:ba:71:d5:77:64:a6:a2:e4:09:dd:
         ba:2c:0e:cd:89:d1:76:34:38:1d:4a:bf:ff:33:36:69:92:90:
         48:25:4f:4d:5c:25:a1:25:fe:c4:96:a0:e9:7b:72:f1:c5:c6:
         94:7e:35:fd:9b:bf:2c:56:8d:75:32:ff:49:d6:fa:a8:d5:8d:
         06:c6:7d:4f:92:08:ed:2b:ea:00:f2:9e:1e:99:d4:56:2e:1a:
         56:e8:49:d5:17:68:4c:e8:f1:59:61:65:28:be:1a:01:9c:5a:
         1f:d1:54:30:a7:51:9a:fa:9d:b2:cf:19:a1:b6:fa:c0:9a:7c:
         c4:67:56:7b:4c:c3:21:aa:85:52:77:9b:21:da:d5:04:47:c9:
         bc:50:f1:ab:84:9a:a4:22:36:0b:c3:92:65:0c:2b:73:9c:f5:
         f0:25:d0:79:c6:de:b9:2e:14:61:76:cb:10:3a:7d:fe:a1:cc:
         ff:d9:d6:2b:27:0c:f1:e2:8f:2d:a2:5b:8d:c9:9f:a2:f3:24:
         94:b5:7b:df:8b:b2:e2:c8:8a:cb:7b:50:53:d2:62:ab:5e:5b:
         d6:b7:bb:9f:5d:ec:09:4e:79:31:4f:a5:7c:e3:d1:47:17:2a:
         63:64:f1:f0:d2:ec:4f:df:e2:9a:c0:f5:32:0a:ef:b6:26:44:
         8f:e7:1e:b9:12:cf:8b:d1:36:7e:66:47:86:29:a5:95:a6:22:
         de:b6:5b:6d:f4:00:13:50:f9:5c:5d:a8:11:15:f8:be:bb:d0:
         32:f0:79:24:21:17:ab:eb:72:b5:6c:60:51:ea:63:f8:2a:84:
         f1:fb:42:e1:6a:09:62:a6:5d:b0:37:6c:69:b5:61:35:82:d4:
         07:be:d6:9d:1e:fa:c3:bc:ef:cd:5a:47:55:c7:74:4d:ae:35:
         75:a6:a1:a6:3d:c9:f7:01:b3:19:f9:1e:36:54:4a:54:0b:b5:
         78:92:88:8a:72:ad:4b:b0:2a:2b:e0:b8:c7:30:69:e9:27:66:
         a5:2d:dc:94:35:f6:24:d5:b5:65:06:f5:6a:52:b5:3e:27:bb:
         98:7d:b2:48:65:67:6f:ef:30:2d:55:68:be:47:eb:62:7f:b8:
         c7:64:48:45:21:5b:56:41:82:62:e1:a9:1c:af:48:de:49:1c:
         28:fc:3d:21:a2:20:7f:8c:91:f5:cd:ab:2b:d6:7c:d4:73:69:
         28:f8:a3:1f:d5:7e:5d:c6:bf:44:c0:19:94:05:13:d0:cc:d4:
         55:df:44:e8:1c:89:29:c2:1c:7b:18:9e:ac:db:44:a2:b5:18:
         23:13:b6:a7:df:67:bc:a8:9c:c4:28:34:5f:9d:da:d1:96:e0:
         46:b9:89:63:20:64:ad:bb
-----BEGIN CERTIFICATE-----
MIIGfTCCBGWgAwIBAgIUf1b9mqky84K1eoIx2TFmhn9NLI8wDQYJKoZIhvcNAQEL
BQAwZjELMAkGA1UEBhMCTk8xEjAQBgNVBAoMCU5pdHBpY2tzeTEoMCYGA1UECwwf
Tml0cGlja3N5IENlcnRpZmljYXRlIEF1dGhvcml0eTEZMBcGA1UEAwwQTml0cGlj
a3N5IFRMUyBDQTAeFw0yMDEyMTEyMDM2NTJaFw0yMjEyMTEyMDM2NTJaMFoxCzAJ
BgNVBAYTAk5PMRIwEAYDVQQKDAlOaXRwaWNrc3kxKDAmBgNVBAsMH05pdHBpY2tz
eSBDZXJ0aWZpY2F0ZSBBdXRob3JpdHkxDTALBgNVBAMMBEJhbmswggIiMA0GCSqG
SIb3DQEBAQUAA4ICDwAwggIKAoICAQDAp9++z0vheC2OE0MNv6o5IsyqHXubVa6M
wzZwKNmKVuMt0HrwF5+CHj9QlAgNghqf5QgTMLzyZJOLt8Gt1O20L8yKCYbroGaJ
IfvssQkN6mlpBx8vD7ZACyfIPwsNN4+KVXy3GQE1XcnwzLGx/VtQr6PrNAivGPel
rfoY+fYItv9bUhpw7seNgHhae6W9zTPKn8SootY/VAJ9k+fQRgk7zxHaOjvHBoda
4NN900ueeym/FCFy7HH3EvitxYQfLUb07aCqqhk6Y3P67ATrqRVxnYeQzOvR0Dqk
F6wcQP2i809E+Eo5w1Gz6fxDPOKuxYtdbt8VblYLUhNiWBN7WBT+DnsdfzKGJezK
xGmtrvini7W4ZnGN9qYXjxxvLJPbONHwY+0oCQj8zVT5GB2hrRjL8ioXkzcou1Ao
wSJGi39KWj8qUGzAQe3fJp8PUsVb517hypwxcUL7uQBNZcWg8FByaz9XcGnX4Lqf
+yTRo3K+/fUh2AdIYOh9kh4TdFvFebQZ213tWDE4dWB1RPJtFRxyHwF+ABpS++hd
W4Z4go1a5Rgqbl7qeKpFOTOEnjZvG/Id7abQiPgMBQafMgRNWH0Ek+5llKYBQP41
QtTzI8HJnKL8PsAh9XMR2h8tMOrmXcRZau4u0cvX4jeiKv3HX35TVvg3UfOI57yJ
K6wQBp/MewIDAQABo4IBLTCCASkwDgYDVR0PAQH/BAQDAgWgMAkGA1UdEwQCMAAw
HQYDVR0lBBYwFAYIKwYBBQUHAwEGCCsGAQUFBwMCMB0GA1UdDgQWBBSqy6Vqf2J2
KDIBfFd6KptN08wKLjAfBgNVHSMEGDAWgBTMsLi82DWblJvJUo6EM+fTRrkU7TA9
BggrBgEFBQcBAQQxMC8wLQYIKwYBBQUHMAKGIWh0dHA6Ly9uaXRwaWNrc3kubm8v
Y2EvdGxzLWNhLmNlcjAyBgNVHR8EKzApMCegJaAjhiFodHRwOi8vbml0cGlja3N5
Lm5vL2NhL3Rscy1jYS5jcmwwOgYDVR0RBDMwMYIMbml0cGlja3N5Lm5vghB3d3cu
bml0cGlja3N5Lm5vgglsb2NhbGhvc3SHBH8AAAEwDQYJKoZIhvcNAQELBQADggIB
AJIgI8ayaGQTunHVd2SmouQJ3bosDs2J0XY0OB1Kv/8zNmmSkEglT01cJaEl/sSW
oOl7cvHFxpR+Nf2bvyxWjXUy/0nW+qjVjQbGfU+SCO0r6gDynh6Z1FYuGlboSdUX
aEzo8VlhZSi+GgGcWh/RVDCnUZr6nbLPGaG2+sCafMRnVntMwyGqhVJ3myHa1QRH
ybxQ8auEmqQiNgvDkmUMK3Oc9fAl0HnG3rkuFGF2yxA6ff6hzP/Z1isnDPHijy2i
W43Jn6LzJJS1e9+LsuLIist7UFPSYqteW9a3u59d7AlOeTFPpXzj0UcXKmNk8fDS
7E/f4prA9TIK77YmRI/nHrkSz4vRNn5mR4YppZWmIt62W230ABNQ+VxdqBEV+L67
0DLweSQhF6vrcrVsYFHqY/gqhPH7QuFqCWKmXbA3bGm1YTWC1Ae+1p0e+sO8781a
R1XHdE2uNXWmoaY9yfcBsxn5HjZUSlQLtXiSiIpyrUuwKivguMcwaeknZqUt3JQ1
9iTVtWUG9WpStT4nu5h9skhlZ2/vMC1VaL5H62J/uMdkSEUhW1ZBgmLhqRyvSN5J
HCj8PSGiIH+MkfXNqyvWfNRzaSj4ox/Vfl3Gv0TAGZQFE9DM1FXfROgciSnCHHsY
nqzbRKK1GCMTtqffZ7yonMQoNF+d2tGW4Ea5iWMgZK27
-----END CERTIFICATE-----
