Certificate:
    Data:
        Version: 3 (0x2)
        Serial Number:
            4d:1a:5c:47:c3:f5:b7:21:2a:7f:bb:64:8c:66:4a:d2:25:a7:81:5a
        Signature Algorithm: sha256WithRSAEncryption
        Issuer: C=NO, O=Nitpicksy, OU=Nitpicksy Certificate Authority, CN=Nitpicksy TLS CA
        Validity
            Not Before: Dec 11 23:35:57 2020 GMT
            Not After : Dec 11 23:35:57 2022 GMT
        Subject: C=NO, O=Nitpicksy, OU=Nitpicksy Certificate Authority, CN=Payment Gateway
        Subject Public Key Info:
            Public Key Algorithm: rsaEncryption
                RSA Public-Key: (4096 bit)
                Modulus:
                    00:b0:b0:52:11:8a:b9:7d:63:e6:38:c1:75:f7:08:
                    90:1b:11:58:5e:e2:d2:b6:a5:27:01:9c:ea:6e:44:
                    4a:25:46:ec:90:0d:c7:48:17:2c:e1:ee:aa:2d:21:
                    6a:25:3b:9a:0f:3b:00:6f:e7:c6:b5:91:59:7c:2a:
                    22:84:52:a6:e2:03:08:13:46:35:a1:eb:68:3a:5a:
                    4a:f2:2a:dd:15:5a:8e:30:7f:18:af:10:f6:2b:4e:
                    ac:fa:af:0f:22:41:ee:30:db:9d:99:67:c2:4a:8c:
                    7d:d4:21:39:7f:fd:2f:c9:e3:6a:0b:68:c5:bc:6a:
                    d4:6d:0a:c0:a2:3c:93:86:f4:27:1c:3a:1d:c6:9c:
                    af:74:ba:2e:ef:f6:6a:08:6e:66:28:df:11:fc:8f:
                    08:32:43:a9:d8:12:08:35:87:b8:33:22:fb:81:b5:
                    9c:ab:4d:3d:d1:dd:cf:b1:b1:0e:f2:8a:3f:57:12:
                    25:d8:88:a5:73:62:55:af:7e:da:10:9a:c8:b1:36:
                    62:98:62:2a:ce:1b:2c:a9:78:46:34:0d:3c:30:10:
                    83:20:69:80:56:5d:23:fd:2c:e2:b3:30:cc:e4:ef:
                    d5:ec:df:6b:b0:a5:a4:22:72:36:70:b0:cc:1f:57:
                    26:3c:10:2b:f5:c1:22:94:22:2c:f0:44:47:d5:0e:
                    cf:a5:2d:6b:16:c2:ad:62:e7:24:77:70:5b:d4:db:
                    32:76:36:da:db:d3:a1:f0:04:cd:59:c9:c9:48:40:
                    40:fa:38:ad:67:ef:cc:2a:3d:3e:70:84:18:73:c6:
                    04:7e:2b:15:9c:92:c3:99:ab:08:64:b4:67:9e:c7:
                    ee:5e:c8:93:47:25:3d:3d:3c:0a:24:5c:e9:ef:3c:
                    66:36:30:e1:8e:ab:79:47:29:f6:1e:8c:43:e6:33:
                    07:86:f0:62:69:fd:20:5d:31:71:d1:72:ff:cb:a7:
                    54:37:dc:d6:f7:4c:08:2c:43:65:64:bd:0f:69:16:
                    7e:e4:0e:33:64:a4:d8:23:7b:25:d2:d8:4c:1a:3e:
                    cd:f5:58:45:01:a5:b7:b8:66:dc:be:64:6e:e4:43:
                    f0:25:36:c7:2f:b3:4c:86:1f:b9:64:83:62:b4:a2:
                    13:42:23:c4:c7:f7:4c:0e:ad:0a:74:3b:47:13:0c:
                    7f:c5:06:12:7c:d9:71:be:68:7e:cc:ae:87:6e:c9:
                    1c:56:57:18:9e:2a:e2:fe:1c:2a:98:0f:06:c7:61:
                    5f:29:e0:a8:42:2f:16:4c:a4:73:43:40:3c:c7:c3:
                    83:be:1c:66:07:32:77:a1:e8:d7:99:53:18:94:c0:
                    49:6a:46:52:8f:bb:bd:5e:d0:9f:5b:a4:a3:1b:3d:
                    fa:19:83
                Exponent: 65537 (0x10001)
        X509v3 extensions:
            X509v3 Key Usage: critical
                Digital Signature, Key Encipherment
            X509v3 Basic Constraints: 
                CA:FALSE
            X509v3 Extended Key Usage: 
                TLS Web Server Authentication, TLS Web Client Authentication
            X509v3 Subject Key Identifier: 
                64:B3:5F:1C:7C:E4:BE:16:DA:3F:5E:0E:CF:D9:F8:48:B6:D9:1E:B2
            X509v3 Authority Key Identifier: 
                keyid:99:B8:0A:C6:F9:8F:63:32:21:3F:40:58:30:B1:09:38:21:F0:EA:62

            Authority Information Access: 
                CA Issuers - URI:http://nitpicksy.no/ca/tls-ca.cer

            X509v3 CRL Distribution Points: 

                Full Name:
                  URI:http://nitpicksy.no/ca/tls-ca.crl

            X509v3 Subject Alternative Name: 
                DNS:nitpicksy.no, DNS:www.nitpicksy.no, DNS:localhost, IP Address:127.0.0.1
    Signature Algorithm: sha256WithRSAEncryption
         b5:68:51:b3:97:9a:69:89:90:4a:40:c7:fc:79:8d:a6:b3:c9:
         db:70:9f:5c:59:24:b2:fb:41:1b:3f:c5:24:ca:a2:c6:96:61:
         83:c2:8a:47:80:3e:89:96:ee:b0:cb:ab:f8:76:12:57:b9:4e:
         15:86:f1:24:e4:b8:b7:e2:57:24:34:b7:79:87:d0:6b:18:2a:
         1d:da:91:b6:09:41:c1:29:58:eb:0d:b7:f5:0d:32:d5:48:2f:
         0d:4a:a7:2f:18:1c:be:b2:2a:48:43:02:35:0b:cf:a1:7a:bc:
         54:2e:c9:71:9d:48:c0:b3:ed:0b:98:b0:6c:fa:4e:ec:85:70:
         9c:00:f1:ee:40:4c:34:af:df:cc:2e:4d:e3:ef:a2:61:2f:22:
         d9:c2:e7:13:77:7c:93:46:c2:dd:3c:ad:3f:23:b7:1d:92:09:
         5f:f9:ae:eb:e2:31:7f:c8:b5:7d:ce:5b:7c:63:0c:85:fb:9b:
         2d:b6:f6:66:9b:a8:2c:71:23:97:aa:59:a4:5f:cc:18:66:10:
         a4:11:44:1d:07:6a:bf:51:27:8f:de:af:51:8d:2e:8c:68:4f:
         6c:8d:ec:61:86:f5:15:b3:f4:9c:a5:c0:fb:f6:75:0f:88:07:
         12:46:3d:e9:54:86:2b:79:58:84:1f:02:e6:55:f8:0f:cd:35:
         09:0b:55:d8:2c:a1:61:a7:fc:59:dd:3e:38:fb:d3:42:43:30:
         8b:fa:0f:b4:00:83:c9:75:9b:8b:7f:db:f4:3f:46:9a:0d:d8:
         6f:7d:97:db:3f:7b:d8:26:f5:2c:76:bd:6a:d4:bd:1f:ac:3e:
         b1:f3:e6:d2:aa:31:c4:a2:34:99:67:1c:94:03:7a:61:8a:26:
         4b:d8:e6:50:d9:8a:96:dd:59:49:d0:76:c4:6a:88:ed:12:24:
         38:56:1a:1c:be:c7:d8:4c:95:2d:ed:07:ae:ed:6b:e8:3a:af:
         c8:62:c4:8c:74:53:5a:30:33:e1:4b:e6:6f:49:e0:40:b2:21:
         8e:4c:59:69:53:86:7f:72:24:80:1b:d8:99:a8:e9:a6:02:9e:
         18:bf:de:9c:50:d3:11:d9:96:df:83:3e:51:8a:c5:be:09:05:
         f9:f0:0f:87:bf:39:57:0c:63:e2:cb:5a:43:9a:dd:80:c0:87:
         ae:26:a5:dc:f2:bc:c0:69:f3:7a:9a:7f:95:ed:11:a9:b0:01:
         fb:b8:ae:58:66:3d:71:53:41:06:b8:6f:11:bf:89:e0:ee:b1:
         02:4d:14:61:59:0e:bc:14:61:ee:0b:67:0d:31:03:26:46:69:
         3b:8d:81:e9:d1:f3:2a:86:05:af:83:cc:75:26:c2:9f:35:76:
         59:c0:cf:88:a4:1f:65:13
-----BEGIN CERTIFICATE-----
MIIGiDCCBHCgAwIBAgIUTRpcR8P1tyEqf7tkjGZK0iWngVowDQYJKoZIhvcNAQEL
BQAwZjELMAkGA1UEBhMCTk8xEjAQBgNVBAoMCU5pdHBpY2tzeTEoMCYGA1UECwwf
Tml0cGlja3N5IENlcnRpZmljYXRlIEF1dGhvcml0eTEZMBcGA1UEAwwQTml0cGlj
a3N5IFRMUyBDQTAeFw0yMDEyMTEyMzM1NTdaFw0yMjEyMTEyMzM1NTdaMGUxCzAJ
BgNVBAYTAk5PMRIwEAYDVQQKDAlOaXRwaWNrc3kxKDAmBgNVBAsMH05pdHBpY2tz
eSBDZXJ0aWZpY2F0ZSBBdXRob3JpdHkxGDAWBgNVBAMMD1BheW1lbnQgR2F0ZXdh
eTCCAiIwDQYJKoZIhvcNAQEBBQADggIPADCCAgoCggIBALCwUhGKuX1j5jjBdfcI
kBsRWF7i0ralJwGc6m5ESiVG7JANx0gXLOHuqi0haiU7mg87AG/nxrWRWXwqIoRS
puIDCBNGNaHraDpaSvIq3RVajjB/GK8Q9itOrPqvDyJB7jDbnZlnwkqMfdQhOX/9
L8njagtoxbxq1G0KwKI8k4b0Jxw6Hcacr3S6Lu/2aghuZijfEfyPCDJDqdgSCDWH
uDMi+4G1nKtNPdHdz7GxDvKKP1cSJdiIpXNiVa9+2hCayLE2YphiKs4bLKl4RjQN
PDAQgyBpgFZdI/0s4rMwzOTv1ezfa7ClpCJyNnCwzB9XJjwQK/XBIpQiLPBER9UO
z6UtaxbCrWLnJHdwW9TbMnY22tvTofAEzVnJyUhAQPo4rWfvzCo9PnCEGHPGBH4r
FZySw5mrCGS0Z57H7l7Ik0clPT08CiRc6e88ZjYw4Y6reUcp9h6MQ+YzB4bwYmn9
IF0xcdFy/8unVDfc1vdMCCxDZWS9D2kWfuQOM2Sk2CN7JdLYTBo+zfVYRQGlt7hm
3L5kbuRD8CU2xy+zTIYfuWSDYrSiE0IjxMf3TA6tCnQ7RxMMf8UGEnzZcb5ofsyu
h27JHFZXGJ4q4v4cKpgPBsdhXyngqEIvFkykc0NAPMfDg74cZgcyd6Ho15lTGJTA
SWpGUo+7vV7Qn1ukoxs9+hmDAgMBAAGjggEtMIIBKTAOBgNVHQ8BAf8EBAMCBaAw
CQYDVR0TBAIwADAdBgNVHSUEFjAUBggrBgEFBQcDAQYIKwYBBQUHAwIwHQYDVR0O
BBYEFGSzXxx85L4W2j9eDs/Z+Ei22R6yMB8GA1UdIwQYMBaAFJm4Csb5j2MyIT9A
WDCxCTgh8OpiMD0GCCsGAQUFBwEBBDEwLzAtBggrBgEFBQcwAoYhaHR0cDovL25p
dHBpY2tzeS5uby9jYS90bHMtY2EuY2VyMDIGA1UdHwQrMCkwJ6AloCOGIWh0dHA6
Ly9uaXRwaWNrc3kubm8vY2EvdGxzLWNhLmNybDA6BgNVHREEMzAxggxuaXRwaWNr
c3kubm+CEHd3dy5uaXRwaWNrc3kubm+CCWxvY2FsaG9zdIcEfwAAATANBgkqhkiG
9w0BAQsFAAOCAgEAtWhRs5eaaYmQSkDH/HmNprPJ23CfXFkksvtBGz/FJMqixpZh
g8KKR4A+iZbusMur+HYSV7lOFYbxJOS4t+JXJDS3eYfQaxgqHdqRtglBwSlY6w23
9Q0y1UgvDUqnLxgcvrIqSEMCNQvPoXq8VC7JcZ1IwLPtC5iwbPpO7IVwnADx7kBM
NK/fzC5N4++iYS8i2cLnE3d8k0bC3TytPyO3HZIJX/mu6+Ixf8i1fc5bfGMMhfub
Lbb2ZpuoLHEjl6pZpF/MGGYQpBFEHQdqv1Enj96vUY0ujGhPbI3sYYb1FbP0nKXA
+/Z1D4gHEkY96VSGK3lYhB8C5lX4D801CQtV2CyhYaf8Wd0+OPvTQkMwi/oPtACD
yXWbi3/b9D9Gmg3Yb32X2z972Cb1LHa9atS9H6w+sfPm0qoxxKI0mWcclAN6YYom
S9jmUNmKlt1ZSdB2xGqI7RIkOFYaHL7H2EyVLe0Hru1r6DqvyGLEjHRTWjAz4Uvm
b0ngQLIhjkxZaVOGf3IkgBvYmajppgKeGL/enFDTEdmW34M+UYrFvgkF+fAPh785
Vwxj4staQ5rdgMCHrial3PK8wGnzepp/le0RqbAB+7iuWGY9cVNBBrhvEb+J4O6x
Ak0UYVkOvBRh7gtnDTEDJkZpO42B6dHzKoYFr4PMdSbCnzV2WcDPiKQfZRM=
-----END CERTIFICATE-----
