Certificate:
    Data:
        Version: 3 (0x2)
        Serial Number:
            59:8a:53:85:64:1f:e5:4e:cc:5a:e0:f7:52:11:df:cd:eb:9c:14:07
        Signature Algorithm: sha256WithRSAEncryption
        Issuer: C=NO, O=Nitpicksy, OU=Nitpicksy Certificate Authority, CN=Nitpicksy Root CA
        Validity
            Not Before: Dec 11 12:46:25 2020 GMT
            Not After : Dec 11 12:46:25 2030 GMT
        Subject: C=NO, O=Nitpicksy, OU=Nitpicksy Certificate Authority, CN=Nitpicksy Root CA
        Subject Public Key Info:
            Public Key Algorithm: rsaEncryption
                RSA Public-Key: (4096 bit)
                Modulus:
                    00:b4:e6:28:cf:ce:49:2e:86:63:00:f3:da:03:9d:
                    c2:86:70:93:66:57:f6:ed:06:72:7a:e5:cb:60:a1:
                    9f:37:c2:58:66:a4:f1:27:0f:84:b6:c1:57:dd:dd:
                    8b:7d:35:07:92:97:17:0d:7b:81:7d:3b:55:dd:6c:
                    71:d2:95:7a:c9:78:2e:32:5f:1f:e1:3f:cb:54:5b:
                    2e:4a:c7:f4:9e:78:89:10:66:2a:16:94:53:3c:21:
                    c8:34:a9:6e:9e:2d:44:a4:e9:2c:a6:c8:a7:a3:c0:
                    c7:ad:c4:1e:2a:26:35:b2:2d:cd:28:cc:0a:7d:c6:
                    d1:e3:fb:d9:a0:11:df:a7:4f:98:d8:55:bd:9a:d2:
                    94:2f:f0:e5:64:77:89:85:81:50:d3:1b:3e:50:1c:
                    b5:29:e1:1e:52:ac:d7:2e:ff:1b:23:30:89:3c:7e:
                    04:4b:24:52:99:e9:fd:f1:22:16:fa:90:99:7b:27:
                    be:41:79:49:85:09:66:9b:67:85:7c:cc:ae:fc:3e:
                    80:86:0b:72:b8:88:16:dd:a5:5e:53:72:e0:db:b1:
                    d9:52:db:fb:76:6d:0d:b3:9d:03:d2:63:3b:e3:be:
                    e6:64:20:7c:99:ad:f9:9e:ec:59:f9:8b:df:1a:9c:
                    27:35:56:ae:28:d7:69:96:90:01:24:83:aa:d4:60:
                    24:82:c6:dd:63:23:17:d5:83:d1:d4:ab:42:40:60:
                    82:1a:24:18:90:2b:60:e5:6d:5b:8d:ad:0c:b6:45:
                    bc:f8:ae:df:49:b5:97:8c:90:04:09:c9:78:cd:94:
                    b1:16:c9:57:90:98:04:e1:0d:e6:08:0a:db:24:18:
                    35:05:d5:de:4f:32:7f:64:33:c2:a9:d1:99:f1:7c:
                    96:c4:9b:2b:ff:d9:47:22:87:20:f5:76:77:6e:35:
                    36:7b:41:85:86:41:f9:e6:b4:90:27:06:76:a5:15:
                    05:3c:01:21:11:80:22:fe:e4:54:92:69:34:af:32:
                    2c:b9:2f:d5:4e:2e:0a:8f:34:5d:5b:e9:ff:98:eb:
                    fb:e0:b0:ba:45:13:e3:fe:4f:2a:96:f8:21:10:f6:
                    eb:1c:ec:fe:09:f4:67:ab:27:88:b7:cf:eb:89:ae:
                    ea:3a:19:1b:27:c0:e1:51:90:48:42:89:93:be:5c:
                    dd:14:9d:4a:94:9c:b5:e5:c3:a5:78:09:24:f3:c2:
                    c7:1f:66:82:52:e9:9b:f7:00:6b:e2:a2:b3:5e:f4:
                    4c:a3:1a:06:43:3c:a1:cb:86:d4:21:13:37:39:44:
                    24:9c:e0:b6:7d:00:cb:25:90:18:59:bc:59:a4:ed:
                    47:72:03:cd:a0:b8:56:d9:8d:04:43:5f:6a:4a:14:
                    02:f9:a3
                Exponent: 65537 (0x10001)
        X509v3 extensions:
            X509v3 Key Usage: critical
                Certificate Sign, CRL Sign
            X509v3 Basic Constraints: critical
                CA:TRUE
            X509v3 Subject Key Identifier: 
                BB:BA:70:F2:4D:61:72:C8:0A:21:A4:BA:05:7D:FC:AF:32:23:0E:04
            X509v3 Authority Key Identifier: 
                keyid:BB:BA:70:F2:4D:61:72:C8:0A:21:A4:BA:05:7D:FC:AF:32:23:0E:04

    Signature Algorithm: sha256WithRSAEncryption
         0e:ec:5f:c4:7e:30:80:38:57:e9:29:fd:a9:d8:72:b2:49:af:
         1e:ea:0f:e1:cb:a8:f7:0e:c0:88:e4:b5:72:21:1b:36:43:d9:
         ea:89:c0:99:7e:7e:64:19:b5:31:e5:56:d6:c3:69:ac:64:cf:
         a6:5c:1a:d7:6d:b4:88:41:61:ff:28:d3:d9:38:bb:cb:84:e3:
         da:d1:d5:80:91:d4:0f:9b:b0:0c:cc:3e:ed:f7:6b:ba:41:0d:
         25:f9:7f:dd:e2:f3:df:27:54:90:d8:23:f5:0a:57:67:0f:75:
         bf:ed:4d:80:76:4c:ce:7b:23:f0:75:90:f8:3c:3c:f3:0a:76:
         72:77:2a:ee:d4:ba:7b:60:be:22:44:da:1e:d9:af:ec:b4:af:
         8c:eb:d2:4a:ba:a3:51:5c:7e:a1:17:57:23:e6:bd:88:c9:93:
         f9:d1:be:d7:67:58:8e:3d:bc:d7:f2:dc:9c:41:74:47:be:d7:
         83:b7:43:16:ab:fa:36:fb:3a:b8:39:2f:28:36:2b:e2:0e:6a:
         fa:74:64:55:08:a3:58:a7:b2:07:72:0e:55:b7:eb:29:cb:54:
         6e:14:e6:56:fb:05:4a:f5:e7:b9:42:d8:a9:4a:16:b7:fc:6f:
         1b:aa:ff:85:af:0d:80:37:f6:41:5a:3c:ad:07:0a:0e:14:d9:
         86:9d:70:02:38:96:4e:80:a8:8c:f9:27:52:8e:1f:2e:71:07:
         3b:82:71:00:8a:9d:04:45:2a:39:cc:28:fb:bf:53:29:03:bc:
         a9:26:ba:40:3d:bd:e4:0c:72:31:c5:23:d2:ce:79:2f:1f:32:
         9c:58:f3:32:29:a2:93:ce:5e:53:10:83:bc:0b:2f:5f:1d:8a:
         cb:34:54:af:95:ed:d6:c0:b9:7c:fd:eb:1d:75:7b:1b:3c:23:
         19:7b:19:1d:ca:7f:08:8a:5f:04:cb:c2:41:cc:4f:a5:e5:d4:
         12:73:07:2b:97:6a:81:df:3f:95:88:99:83:01:40:42:84:e4:
         ba:bd:06:d4:58:fb:9b:1e:16:56:7b:ca:87:ff:2c:60:06:ee:
         50:98:c6:b1:e8:e6:86:23:d1:ac:8e:ce:05:d6:38:7b:3d:d4:
         1d:5f:fe:47:74:fa:19:6a:e3:03:d7:c6:14:d7:0f:6e:71:d1:
         48:3f:65:41:bf:9b:58:43:6c:35:be:9d:c2:cb:98:15:b0:2b:
         e6:d7:61:dc:3d:46:b7:37:8b:19:1f:48:78:c4:01:e2:37:e0:
         d4:6e:2b:ee:7e:58:cd:50:bd:ae:ec:66:85:71:58:5f:52:71:
         b1:40:d9:69:97:e8:c2:ec:7f:29:76:68:56:58:98:d7:92:e0:
         be:2c:65:cc:db:1a:59:43
-----BEGIN CERTIFICATE-----
MIIFvzCCA6egAwIBAgIUWYpThWQf5U7MWuD3UhHfzeucFAcwDQYJKoZIhvcNAQEL
BQAwZzELMAkGA1UEBhMCTk8xEjAQBgNVBAoMCU5pdHBpY2tzeTEoMCYGA1UECwwf
Tml0cGlja3N5IENlcnRpZmljYXRlIEF1dGhvcml0eTEaMBgGA1UEAwwRTml0cGlj
a3N5IFJvb3QgQ0EwHhcNMjAxMjExMTI0NjI1WhcNMzAxMjExMTI0NjI1WjBnMQsw
CQYDVQQGEwJOTzESMBAGA1UECgwJTml0cGlja3N5MSgwJgYDVQQLDB9OaXRwaWNr
c3kgQ2VydGlmaWNhdGUgQXV0aG9yaXR5MRowGAYDVQQDDBFOaXRwaWNrc3kgUm9v
dCBDQTCCAiIwDQYJKoZIhvcNAQEBBQADggIPADCCAgoCggIBALTmKM/OSS6GYwDz
2gOdwoZwk2ZX9u0Gcnrly2ChnzfCWGak8ScPhLbBV93di301B5KXFw17gX07Vd1s
cdKVesl4LjJfH+E/y1RbLkrH9J54iRBmKhaUUzwhyDSpbp4tRKTpLKbIp6PAx63E
HiomNbItzSjMCn3G0eP72aAR36dPmNhVvZrSlC/w5WR3iYWBUNMbPlActSnhHlKs
1y7/GyMwiTx+BEskUpnp/fEiFvqQmXsnvkF5SYUJZptnhXzMrvw+gIYLcriIFt2l
XlNy4Nux2VLb+3ZtDbOdA9JjO+O+5mQgfJmt+Z7sWfmL3xqcJzVWrijXaZaQASSD
qtRgJILG3WMjF9WD0dSrQkBgghokGJArYOVtW42tDLZFvPiu30m1l4yQBAnJeM2U
sRbJV5CYBOEN5ggK2yQYNQXV3k8yf2QzwqnRmfF8lsSbK//ZRyKHIPV2d241NntB
hYZB+ea0kCcGdqUVBTwBIRGAIv7kVJJpNK8yLLkv1U4uCo80XVvp/5jr++CwukUT
4/5PKpb4IRD26xzs/gn0Z6sniLfP64mu6joZGyfA4VGQSEKJk75c3RSdSpScteXD
pXgJJPPCxx9mglLpm/cAa+Kis170TKMaBkM8ocuG1CETNzlEJJzgtn0AyyWQGFm8
WaTtR3IDzaC4VtmNBENfakoUAvmjAgMBAAGjYzBhMA4GA1UdDwEB/wQEAwIBBjAP
BgNVHRMBAf8EBTADAQH/MB0GA1UdDgQWBBS7unDyTWFyyAohpLoFffyvMiMOBDAf
BgNVHSMEGDAWgBS7unDyTWFyyAohpLoFffyvMiMOBDANBgkqhkiG9w0BAQsFAAOC
AgEADuxfxH4wgDhX6Sn9qdhyskmvHuoP4cuo9w7AiOS1ciEbNkPZ6onAmX5+ZBm1
MeVW1sNprGTPplwa1220iEFh/yjT2Ti7y4Tj2tHVgJHUD5uwDMw+7fdrukENJfl/
3eLz3ydUkNgj9QpXZw91v+1NgHZMznsj8HWQ+Dw88wp2cncq7tS6e2C+IkTaHtmv
7LSvjOvSSrqjUVx+oRdXI+a9iMmT+dG+12dYjj281/LcnEF0R77Xg7dDFqv6Nvs6
uDkvKDYr4g5q+nRkVQijWKeyB3IOVbfrKctUbhTmVvsFSvXnuULYqUoWt/xvG6r/
ha8NgDf2QVo8rQcKDhTZhp1wAjiWToCojPknUo4fLnEHO4JxAIqdBEUqOcwo+79T
KQO8qSa6QD295AxyMcUj0s55Lx8ynFjzMimik85eUxCDvAsvXx2KyzRUr5Xt1sC5
fP3rHXV7GzwjGXsZHcp/CIpfBMvCQcxPpeXUEnMHK5dqgd8/lYiZgwFAQoTkur0G
1Fj7mx4WVnvKh/8sYAbuUJjGsejmhiPRrI7OBdY4ez3UHV/+R3T6GWrjA9fGFNcP
bnHRSD9lQb+bWENsNb6dwsuYFbAr5tdh3D1GtzeLGR9IeMQB4jfg1G4r7n5YzVC9
ruxmhXFYX1JxsUDZaZfowux/KXZoVliY15LgvixlzNsaWUM=
-----END CERTIFICATE-----
