Certificate:
    Data:
        Version: 3 (0x2)
        Serial Number:
            41:97:a5:a2:4b:84:c8:ab:76:e2:07:40:42:f7:f6:93:d9:36:a1:b3
        Signature Algorithm: sha256WithRSAEncryption
        Issuer: C=NO, O=Nitpicksy, OU=Nitpicksy Certificate Authority, CN=Nitpicksy Root CA
        Validity
            Not Before: Dec  6 22:39:32 2020 GMT
            Not After : Dec  6 22:39:32 2030 GMT
        Subject: C=NO, O=Nitpicksy, OU=Nitpicksy Certificate Authority, CN=Nitpicksy TLS CA
        Subject Public Key Info:
            Public Key Algorithm: rsaEncryption
                RSA Public-Key: (4096 bit)
                Modulus:
                    00:c8:82:95:32:5a:40:33:21:cb:21:88:60:c1:24:
                    1e:78:33:5f:3e:12:f2:f1:92:67:0b:ea:b0:e7:ee:
                    20:13:20:cc:c9:9f:98:75:85:53:3e:d4:11:7e:d3:
                    88:56:3d:d2:69:69:54:30:30:45:bc:d2:78:e7:91:
                    7c:79:00:e7:ce:5c:c4:03:69:00:94:42:80:14:19:
                    f9:d3:0b:aa:b8:e3:c9:3e:8a:94:26:ee:f0:5c:9a:
                    0a:26:26:20:b6:cb:fb:33:d4:68:31:fb:0a:e1:2e:
                    f7:80:58:61:f7:d9:95:8e:23:3f:c0:34:60:3a:13:
                    1f:45:89:14:a7:f8:d2:56:77:a3:e9:c1:be:fd:11:
                    5d:cd:48:12:ac:7c:10:be:cc:0d:13:1f:c6:ef:8d:
                    69:06:5e:77:5d:0f:28:5f:e1:53:6d:ec:a8:56:9f:
                    38:2b:b9:e9:ce:a7:94:d9:ae:1f:c1:72:66:ab:8d:
                    1b:89:16:fd:b2:0e:88:e2:95:19:e8:08:a8:17:cb:
                    41:93:d2:54:af:36:d3:e6:c7:d9:67:42:06:be:e6:
                    03:2d:7b:ad:92:37:a6:d3:b9:74:cc:ce:33:c8:43:
                    98:f7:38:20:e3:d8:87:ee:9a:eb:41:5d:e2:e1:5a:
                    65:47:b4:e0:ba:8e:29:6d:74:ca:82:ef:74:e7:b9:
                    0a:bf:16:78:bc:ce:aa:33:9f:98:ee:9d:f2:66:93:
                    f3:2a:3f:57:3a:61:d4:3f:b0:d9:f3:43:d6:0a:70:
                    b7:05:83:20:b7:50:0d:42:0d:bc:d3:8c:8f:14:f3:
                    d5:fb:ec:37:e1:69:23:53:10:27:40:2b:b2:b2:02:
                    b5:2c:0d:12:1d:c7:e3:04:b1:75:53:3f:0d:a6:f9:
                    e2:c9:a5:55:6f:9b:25:3c:ee:95:48:14:bd:4b:e6:
                    b5:51:09:7f:a1:94:9b:fd:e9:40:6c:23:bd:f8:ef:
                    cf:c5:92:c2:2d:35:6c:d4:d7:52:7b:a7:ce:41:ee:
                    d7:1b:21:a7:e8:db:3a:1e:12:c4:4f:6c:db:6b:09:
                    76:75:8e:3e:2a:29:bf:1f:4d:9a:cf:75:20:86:80:
                    0c:27:d1:3d:1e:8c:61:70:c8:8b:75:50:39:1a:9e:
                    7f:3f:fd:b8:ed:40:3d:15:85:be:80:d0:3d:06:b5:
                    1a:e3:3f:bb:cb:6b:4b:52:4f:a4:86:c2:40:07:a9:
                    f0:d4:71:92:a1:89:e2:a4:20:71:d3:df:cd:af:2b:
                    00:ae:36:a7:db:9f:c7:0e:bf:e6:70:f3:4a:9d:e0:
                    7a:6f:e9:0a:67:da:e0:63:89:d1:8a:41:09:2c:55:
                    4c:3f:4c:fb:cd:26:9f:e9:83:4b:78:fc:e0:e1:d9:
                    1a:29:43
                Exponent: 65537 (0x10001)
        X509v3 extensions:
            X509v3 Key Usage: critical
                Certificate Sign, CRL Sign
            X509v3 Basic Constraints: critical
                CA:TRUE, pathlen:0
            X509v3 Subject Key Identifier: 
                83:CC:02:D6:E0:31:A6:2D:8E:F8:85:43:99:55:48:F6:21:22:90:49
            X509v3 Authority Key Identifier: 
                keyid:2F:CB:EC:00:8D:68:2A:13:F9:54:80:C1:D2:C4:92:A1:42:4D:AC:39

            Authority Information Access: 
                CA Issuers - URI:http://nitpicksy.no/ca/root-ca.cer

            X509v3 CRL Distribution Points: 

                Full Name:
                  URI:http://nitpicksy.no/ca/root-ca.crl

    Signature Algorithm: sha256WithRSAEncryption
         41:74:5f:d7:f0:34:a7:7b:4b:16:51:af:87:90:f5:89:bb:ef:
         30:0c:cf:7b:8d:6f:9b:4b:29:14:80:e3:85:4b:37:94:c1:d6:
         8f:be:7e:07:57:52:94:52:53:d1:06:5b:a7:11:73:e2:04:b0:
         b3:0e:c3:27:cc:21:8c:3f:6c:ba:8a:de:22:a0:b9:9c:7a:f3:
         30:96:57:bb:ae:9a:31:83:98:be:15:b5:70:dc:3d:9f:44:f9:
         91:85:bb:91:fc:f5:76:f3:e7:8d:7d:d5:53:a5:49:e4:c4:fb:
         7f:f6:ff:42:37:92:8a:4a:59:60:e3:25:83:05:19:13:40:0b:
         22:df:52:a9:f5:a6:c1:26:ce:b4:ca:02:7a:f0:7b:13:06:17:
         52:6b:4f:47:c4:96:1f:64:bd:28:77:8c:4e:ca:89:c6:72:b4:
         b7:bd:7e:04:bf:dc:63:5f:ce:d7:c4:be:c3:34:c8:a6:8a:19:
         60:93:56:53:d9:a1:e7:43:d7:5d:4a:84:61:93:e7:32:5f:e2:
         a4:18:18:ea:72:8c:4a:87:6f:1d:67:65:cd:a5:dc:f1:42:ad:
         9b:df:03:c0:ed:da:37:03:7e:b7:e6:47:cf:de:6b:97:f6:2b:
         20:f9:53:62:80:37:82:ed:96:20:82:c8:02:36:51:7a:50:53:
         1d:cb:4b:7c:17:59:82:f8:2e:40:0a:2a:24:4e:cd:3f:0b:bc:
         7f:3e:72:fb:6c:7f:ee:71:b7:e5:e2:f0:98:31:87:13:6b:24:
         6d:8f:76:6d:11:55:a3:08:69:88:16:f5:a0:a8:ee:95:bf:69:
         2b:09:fa:a6:24:3b:86:eb:f0:d5:e9:f9:32:2f:85:45:b5:6e:
         44:21:48:63:81:58:ec:52:d7:8f:29:58:3f:b8:8b:51:46:9b:
         ad:f0:7f:f2:31:a0:cb:b7:25:a6:61:41:cd:96:12:0b:17:8c:
         52:ad:ab:f1:e0:4d:f7:12:db:9b:a2:45:4f:6d:78:c1:bd:74:
         a9:82:7f:55:3a:bb:2f:7d:6e:bd:7c:c9:fb:04:a0:e0:8b:98:
         0a:45:3c:7e:c9:77:fd:8e:a8:93:58:06:03:ce:a4:d9:33:dd:
         ef:64:80:4e:2c:ab:6a:34:e0:59:7d:24:24:1a:6c:54:e7:6a:
         29:3e:35:18:82:92:9e:0f:ee:7c:38:4b:d9:73:08:f1:b8:11:
         fb:4b:8b:4a:c5:f0:a5:cd:28:33:d7:cb:56:5f:b7:79:6e:a6:
         19:b9:9f:a8:60:f3:61:45:1d:cb:6b:c6:13:d6:53:cf:3b:c3:
         28:e5:cd:fa:39:ff:5a:1e:11:4e:42:aa:b3:75:fd:c4:35:c9:
         ec:b2:29:72:38:75:a8:ba
-----BEGIN CERTIFICATE-----
MIIGODCCBCCgAwIBAgIUQZelokuEyKt24gdAQvf2k9k2obMwDQYJKoZIhvcNAQEL
BQAwZzELMAkGA1UEBhMCTk8xEjAQBgNVBAoMCU5pdHBpY2tzeTEoMCYGA1UECwwf
Tml0cGlja3N5IENlcnRpZmljYXRlIEF1dGhvcml0eTEaMBgGA1UEAwwRTml0cGlj
a3N5IFJvb3QgQ0EwHhcNMjAxMjA2MjIzOTMyWhcNMzAxMjA2MjIzOTMyWjBmMQsw
CQYDVQQGEwJOTzESMBAGA1UECgwJTml0cGlja3N5MSgwJgYDVQQLDB9OaXRwaWNr
c3kgQ2VydGlmaWNhdGUgQXV0aG9yaXR5MRkwFwYDVQQDDBBOaXRwaWNrc3kgVExT
IENBMIICIjANBgkqhkiG9w0BAQEFAAOCAg8AMIICCgKCAgEAyIKVMlpAMyHLIYhg
wSQeeDNfPhLy8ZJnC+qw5+4gEyDMyZ+YdYVTPtQRftOIVj3SaWlUMDBFvNJ455F8
eQDnzlzEA2kAlEKAFBn50wuquOPJPoqUJu7wXJoKJiYgtsv7M9RoMfsK4S73gFhh
99mVjiM/wDRgOhMfRYkUp/jSVnej6cG+/RFdzUgSrHwQvswNEx/G741pBl53XQ8o
X+FTbeyoVp84K7npzqeU2a4fwXJmq40biRb9sg6I4pUZ6AioF8tBk9JUrzbT5sfZ
Z0IGvuYDLXutkjem07l0zM4zyEOY9zgg49iH7prrQV3i4VplR7Tguo4pbXTKgu90
57kKvxZ4vM6qM5+Y7p3yZpPzKj9XOmHUP7DZ80PWCnC3BYMgt1ANQg2804yPFPPV
++w34WkjUxAnQCuysgK1LA0SHcfjBLF1Uz8NpvniyaVVb5slPO6VSBS9S+a1UQl/
oZSb/elAbCO9+O/PxZLCLTVs1NdSe6fOQe7XGyGn6Ns6HhLET2zbawl2dY4+Kim/
H02az3UghoAMJ9E9HoxhcMiLdVA5Gp5/P/247UA9FYW+gNA9BrUa4z+7y2tLUk+k
hsJAB6nw1HGSoYnipCBx09/NrysArjan25/HDr/mcPNKneB6b+kKZ9rgY4nRikEJ
LFVMP0z7zSaf6YNLePzg4dkaKUMCAwEAAaOB3DCB2TAOBgNVHQ8BAf8EBAMCAQYw
EgYDVR0TAQH/BAgwBgEB/wIBADAdBgNVHQ4EFgQUg8wC1uAxpi2O+IVDmVVI9iEi
kEkwHwYDVR0jBBgwFoAUL8vsAI1oKhP5VIDB0sSSoUJNrDkwPgYIKwYBBQUHAQEE
MjAwMC4GCCsGAQUFBzAChiJodHRwOi8vbml0cGlja3N5Lm5vL2NhL3Jvb3QtY2Eu
Y2VyMDMGA1UdHwQsMCowKKAmoCSGImh0dHA6Ly9uaXRwaWNrc3kubm8vY2Evcm9v
dC1jYS5jcmwwDQYJKoZIhvcNAQELBQADggIBAEF0X9fwNKd7SxZRr4eQ9Ym77zAM
z3uNb5tLKRSA44VLN5TB1o++fgdXUpRSU9EGW6cRc+IEsLMOwyfMIYw/bLqK3iKg
uZx68zCWV7uumjGDmL4VtXDcPZ9E+ZGFu5H89Xbz54191VOlSeTE+3/2/0I3kopK
WWDjJYMFGRNACyLfUqn1psEmzrTKAnrwexMGF1JrT0fElh9kvSh3jE7KicZytLe9
fgS/3GNfztfEvsM0yKaKGWCTVlPZoedD111KhGGT5zJf4qQYGOpyjEqHbx1nZc2l
3PFCrZvfA8Dt2jcDfrfmR8/ea5f2KyD5U2KAN4LtliCCyAI2UXpQUx3LS3wXWYL4
LkAKKiROzT8LvH8+cvtsf+5xt+Xi8JgxhxNrJG2Pdm0RVaMIaYgW9aCo7pW/aSsJ
+qYkO4br8NXp+TIvhUW1bkQhSGOBWOxS148pWD+4i1FGm63wf/IxoMu3JaZhQc2W
EgsXjFKtq/HgTfcS25uiRU9teMG9dKmCf1U6uy99br18yfsEoOCLmApFPH7Jd/2O
qJNYBgPOpNkz3e9kgE4sq2o04Fl9JCQabFTnaik+NRiCkp4P7nw4S9lzCPG4EftL
i0rF8KXNKDPXy1Zft3luphm5n6hg82FFHctrxhPWU887wyjlzfo5/1oeEU5CqrN1
/cQ1yeyyKXI4dai6
-----END CERTIFICATE-----
Certificate:
    Data:
        Version: 3 (0x2)
        Serial Number:
            03:46:5f:db:60:a8:12:08:b0:f6:50:fa:e5:95:79:52:f4:de:b9:f2
        Signature Algorithm: sha256WithRSAEncryption
        Issuer: C=NO, O=Nitpicksy, OU=Nitpicksy Certificate Authority, CN=Nitpicksy Root CA
        Validity
            Not Before: Dec  6 22:39:31 2020 GMT
            Not After : Dec  6 22:39:31 2030 GMT
        Subject: C=NO, O=Nitpicksy, OU=Nitpicksy Certificate Authority, CN=Nitpicksy Root CA
        Subject Public Key Info:
            Public Key Algorithm: rsaEncryption
                RSA Public-Key: (4096 bit)
                Modulus:
                    00:eb:e8:b5:94:b3:82:0e:fa:1a:40:0e:73:d2:9a:
                    fa:69:d1:18:d7:0a:56:1c:6c:64:6f:9d:f9:43:69:
                    9b:cc:b9:5c:4a:9a:93:4c:11:66:e4:f1:96:49:cb:
                    1f:cf:8c:99:e9:9f:d7:be:b2:1e:de:46:d2:a6:c2:
                    fb:7e:1f:64:3f:86:e8:44:e3:51:55:43:5b:1e:42:
                    f5:aa:09:2b:23:be:fa:e9:12:c7:6b:2a:f6:11:c3:
                    81:90:a8:16:6c:00:bd:bb:4d:70:d0:0a:c8:ba:71:
                    10:0d:2d:44:77:51:ad:8d:71:f1:aa:7d:9a:cb:07:
                    90:cf:56:f3:bf:4a:4b:1e:4f:90:8f:c4:5c:e3:7a:
                    c5:43:20:88:fa:f2:8e:40:92:f1:fa:cb:e0:39:8b:
                    e7:68:3f:fa:37:cb:58:e8:11:0c:8a:fd:38:5d:65:
                    7c:ff:0e:55:60:68:b3:76:e7:ef:49:1f:3c:8c:43:
                    5b:ab:7f:cb:7c:b3:44:8c:e5:f8:12:6f:a0:c7:e0:
                    2c:fd:df:8e:cf:58:7f:b2:2a:0b:30:ca:f0:cf:cb:
                    08:3f:69:9f:51:81:21:42:74:36:e8:d6:c1:f3:70:
                    e9:5d:73:c3:64:33:3e:ac:11:b3:58:07:05:f5:92:
                    c6:e7:cf:8d:b8:45:4f:07:f9:fa:c0:ac:f3:2c:73:
                    67:ce:9e:7f:4c:76:1d:8e:4c:d8:1e:79:5d:68:37:
                    17:3e:26:6e:e0:9e:57:7a:80:96:00:24:38:bd:6d:
                    72:c3:f4:4e:c1:ec:ad:f8:cb:df:7b:da:74:d5:e7:
                    d0:b8:7a:62:28:3b:53:d3:34:22:18:ff:79:66:05:
                    fb:12:3b:c5:6b:4c:b4:8b:75:9a:ec:8c:5a:a8:3a:
                    63:ce:8e:4d:f0:1d:5f:66:77:a3:64:b5:9d:b9:11:
                    e5:90:77:01:d4:49:f5:44:37:2b:13:ab:a5:a8:ab:
                    8d:f7:f1:f0:43:d4:44:2e:e3:e2:b8:8e:8b:41:3e:
                    60:8a:a7:be:72:e9:cc:57:12:75:f3:a2:c1:a1:c2:
                    cb:51:bc:6a:11:74:cb:c1:f5:be:fe:d8:49:0a:02:
                    11:1f:53:40:2c:47:e9:5a:46:b5:b5:32:45:2f:8a:
                    7b:21:29:bb:76:88:c0:06:40:2e:77:24:40:58:a1:
                    42:ee:c3:ca:54:ac:ad:68:68:aa:ae:41:5b:1f:0b:
                    70:83:c9:6b:8a:95:f2:f2:96:69:be:63:ba:ca:ef:
                    cd:a8:63:d8:61:05:ad:5c:19:2f:5a:bc:66:a5:60:
                    39:03:6b:4e:27:29:e7:8d:f4:33:7a:b8:8b:54:44:
                    49:af:a0:7e:87:63:01:84:8e:6f:3a:75:71:48:4a:
                    8c:f2:99
                Exponent: 65537 (0x10001)
        X509v3 extensions:
            X509v3 Key Usage: critical
                Certificate Sign, CRL Sign
            X509v3 Basic Constraints: critical
                CA:TRUE
            X509v3 Subject Key Identifier: 
                2F:CB:EC:00:8D:68:2A:13:F9:54:80:C1:D2:C4:92:A1:42:4D:AC:39
            X509v3 Authority Key Identifier: 
                keyid:2F:CB:EC:00:8D:68:2A:13:F9:54:80:C1:D2:C4:92:A1:42:4D:AC:39

    Signature Algorithm: sha256WithRSAEncryption
         87:4f:5b:b4:4a:93:3b:49:32:65:21:b0:5a:56:44:9e:e3:78:
         44:5d:04:ed:58:64:49:ed:f2:d8:f8:60:a5:fa:97:ba:69:7e:
         77:78:42:f6:26:69:17:65:ce:87:0d:fb:bc:05:70:a9:55:e1:
         c7:11:5f:0b:73:ff:00:c6:77:9e:50:6a:85:c8:9e:b9:d5:fb:
         be:75:0f:d1:da:3d:2b:87:75:ac:8b:55:e6:b4:89:20:a4:3f:
         6f:65:d7:b2:ce:e7:c2:0b:5a:71:10:18:97:f6:13:ea:a2:26:
         18:97:3f:59:23:a5:e0:5d:99:65:61:a7:e4:f2:03:ad:fb:f1:
         f1:d6:54:8c:b2:37:89:82:dd:4d:33:00:22:ec:9a:93:ac:70:
         90:ce:8f:9a:be:e7:d3:8c:7d:72:fa:49:30:de:38:08:15:fc:
         6f:25:b7:ae:27:8b:21:71:6f:e5:30:f4:9f:6b:16:61:4a:5f:
         f6:64:b2:89:fb:49:9f:3f:17:04:4e:d7:71:b0:09:50:97:4b:
         c1:02:5b:56:7d:f1:f1:de:d8:5c:b8:ca:91:b6:53:bc:87:56:
         ee:a8:25:78:83:83:87:34:36:3f:b7:e3:4d:c0:4c:98:89:bb:
         ce:7e:24:af:8d:3b:a6:d0:19:6d:de:28:d8:1c:81:d1:13:85:
         9d:6e:95:cb:4c:ac:09:e5:6d:30:25:62:6c:47:00:7e:4a:25:
         44:c8:df:61:c4:63:4e:be:66:e9:1a:77:5f:b4:df:6b:53:a3:
         5d:61:e7:63:92:a3:c2:e0:df:ba:b2:58:5f:7d:72:f2:bc:d2:
         ee:7b:dd:65:2b:31:93:25:2c:e8:86:f7:4e:2e:79:77:d5:32:
         19:8b:36:f8:1d:50:fb:67:55:31:e1:9c:22:39:34:10:15:1d:
         26:fc:42:d1:ba:b9:c6:43:66:30:89:36:ef:50:96:05:e0:33:
         7b:89:05:fa:a4:a2:be:15:cf:5f:7d:5b:46:5a:ff:ff:ab:c2:
         6f:c9:10:d4:b3:90:8b:6d:82:dd:36:fe:29:46:bb:23:27:d1:
         2e:cf:27:b8:71:f3:eb:e3:f5:c9:9a:ae:3b:11:43:c7:f7:a4:
         4f:ab:92:cc:36:6a:22:c6:96:83:2f:80:db:0c:b2:0b:72:86:
         74:90:89:33:f4:ef:58:e0:93:f8:47:0b:3a:18:f9:6f:69:5e:
         6f:06:8b:59:f5:51:c0:32:fd:fd:f7:93:67:e5:36:f3:f0:0e:
         d3:7b:cf:3a:c1:e7:bc:12:57:a2:0a:36:d7:4f:0d:fb:93:08:
         89:e7:31:71:18:bf:5b:3f:df:d9:e7:a1:56:ca:08:5e:22:72:
         13:08:cc:7a:9d:9e:c2:6d
-----BEGIN CERTIFICATE-----
MIIFvzCCA6egAwIBAgIUA0Zf22CoEgiw9lD65ZV5UvTeufIwDQYJKoZIhvcNAQEL
BQAwZzELMAkGA1UEBhMCTk8xEjAQBgNVBAoMCU5pdHBpY2tzeTEoMCYGA1UECwwf
Tml0cGlja3N5IENlcnRpZmljYXRlIEF1dGhvcml0eTEaMBgGA1UEAwwRTml0cGlj
a3N5IFJvb3QgQ0EwHhcNMjAxMjA2MjIzOTMxWhcNMzAxMjA2MjIzOTMxWjBnMQsw
CQYDVQQGEwJOTzESMBAGA1UECgwJTml0cGlja3N5MSgwJgYDVQQLDB9OaXRwaWNr
c3kgQ2VydGlmaWNhdGUgQXV0aG9yaXR5MRowGAYDVQQDDBFOaXRwaWNrc3kgUm9v
dCBDQTCCAiIwDQYJKoZIhvcNAQEBBQADggIPADCCAgoCggIBAOvotZSzgg76GkAO
c9Ka+mnRGNcKVhxsZG+d+UNpm8y5XEqak0wRZuTxlknLH8+Mmemf176yHt5G0qbC
+34fZD+G6ETjUVVDWx5C9aoJKyO++ukSx2sq9hHDgZCoFmwAvbtNcNAKyLpxEA0t
RHdRrY1x8ap9mssHkM9W879KSx5PkI/EXON6xUMgiPryjkCS8frL4DmL52g/+jfL
WOgRDIr9OF1lfP8OVWBos3bn70kfPIxDW6t/y3yzRIzl+BJvoMfgLP3fjs9Yf7Iq
CzDK8M/LCD9pn1GBIUJ0NujWwfNw6V1zw2QzPqwRs1gHBfWSxufPjbhFTwf5+sCs
8yxzZ86ef0x2HY5M2B55XWg3Fz4mbuCeV3qAlgAkOL1tcsP0TsHsrfjL33vadNXn
0Lh6Yig7U9M0Ihj/eWYF+xI7xWtMtIt1muyMWqg6Y86OTfAdX2Z3o2S1nbkR5ZB3
AdRJ9UQ3KxOrpairjffx8EPURC7j4riOi0E+YIqnvnLpzFcSdfOiwaHCy1G8ahF0
y8H1vv7YSQoCER9TQCxH6VpGtbUyRS+KeyEpu3aIwAZALnckQFihQu7DylSsrWho
qq5BWx8LcIPJa4qV8vKWab5jusrvzahj2GEFrVwZL1q8ZqVgOQNrTicp5430M3q4
i1RESa+gfodjAYSObzp1cUhKjPKZAgMBAAGjYzBhMA4GA1UdDwEB/wQEAwIBBjAP
BgNVHRMBAf8EBTADAQH/MB0GA1UdDgQWBBQvy+wAjWgqE/lUgMHSxJKhQk2sOTAf
BgNVHSMEGDAWgBQvy+wAjWgqE/lUgMHSxJKhQk2sOTANBgkqhkiG9w0BAQsFAAOC
AgEAh09btEqTO0kyZSGwWlZEnuN4RF0E7VhkSe3y2PhgpfqXuml+d3hC9iZpF2XO
hw37vAVwqVXhxxFfC3P/AMZ3nlBqhcieudX7vnUP0do9K4d1rItV5rSJIKQ/b2XX
ss7nwgtacRAYl/YT6qImGJc/WSOl4F2ZZWGn5PIDrfvx8dZUjLI3iYLdTTMAIuya
k6xwkM6Pmr7n04x9cvpJMN44CBX8byW3rieLIXFv5TD0n2sWYUpf9mSyiftJnz8X
BE7XcbAJUJdLwQJbVn3x8d7YXLjKkbZTvIdW7qgleIODhzQ2P7fjTcBMmIm7zn4k
r407ptAZbd4o2ByB0ROFnW6Vy0ysCeVtMCVibEcAfkolRMjfYcRjTr5m6Rp3X7Tf
a1OjXWHnY5KjwuDfurJYX31y8rzS7nvdZSsxkyUs6Ib3Ti55d9UyGYs2+B1Q+2dV
MeGcIjk0EBUdJvxC0bq5xkNmMIk271CWBeAze4kF+qSivhXPX31bRlr//6vCb8kQ
1LOQi22C3Tb+KUa7IyfRLs8nuHHz6+P1yZquOxFDx/ekT6uSzDZqIsaWgy+A2wyy
C3KGdJCJM/TvWOCT+EcLOhj5b2lebwaLWfVRwDL9/feTZ+U28/AO03vPOsHnvBJX
ogo2108N+5MIiecxcRi/Wz/f2eehVsoIXiJyEwjMep2ewm0=
-----END CERTIFICATE-----
