Certificate:
    Data:
        Version: 3 (0x2)
        Serial Number:
            59:a4:64:5b:34:d3:7a:2b:9d:90:a2:14:27:ad:9c:78:3f:8e:3d:37
        Signature Algorithm: sha256WithRSAEncryption
        Issuer: C=NO, O=Nitpicksy, OU=Nitpicksy Certificate Authority, CN=Nitpicksy Root CA
        Validity
            Not Before: Dec 11 12:46:26 2020 GMT
            Not After : Dec 11 12:46:26 2030 GMT
        Subject: C=NO, O=Nitpicksy, OU=Nitpicksy Certificate Authority, CN=Nitpicksy TLS CA
        Subject Public Key Info:
            Public Key Algorithm: rsaEncryption
                RSA Public-Key: (4096 bit)
                Modulus:
                    00:db:67:3d:cc:f4:c2:82:ee:be:91:eb:74:42:8c:
                    66:43:f9:f2:79:50:27:c1:1d:45:e2:12:82:a5:b3:
                    d8:63:a8:23:4e:c9:9c:98:da:36:36:58:b8:e4:ad:
                    8e:7c:43:06:93:31:f4:de:85:77:02:f9:3f:ff:15:
                    c8:c4:f6:85:9c:42:27:cf:6d:f7:12:dc:c4:bc:06:
                    08:23:23:77:5c:54:73:fc:6b:db:b5:e9:50:e8:73:
                    f5:d3:43:4c:2b:7b:93:50:ec:3b:f1:20:d6:3c:e8:
                    3f:7e:a2:f6:63:14:74:87:3e:f7:76:18:1e:3b:e5:
                    b3:6a:3a:93:e2:2f:46:d0:11:f1:1e:20:1a:c4:d9:
                    4d:dd:30:b4:0f:23:ea:51:ee:80:3e:aa:67:c2:54:
                    02:05:ee:6e:bc:de:8e:b7:a8:13:60:22:2a:26:d6:
                    37:38:de:7e:7b:f9:31:ff:19:0e:06:bb:cc:fe:32:
                    ec:fe:94:32:ab:7a:48:84:ba:28:45:a4:be:95:7d:
                    de:bc:38:10:1f:e2:31:aa:a5:3e:a4:a2:dd:0c:1a:
                    5f:eb:1a:13:83:7b:b4:f4:c1:27:8f:54:b7:95:b9:
                    9c:e9:61:40:fc:cd:9a:b2:89:d1:d3:0b:e0:17:84:
                    5d:ea:b3:e4:62:6c:48:69:fe:e4:4a:73:74:47:46:
                    42:4d:b9:a8:f1:4e:8a:f9:d2:b3:d4:45:76:1f:89:
                    88:55:49:8a:1a:9e:46:4e:2d:d6:a8:9b:5b:ee:2e:
                    7c:89:c7:51:ba:45:b8:77:f0:31:24:23:8a:76:a5:
                    07:fe:9f:74:f9:30:42:8f:a2:e3:1f:87:7e:a1:18:
                    5e:68:08:d1:ce:33:97:1d:50:f5:d4:c9:1e:6b:6e:
                    e6:2e:93:e5:57:b1:35:7e:45:7a:03:10:d6:3b:43:
                    6d:db:b0:6c:8f:2f:7c:38:75:3f:31:f1:5e:e1:b0:
                    77:68:40:a2:cf:5a:aa:86:2b:91:98:a0:7f:3a:b1:
                    6c:16:fb:dc:ba:9b:45:9d:44:4c:02:f6:04:6c:4a:
                    3f:0f:57:0d:a2:a5:be:c4:00:09:85:9f:c7:af:7d:
                    43:3a:ac:38:81:aa:c7:54:40:d7:50:98:b6:8b:e4:
                    e3:e3:eb:33:79:75:44:3b:f2:04:56:ae:d1:bf:55:
                    0c:46:27:e1:c2:2e:5f:c3:1e:ed:ed:e5:0c:b2:56:
                    e5:9f:fc:44:ad:15:27:13:83:ac:a3:a9:29:78:79:
                    7f:8f:c4:a8:6a:38:85:b6:f1:3e:4f:22:4e:07:68:
                    60:f2:41:d1:5e:e4:14:ef:7d:e1:3b:70:a4:18:21:
                    78:89:52:e1:6c:37:37:ef:17:0c:da:55:f6:bc:97:
                    78:d5:7d
                Exponent: 65537 (0x10001)
        X509v3 extensions:
            X509v3 Key Usage: critical
                Certificate Sign, CRL Sign
            X509v3 Basic Constraints: critical
                CA:TRUE, pathlen:0
            X509v3 Subject Key Identifier: 
                24:68:40:4E:50:44:54:B5:B5:5E:0D:17:4E:96:BB:DA:DB:15:E4:B6
            X509v3 Authority Key Identifier: 
                keyid:BB:BA:70:F2:4D:61:72:C8:0A:21:A4:BA:05:7D:FC:AF:32:23:0E:04

            Authority Information Access: 
                CA Issuers - URI:http://nitpicksy.no/ca/root-ca.cer

            X509v3 CRL Distribution Points: 

                Full Name:
                  URI:http://nitpicksy.no/ca/root-ca.crl

    Signature Algorithm: sha256WithRSAEncryption
         8c:dc:66:38:3a:37:58:d1:9e:54:44:fc:b1:4b:e8:4d:fe:ff:
         7b:a4:5e:b1:61:fe:01:80:f3:bf:5d:be:d8:07:01:1d:88:de:
         e3:15:ae:18:00:61:21:8c:df:91:0c:95:74:a2:25:17:42:21:
         2c:5b:99:4d:8e:81:e5:56:94:86:81:bc:4c:6c:2b:10:b8:28:
         fd:38:89:1c:37:be:20:b7:ae:a0:11:91:09:65:ed:9d:01:fb:
         51:ca:74:c5:cb:87:04:01:01:20:4a:94:2f:13:ac:55:a5:d0:
         93:ea:6f:63:44:63:b6:9a:d7:9f:c3:ed:38:5d:ca:dc:17:87:
         0f:85:12:2e:8a:55:74:6e:40:18:04:81:10:e3:5b:0d:49:a4:
         93:db:33:ab:86:85:01:d2:62:90:e6:01:c0:2e:b0:c8:c8:9f:
         bf:f6:10:fc:9d:b6:50:b7:75:59:d7:39:9e:ea:69:f4:d7:38:
         65:22:91:06:37:76:b8:41:f1:a6:8a:fe:76:cc:ef:8f:75:6c:
         aa:e4:b3:82:ec:55:ea:14:90:e0:a8:cc:a8:1d:1e:b3:99:39:
         a5:01:23:38:4e:56:dd:fd:78:e0:df:8f:e6:1a:d8:bb:ae:93:
         f6:4b:a5:79:23:04:2a:0b:24:b1:76:87:e1:58:72:35:55:f3:
         f3:2f:86:a4:bb:24:aa:a0:a1:a3:25:a8:c4:2f:5f:5f:93:14:
         2c:ef:5c:e2:49:82:f3:45:3e:70:99:6f:3e:35:b2:ae:c3:94:
         a2:d5:5b:6e:9b:f1:c2:a1:b0:93:2b:c2:c0:62:ed:b5:62:ef:
         1e:b5:d6:1b:03:53:45:5e:c3:b2:96:d0:16:02:44:ca:4f:98:
         c4:cb:7d:8f:b0:75:65:0d:b9:f6:80:2a:98:63:be:1d:54:8d:
         00:bb:40:55:e6:e8:00:5c:f8:47:7b:f3:74:0b:f0:b0:75:08:
         b7:e1:0f:ae:e8:05:5a:5d:8b:54:68:c8:dc:ed:b2:61:0e:93:
         6e:93:39:62:0c:8c:1c:e3:2c:0f:ac:90:d3:e6:e8:25:b4:e1:
         9b:44:0b:55:ad:e0:e4:08:f1:d1:8c:e0:f8:61:34:bf:85:39:
         00:0e:5d:55:f4:fa:cb:11:e5:49:77:eb:72:97:66:2f:a6:10:
         c7:c6:52:24:f2:ac:66:ec:09:2b:b1:ef:86:ee:36:39:d6:6f:
         b3:33:45:69:6f:02:ec:01:2c:9a:7d:08:5f:99:ac:ca:42:f8:
         74:f8:a7:51:e8:77:48:42:b4:77:91:1c:c5:f8:7b:d4:fa:f0:
         ea:ed:ff:58:1d:dc:db:e2:0f:17:7b:dc:7f:b9:0c:a4:b4:42:
         ae:e2:cd:93:42:79:ee:4a
-----BEGIN CERTIFICATE-----
MIIGODCCBCCgAwIBAgIUWaRkWzTTeiudkKIUJ62ceD+OPTcwDQYJKoZIhvcNAQEL
BQAwZzELMAkGA1UEBhMCTk8xEjAQBgNVBAoMCU5pdHBpY2tzeTEoMCYGA1UECwwf
Tml0cGlja3N5IENlcnRpZmljYXRlIEF1dGhvcml0eTEaMBgGA1UEAwwRTml0cGlj
a3N5IFJvb3QgQ0EwHhcNMjAxMjExMTI0NjI2WhcNMzAxMjExMTI0NjI2WjBmMQsw
CQYDVQQGEwJOTzESMBAGA1UECgwJTml0cGlja3N5MSgwJgYDVQQLDB9OaXRwaWNr
c3kgQ2VydGlmaWNhdGUgQXV0aG9yaXR5MRkwFwYDVQQDDBBOaXRwaWNrc3kgVExT
IENBMIICIjANBgkqhkiG9w0BAQEFAAOCAg8AMIICCgKCAgEA22c9zPTCgu6+ket0
QoxmQ/nyeVAnwR1F4hKCpbPYY6gjTsmcmNo2Nli45K2OfEMGkzH03oV3Avk//xXI
xPaFnEInz233EtzEvAYIIyN3XFRz/GvbtelQ6HP100NMK3uTUOw78SDWPOg/fqL2
YxR0hz73dhgeO+WzajqT4i9G0BHxHiAaxNlN3TC0DyPqUe6APqpnwlQCBe5uvN6O
t6gTYCIqJtY3ON5+e/kx/xkOBrvM/jLs/pQyq3pIhLooRaS+lX3evDgQH+IxqqU+
pKLdDBpf6xoTg3u09MEnj1S3lbmc6WFA/M2asonR0wvgF4Rd6rPkYmxIaf7kSnN0
R0ZCTbmo8U6K+dKz1EV2H4mIVUmKGp5GTi3WqJtb7i58icdRukW4d/AxJCOKdqUH
/p90+TBCj6LjH4d+oRheaAjRzjOXHVD11Mkea27mLpPlV7E1fkV6AxDWO0Nt27Bs
jy98OHU/MfFe4bB3aECiz1qqhiuRmKB/OrFsFvvcuptFnURMAvYEbEo/D1cNoqW+
xAAJhZ/Hr31DOqw4garHVEDXUJi2i+Tj4+szeXVEO/IEVq7Rv1UMRifhwi5fwx7t
7eUMslbln/xErRUnE4Oso6kpeHl/j8SoajiFtvE+TyJOB2hg8kHRXuQU733hO3Ck
GCF4iVLhbDc37xcM2lX2vJd41X0CAwEAAaOB3DCB2TAOBgNVHQ8BAf8EBAMCAQYw
EgYDVR0TAQH/BAgwBgEB/wIBADAdBgNVHQ4EFgQUJGhATlBEVLW1Xg0XTpa72tsV
5LYwHwYDVR0jBBgwFoAUu7pw8k1hcsgKIaS6BX38rzIjDgQwPgYIKwYBBQUHAQEE
MjAwMC4GCCsGAQUFBzAChiJodHRwOi8vbml0cGlja3N5Lm5vL2NhL3Jvb3QtY2Eu
Y2VyMDMGA1UdHwQsMCowKKAmoCSGImh0dHA6Ly9uaXRwaWNrc3kubm8vY2Evcm9v
dC1jYS5jcmwwDQYJKoZIhvcNAQELBQADggIBAIzcZjg6N1jRnlRE/LFL6E3+/3uk
XrFh/gGA879dvtgHAR2I3uMVrhgAYSGM35EMlXSiJRdCISxbmU2OgeVWlIaBvExs
KxC4KP04iRw3viC3rqARkQll7Z0B+1HKdMXLhwQBASBKlC8TrFWl0JPqb2NEY7aa
15/D7ThdytwXhw+FEi6KVXRuQBgEgRDjWw1JpJPbM6uGhQHSYpDmAcAusMjIn7/2
EPydtlC3dVnXOZ7qafTXOGUikQY3drhB8aaK/nbM7491bKrks4LsVeoUkOCozKgd
HrOZOaUBIzhOVt39eODfj+Ya2Luuk/ZLpXkjBCoLJLF2h+FYcjVV8/MvhqS7JKqg
oaMlqMQvX1+TFCzvXOJJgvNFPnCZbz41sq7DlKLVW26b8cKhsJMrwsBi7bVi7x61
1hsDU0Vew7KW0BYCRMpPmMTLfY+wdWUNufaAKphjvh1UjQC7QFXm6ABc+Ed783QL
8LB1CLfhD67oBVpdi1RoyNztsmEOk26TOWIMjBzjLA+skNPm6CW04ZtEC1Wt4OQI
8dGM4PhhNL+FOQAOXVX0+ssR5Ul363KXZi+mEMfGUiTyrGbsCSux74buNjnWb7Mz
RWlvAuwBLJp9CF+ZrMpC+HT4p1Hod0hCtHeRHMX4e9T68Ort/1gd3NviDxd73H+5
DKS0Qq7izZNCee5K
-----END CERTIFICATE-----
