Certificate:
    Data:
        Version: 3 (0x2)
        Serial Number:
            5b:60:79:62:c5:27:19:ee:f1:f7:b7:c5:31:6b:fe:ac:dd:6f:cf:d7
        Signature Algorithm: sha256WithRSAEncryption
        Issuer: C=NO, O=Nitpicksy, OU=Nitpicksy Certificate Authority, CN=Nitpicksy TLS CA
        Validity
            Not Before: Dec  6 22:39:36 2020 GMT
            Not After : Dec  6 22:39:36 2022 GMT
        Subject: C=NO, O=Nitpicksy, OU=Nitpicksy Certificate Authority, CN=Paypal
        Subject Public Key Info:
            Public Key Algorithm: rsaEncryption
                RSA Public-Key: (4096 bit)
                Modulus:
                    00:a3:fb:38:91:fe:5e:2f:c7:38:9d:93:00:47:5b:
                    b7:c2:f6:68:76:20:71:ba:9d:8e:5d:66:65:eb:05:
                    dc:24:c7:27:31:7a:13:fc:68:c3:8e:59:d1:86:7c:
                    db:5c:2e:6c:f7:a1:92:77:e3:25:10:ae:4a:f4:6a:
                    db:fa:9a:95:3b:b0:e1:59:e2:10:2c:84:c2:df:0d:
                    6a:75:f3:8f:32:8c:9a:b5:74:9c:60:65:9c:98:e5:
                    27:17:cd:f4:e0:40:c1:2b:04:b2:55:b1:63:5c:a0:
                    49:71:1f:6f:de:e3:5f:75:13:45:65:83:9f:07:ca:
                    fb:71:6c:91:44:da:4c:9f:e8:f8:6a:d6:8e:9e:f2:
                    b8:d6:af:19:f9:50:76:77:93:5c:d8:e9:b2:aa:61:
                    9d:d8:45:a9:9f:99:62:58:63:f0:f2:2e:c5:33:52:
                    df:c0:66:6a:20:0c:33:9a:14:27:a9:9d:5d:f4:0d:
                    49:4f:50:a7:a7:11:ce:20:ad:b7:a4:b2:21:c4:f4:
                    a7:e4:d6:87:fb:9a:eb:6f:9e:17:62:41:84:9f:34:
                    82:b3:c5:d4:f9:bf:2c:d5:cd:87:d0:aa:c1:d1:80:
                    14:87:a7:61:fe:50:48:f5:18:f1:78:d6:7a:46:56:
                    2c:93:25:57:f1:61:c0:a3:82:7c:7f:f8:5e:02:4c:
                    0f:b7:a4:a4:0d:1e:d1:3b:98:4d:35:a4:5b:36:4c:
                    2a:6f:35:32:25:1d:9c:43:6f:47:b9:b6:26:5b:50:
                    fa:dd:45:fc:61:2f:75:1a:12:89:91:fd:f4:19:1a:
                    cb:8e:ce:63:81:a3:da:af:86:e6:ff:70:38:4f:60:
                    6b:b4:58:46:aa:58:12:9d:5f:bf:c4:5c:fa:b2:9e:
                    f0:44:07:da:2d:a8:13:33:2a:03:9e:57:32:cf:44:
                    66:08:03:01:60:b3:6d:3a:3e:52:16:b1:cc:68:cd:
                    6c:9b:05:b2:e1:fc:8a:be:53:a4:c7:40:7b:c6:f9:
                    87:5f:ac:a3:8d:40:65:a6:aa:8c:16:58:33:35:d5:
                    00:a1:64:74:ed:cd:8f:d5:e4:f3:29:a1:1c:20:6c:
                    2b:7c:e2:87:ea:d8:ea:26:4d:03:5d:9a:cc:b7:28:
                    35:8d:84:c4:1c:30:bc:55:d2:57:70:08:d8:aa:b2:
                    16:0a:b9:88:21:89:11:a5:5d:eb:84:17:f7:13:15:
                    c4:24:bc:38:c8:ad:85:32:7d:d1:94:f9:5c:c5:f0:
                    11:57:5b:cd:50:06:51:10:ae:98:26:ee:ca:79:f7:
                    89:98:3a:9c:4c:96:40:31:79:eb:9b:b7:53:21:8f:
                    05:75:64:b3:4a:5a:7e:84:b1:df:c0:cf:83:87:a1:
                    3d:c3:5b
                Exponent: 65537 (0x10001)
        X509v3 extensions:
            X509v3 Key Usage: critical
                Digital Signature, Key Encipherment
            X509v3 Basic Constraints: 
                CA:FALSE
            X509v3 Extended Key Usage: 
                TLS Web Server Authentication, TLS Web Client Authentication
            X509v3 Subject Key Identifier: 
                AA:09:7E:1B:50:1C:68:90:4E:34:59:96:62:27:A6:28:8A:12:DA:13
            X509v3 Authority Key Identifier: 
                keyid:83:CC:02:D6:E0:31:A6:2D:8E:F8:85:43:99:55:48:F6:21:22:90:49

            Authority Information Access: 
                CA Issuers - URI:http://nitpicksy.no/ca/tls-ca.cer

            X509v3 CRL Distribution Points: 

                Full Name:
                  URI:http://nitpicksy.no/ca/tls-ca.crl

            X509v3 Subject Alternative Name: 
                DNS:nitpicksy.no, DNS:www.nitpicksy.no, DNS:localhost
    Signature Algorithm: sha256WithRSAEncryption
         c3:6e:08:5e:03:18:7e:68:16:77:61:51:c5:11:85:7e:1f:8e:
         5c:5a:62:8c:f1:92:6a:f3:9a:32:e0:31:1a:7a:35:cf:57:6a:
         27:e0:73:ef:c5:2f:9c:6c:cb:ec:92:58:b4:91:9f:19:08:b7:
         1e:27:fb:5b:4a:7a:9b:81:1a:83:1d:23:97:23:35:c2:d4:9d:
         52:d0:b0:15:7e:f6:76:c3:38:f9:c4:5f:9c:be:3a:20:1b:55:
         5a:73:71:cf:71:c9:4f:53:2e:24:13:c8:c4:4a:4b:53:a0:0e:
         09:97:67:46:a8:42:0e:0e:27:7d:6b:8e:b0:8f:62:ae:c5:c1:
         67:7b:85:d0:18:8e:40:6f:cc:ab:3a:c0:c7:08:f3:55:43:d0:
         0a:e0:80:4a:90:a3:cc:aa:b0:30:5f:5e:74:f1:de:c2:ce:71:
         91:ad:a8:1f:8a:f7:f8:ca:f7:d9:a6:df:86:f3:51:ea:da:f1:
         72:ad:7b:2c:fd:b9:4e:cd:70:a1:97:d4:ed:23:a8:5d:30:af:
         76:44:94:f7:15:15:43:3b:e8:54:73:f4:4b:49:a7:63:10:27:
         50:f3:9e:8d:2b:46:ff:f1:7d:38:e4:ba:05:27:d7:b3:2d:9a:
         a3:51:7a:63:28:76:0d:42:da:9d:bb:57:bf:47:81:3d:41:fd:
         33:a8:12:a4:98:fe:91:02:50:48:3b:48:37:13:e5:ac:1b:eb:
         3c:6c:12:8e:36:65:ba:2f:fe:d0:b3:f0:43:68:bb:32:63:b5:
         77:9b:00:94:43:f9:0a:60:10:9c:e1:3f:22:04:9d:9b:b7:84:
         fa:f3:f4:0b:13:1f:48:d0:9d:54:da:45:60:16:3c:7f:9d:92:
         6d:f4:a1:07:b5:ce:57:b7:e8:1f:2d:14:87:fb:1f:62:01:21:
         5b:7e:59:ba:53:71:a6:d9:d9:8c:22:72:a9:ff:15:c3:69:10:
         d3:e7:f2:29:e7:5d:2e:ed:8b:7e:bc:9d:c9:3b:aa:cb:0a:93:
         ab:5b:9f:62:15:05:e6:0e:af:c2:8d:04:ba:55:87:ec:6c:5a:
         fe:fd:ca:99:41:9c:12:b6:2a:62:f3:2a:97:ae:75:d9:1a:e7:
         8c:63:b4:de:4b:3e:0a:65:13:83:47:0c:17:83:f9:0a:df:91:
         c7:17:2b:e9:35:1d:1c:9b:ab:70:32:a9:55:be:8d:80:19:7f:
         86:d6:ab:ed:5a:25:11:1f:f4:6e:87:29:b2:b7:06:f1:94:e0:
         5a:e4:eb:0d:3f:09:3c:a0:7b:51:2c:fc:73:fe:32:54:5c:f3:
         74:fa:4d:98:f2:70:4a:f0:d8:98:48:0e:e5:4a:0f:97:14:64:
         d8:8f:a2:47:3e:77:e1:f1
-----BEGIN CERTIFICATE-----
MIIGeTCCBGGgAwIBAgIUW2B5YsUnGe7x97fFMWv+rN1vz9cwDQYJKoZIhvcNAQEL
BQAwZjELMAkGA1UEBhMCTk8xEjAQBgNVBAoMCU5pdHBpY2tzeTEoMCYGA1UECwwf
Tml0cGlja3N5IENlcnRpZmljYXRlIEF1dGhvcml0eTEZMBcGA1UEAwwQTml0cGlj
a3N5IFRMUyBDQTAeFw0yMDEyMDYyMjM5MzZaFw0yMjEyMDYyMjM5MzZaMFwxCzAJ
BgNVBAYTAk5PMRIwEAYDVQQKDAlOaXRwaWNrc3kxKDAmBgNVBAsMH05pdHBpY2tz
eSBDZXJ0aWZpY2F0ZSBBdXRob3JpdHkxDzANBgNVBAMMBlBheXBhbDCCAiIwDQYJ
KoZIhvcNAQEBBQADggIPADCCAgoCggIBAKP7OJH+Xi/HOJ2TAEdbt8L2aHYgcbqd
jl1mZesF3CTHJzF6E/xow45Z0YZ821wubPehknfjJRCuSvRq2/qalTuw4VniECyE
wt8NanXzjzKMmrV0nGBlnJjlJxfN9OBAwSsEslWxY1ygSXEfb97jX3UTRWWDnwfK
+3FskUTaTJ/o+GrWjp7yuNavGflQdneTXNjpsqphndhFqZ+ZYlhj8PIuxTNS38Bm
aiAMM5oUJ6mdXfQNSU9Qp6cRziCtt6SyIcT0p+TWh/ua62+eF2JBhJ80grPF1Pm/
LNXNh9CqwdGAFIenYf5QSPUY8XjWekZWLJMlV/FhwKOCfH/4XgJMD7ekpA0e0TuY
TTWkWzZMKm81MiUdnENvR7m2JltQ+t1F/GEvdRoSiZH99Bkay47OY4Gj2q+G5v9w
OE9ga7RYRqpYEp1fv8Rc+rKe8EQH2i2oEzMqA55XMs9EZggDAWCzbTo+UhaxzGjN
bJsFsuH8ir5TpMdAe8b5h1+so41AZaaqjBZYMzXVAKFkdO3Nj9Xk8ymhHCBsK3zi
h+rY6iZNA12azLcoNY2ExBwwvFXSV3AI2KqyFgq5iCGJEaVd64QX9xMVxCS8OMit
hTJ90ZT5XMXwEVdbzVAGURCumCbuynn3iZg6nEyWQDF565u3UyGPBXVks0pafoSx
38DPg4ehPcNbAgMBAAGjggEnMIIBIzAOBgNVHQ8BAf8EBAMCBaAwCQYDVR0TBAIw
ADAdBgNVHSUEFjAUBggrBgEFBQcDAQYIKwYBBQUHAwIwHQYDVR0OBBYEFKoJfhtQ
HGiQTjRZlmInpiiKEtoTMB8GA1UdIwQYMBaAFIPMAtbgMaYtjviFQ5lVSPYhIpBJ
MD0GCCsGAQUFBwEBBDEwLzAtBggrBgEFBQcwAoYhaHR0cDovL25pdHBpY2tzeS5u
by9jYS90bHMtY2EuY2VyMDIGA1UdHwQrMCkwJ6AloCOGIWh0dHA6Ly9uaXRwaWNr
c3kubm8vY2EvdGxzLWNhLmNybDA0BgNVHREELTArggxuaXRwaWNrc3kubm+CEHd3
dy5uaXRwaWNrc3kubm+CCWxvY2FsaG9zdDANBgkqhkiG9w0BAQsFAAOCAgEAw24I
XgMYfmgWd2FRxRGFfh+OXFpijPGSavOaMuAxGno1z1dqJ+Bz78UvnGzL7JJYtJGf
GQi3Hif7W0p6m4Eagx0jlyM1wtSdUtCwFX72dsM4+cRfnL46IBtVWnNxz3HJT1Mu
JBPIxEpLU6AOCZdnRqhCDg4nfWuOsI9irsXBZ3uF0BiOQG/MqzrAxwjzVUPQCuCA
SpCjzKqwMF9edPHews5xka2oH4r3+Mr32abfhvNR6trxcq17LP25Ts1woZfU7SOo
XTCvdkSU9xUVQzvoVHP0S0mnYxAnUPOejStG//F9OOS6BSfXsy2ao1F6Yyh2DULa
nbtXv0eBPUH9M6gSpJj+kQJQSDtINxPlrBvrPGwSjjZlui/+0LPwQ2i7MmO1d5sA
lEP5CmAQnOE/IgSdm7eE+vP0CxMfSNCdVNpFYBY8f52SbfShB7XOV7foHy0Uh/sf
YgEhW35ZulNxptnZjCJyqf8Vw2kQ0+fyKeddLu2LfrydyTuqywqTq1ufYhUF5g6v
wo0EulWH7Gxa/v3KmUGcErYqYvMql6512RrnjGO03ks+CmUTg0cMF4P5Ct+Rxxcr
6TUdHJurcDKpVb6NgBl/htar7VolER/0bocpsrcG8ZTgWuTrDT8JPKB7USz8c/4y
VFzzdPpNmPJwSvDYmEgO5UoPlxRk2I+iRz534fE=
-----END CERTIFICATE-----
