Certificate:
    Data:
        Version: 3 (0x2)
        Serial Number:
            18:84:83:a6:01:72:9b:a5:a9:68:68:b2:ff:a3:f1:cb:14:e9:4a:0b
        Signature Algorithm: sha256WithRSAEncryption
        Issuer: C=NO, O=Nitpicksy, OU=Nitpicksy Certificate Authority, CN=Nitpicksy TLS CA
        Validity
            Not Before: Dec 11 12:46:30 2020 GMT
            Not After : Dec 11 12:46:30 2022 GMT
        Subject: C=NO, O=Nitpicksy, OU=Nitpicksy Certificate Authority, CN=Paypal
        Subject Public Key Info:
            Public Key Algorithm: rsaEncryption
                RSA Public-Key: (4096 bit)
                Modulus:
                    00:cd:22:e3:41:3d:48:20:b0:fc:30:5e:26:53:c1:
                    ca:0e:70:ac:49:17:c2:0b:95:33:b9:a3:fa:0c:1e:
                    57:fa:66:df:ca:18:c2:50:b9:fc:7b:2e:b0:61:05:
                    08:8d:a0:c7:97:41:84:56:0d:9b:58:48:c0:07:10:
                    84:54:c8:7e:36:44:ff:44:fa:ce:fa:f4:8b:d2:8e:
                    58:46:82:21:e4:a9:c1:62:0c:31:ad:f9:53:9c:b5:
                    6d:d6:0d:63:4d:5e:3d:a5:df:80:88:ab:fb:d4:a8:
                    6c:10:8b:70:af:1f:2e:d0:10:f9:7c:52:c7:77:3d:
                    7d:50:6b:9a:48:40:ce:c2:cd:32:3c:86:77:79:16:
                    db:7d:f0:9a:9f:1f:29:59:10:2e:35:4b:bb:48:25:
                    67:08:2e:56:00:b9:e3:f9:28:9c:f4:0d:46:b0:10:
                    d7:c5:5c:4c:db:2d:2d:2e:a9:0a:49:c4:39:03:79:
                    4e:ae:10:0c:17:9c:7c:b6:aa:d5:f1:b0:09:c6:48:
                    45:3c:e2:dc:b6:65:c1:aa:84:31:04:39:d3:07:4b:
                    c8:f6:62:06:92:d4:56:47:8f:9e:66:ea:b0:08:47:
                    ba:8b:11:7f:c3:5c:28:8c:a1:f1:d8:64:4f:56:91:
                    0e:69:0b:ce:9f:ec:d8:79:7c:e1:e1:39:90:01:f5:
                    90:9e:df:55:f2:9f:5b:78:ef:fd:79:20:f1:b4:0f:
                    38:df:d1:48:18:e4:11:35:e9:48:c8:98:2d:45:70:
                    de:67:9c:b3:28:90:d4:fa:10:7c:68:6d:6d:99:f9:
                    6f:d9:10:52:fc:dc:ae:8a:b0:32:15:1b:14:78:9c:
                    0c:ea:e4:3c:15:2b:89:b2:6b:fd:40:b4:28:25:cb:
                    1a:d0:1a:7b:7d:de:03:60:23:78:0c:da:7d:f0:58:
                    85:b2:40:cd:83:d2:6a:68:02:86:8d:52:d9:4e:d9:
                    65:8f:be:d8:90:e9:ee:de:40:95:03:8d:8e:40:3d:
                    c4:ac:90:7b:8f:a7:33:d6:cc:61:f9:73:a6:a3:a7:
                    42:f7:b2:05:b7:0e:dc:ed:15:10:28:b4:42:81:51:
                    86:37:c9:f5:b2:1d:b1:46:ae:44:9d:2d:15:3f:b8:
                    f7:7a:cb:5e:69:95:93:4c:ec:00:7f:43:4d:39:b0:
                    ca:41:35:f4:1c:67:79:c7:0e:62:d0:e4:ef:28:5e:
                    2a:6d:bf:d1:7a:7d:14:2c:fe:d3:0e:f3:6c:cc:fd:
                    56:25:3a:ac:cd:71:da:3c:2c:f9:3e:56:7b:4e:54:
                    bd:19:f5:b5:9d:b6:8f:52:65:72:f6:20:81:d7:28:
                    bb:1a:1a:75:97:d7:a6:68:ff:9d:21:9c:be:ca:5c:
                    db:49:19
                Exponent: 65537 (0x10001)
        X509v3 extensions:
            X509v3 Key Usage: critical
                Digital Signature, Key Encipherment
            X509v3 Basic Constraints: 
                CA:FALSE
            X509v3 Extended Key Usage: 
                TLS Web Server Authentication, TLS Web Client Authentication
            X509v3 Subject Key Identifier: 
                FF:42:6E:7B:F4:C7:EE:EB:A9:0E:6E:F7:4D:31:09:28:F9:86:7B:23
            X509v3 Authority Key Identifier: 
                keyid:24:68:40:4E:50:44:54:B5:B5:5E:0D:17:4E:96:BB:DA:DB:15:E4:B6

            Authority Information Access: 
                CA Issuers - URI:http://nitpicksy.no/ca/tls-ca.cer

            X509v3 CRL Distribution Points: 

                Full Name:
                  URI:http://nitpicksy.no/ca/tls-ca.crl

            X509v3 Subject Alternative Name: 
                DNS:nitpicksy.no, DNS:www.nitpicksy.no, DNS:localhost, IP Address:127.0.0.1, IP Address:192.168.64.169
    Signature Algorithm: sha256WithRSAEncryption
         68:f4:05:51:1b:5f:ba:45:0a:a7:96:f2:da:41:c5:b9:5b:83:
         b7:7b:7b:93:b1:33:92:b9:3c:9f:6a:fb:2d:43:f9:42:96:f9:
         49:e1:94:20:91:1f:06:45:a8:cc:30:9e:10:22:c5:3b:56:20:
         11:09:71:72:09:77:df:1e:4f:18:ce:29:34:9a:74:08:82:bb:
         b2:64:62:bf:bd:e5:d6:71:a7:08:99:9b:2c:f1:2c:57:5c:60:
         46:84:89:92:f0:04:76:85:71:61:24:f8:4d:1e:a1:01:6f:3b:
         7e:a3:6f:48:92:07:b6:26:3b:cf:ee:be:a7:3b:3d:b2:cc:52:
         75:56:08:e0:5c:ac:a8:87:00:c0:f2:6d:04:93:42:16:f2:10:
         6b:af:51:de:e2:06:fd:f9:51:4a:c0:dc:26:c4:2d:36:3b:b5:
         6b:c0:0c:f6:cc:c7:fc:b7:95:6a:95:d1:a7:3f:cf:41:05:9a:
         de:49:dd:3e:a4:78:4f:54:a6:9c:b0:b5:f0:f1:d6:fb:08:75:
         87:ee:1b:e5:ea:7f:24:b6:61:5d:85:6d:d4:80:59:29:51:38:
         60:f2:f9:a1:98:ca:64:25:3c:98:37:a7:cf:55:44:55:a6:6f:
         42:d6:de:f7:a3:1f:76:26:d3:46:87:ef:a0:d1:c2:2c:78:18:
         ce:55:83:f0:3d:a6:e0:5e:7b:2d:5b:88:44:25:84:ad:7d:99:
         7e:99:f9:a3:2b:c1:37:7b:0a:78:84:0b:52:1d:d8:47:d5:60:
         e1:23:3f:43:ec:6e:86:f8:3f:19:b7:3c:e7:9e:30:31:50:d4:
         cf:60:b8:d9:65:7d:9e:2b:1a:23:26:4e:30:f4:13:2e:a5:ee:
         b4:eb:34:ee:c5:f6:b7:52:e4:a3:08:59:de:de:26:61:4a:a3:
         8b:e7:c0:09:d1:37:46:4f:54:53:e6:3f:2b:f7:b8:d1:eb:1d:
         62:25:f9:ae:55:86:41:eb:40:26:33:2a:f0:e3:d1:4f:34:fa:
         97:39:d4:61:cd:ba:8d:c8:cf:a0:45:cb:8d:9b:26:17:f9:88:
         f6:76:ba:ff:b4:74:0e:d7:c4:66:92:c6:cb:82:ab:95:ba:b0:
         bd:85:69:97:ff:3e:42:0d:ba:2c:73:e9:07:8c:d6:cf:39:cb:
         8d:b3:77:df:71:3c:c8:0a:79:f1:33:85:65:50:8c:22:89:9f:
         ca:75:17:89:62:2c:cf:5f:7d:48:79:39:fc:a3:c6:6b:e0:94:
         75:50:4e:05:a9:7f:89:ed:50:24:a6:3a:37:47:ea:d1:9e:68:
         e1:ef:62:5d:95:c6:40:1e:bb:be:a3:73:a8:d9:bd:16:8b:20:
         a4:4c:d0:13:b2:dd:5c:32
-----BEGIN CERTIFICATE-----
MIIGhTCCBG2gAwIBAgIUGISDpgFym6WpaGiy/6PxyxTpSgswDQYJKoZIhvcNAQEL
BQAwZjELMAkGA1UEBhMCTk8xEjAQBgNVBAoMCU5pdHBpY2tzeTEoMCYGA1UECwwf
Tml0cGlja3N5IENlcnRpZmljYXRlIEF1dGhvcml0eTEZMBcGA1UEAwwQTml0cGlj
a3N5IFRMUyBDQTAeFw0yMDEyMTExMjQ2MzBaFw0yMjEyMTExMjQ2MzBaMFwxCzAJ
BgNVBAYTAk5PMRIwEAYDVQQKDAlOaXRwaWNrc3kxKDAmBgNVBAsMH05pdHBpY2tz
eSBDZXJ0aWZpY2F0ZSBBdXRob3JpdHkxDzANBgNVBAMMBlBheXBhbDCCAiIwDQYJ
KoZIhvcNAQEBBQADggIPADCCAgoCggIBAM0i40E9SCCw/DBeJlPByg5wrEkXwguV
M7mj+gweV/pm38oYwlC5/HsusGEFCI2gx5dBhFYNm1hIwAcQhFTIfjZE/0T6zvr0
i9KOWEaCIeSpwWIMMa35U5y1bdYNY01ePaXfgIir+9SobBCLcK8fLtAQ+XxSx3c9
fVBrmkhAzsLNMjyGd3kW233wmp8fKVkQLjVLu0glZwguVgC54/konPQNRrAQ18Vc
TNstLS6pCknEOQN5Tq4QDBecfLaq1fGwCcZIRTzi3LZlwaqEMQQ50wdLyPZiBpLU
VkePnmbqsAhHuosRf8NcKIyh8dhkT1aRDmkLzp/s2Hl84eE5kAH1kJ7fVfKfW3jv
/Xkg8bQPON/RSBjkETXpSMiYLUVw3mecsyiQ1PoQfGhtbZn5b9kQUvzcroqwMhUb
FHicDOrkPBUribJr/UC0KCXLGtAae33eA2AjeAzaffBYhbJAzYPSamgCho1S2U7Z
ZY++2JDp7t5AlQONjkA9xKyQe4+nM9bMYflzpqOnQveyBbcO3O0VECi0QoFRhjfJ
9bIdsUauRJ0tFT+493rLXmmVk0zsAH9DTTmwykE19BxneccOYtDk7yheKm2/0Xp9
FCz+0w7zbMz9ViU6rM1x2jws+T5We05UvRn1tZ22j1JlcvYggdcouxoadZfXpmj/
nSGcvspc20kZAgMBAAGjggEzMIIBLzAOBgNVHQ8BAf8EBAMCBaAwCQYDVR0TBAIw
ADAdBgNVHSUEFjAUBggrBgEFBQcDAQYIKwYBBQUHAwIwHQYDVR0OBBYEFP9Cbnv0
x+7rqQ5u900xCSj5hnsjMB8GA1UdIwQYMBaAFCRoQE5QRFS1tV4NF06Wu9rbFeS2
MD0GCCsGAQUFBwEBBDEwLzAtBggrBgEFBQcwAoYhaHR0cDovL25pdHBpY2tzeS5u
by9jYS90bHMtY2EuY2VyMDIGA1UdHwQrMCkwJ6AloCOGIWh0dHA6Ly9uaXRwaWNr
c3kubm8vY2EvdGxzLWNhLmNybDBABgNVHREEOTA3ggxuaXRwaWNrc3kubm+CEHd3
dy5uaXRwaWNrc3kubm+CCWxvY2FsaG9zdIcEfwAAAYcEwKhAqTANBgkqhkiG9w0B
AQsFAAOCAgEAaPQFURtfukUKp5by2kHFuVuDt3t7k7Ezkrk8n2r7LUP5Qpb5SeGU
IJEfBkWozDCeECLFO1YgEQlxcgl33x5PGM4pNJp0CIK7smRiv73l1nGnCJmbLPEs
V1xgRoSJkvAEdoVxYST4TR6hAW87fqNvSJIHtiY7z+6+pzs9ssxSdVYI4FysqIcA
wPJtBJNCFvIQa69R3uIG/flRSsDcJsQtNju1a8AM9szH/LeVapXRpz/PQQWa3knd
PqR4T1SmnLC18PHW+wh1h+4b5ep/JLZhXYVt1IBZKVE4YPL5oZjKZCU8mDenz1VE
VaZvQtbe96MfdibTRofvoNHCLHgYzlWD8D2m4F57LVuIRCWErX2Zfpn5oyvBN3sK
eIQLUh3YR9Vg4SM/Q+xuhvg/Gbc8554wMVDUz2C42WV9nisaIyZOMPQTLqXutOs0
7sX2t1LkowhZ3t4mYUqji+fACdE3Rk9UU+Y/K/e40esdYiX5rlWGQetAJjMq8OPR
TzT6lznUYc26jcjPoEXLjZsmF/mI9na6/7R0DtfEZpLGy4KrlbqwvYVpl/8+Qg26
LHPpB4zWzznLjbN333E8yAp58TOFZVCMIomfynUXiWIsz199SHk5/KPGa+CUdVBO
Bal/ie1QJKY6N0fq0Z5o4e9iXZXGQB67vqNzqNm9FosgpEzQE7LdXDI=
-----END CERTIFICATE-----
