Certificate:
    Data:
        Version: 3 (0x2)
        Serial Number:
            02:9f:47:58:b1:c8:b8:25:e5:e9:1e:6f:a4:e8:8c:df:ec:d3:a2:a8
        Signature Algorithm: sha256WithRSAEncryption
        Issuer: C=NO, O=Nitpicksy, OU=Nitpicksy Certificate Authority, CN=Nitpicksy Root CA
        Validity
            Not Before: Dec 11 23:35:50 2020 GMT
            Not After : Dec 11 23:35:50 2030 GMT
        Subject: C=NO, O=Nitpicksy, OU=Nitpicksy Certificate Authority, CN=Nitpicksy Root CA
        Subject Public Key Info:
            Public Key Algorithm: rsaEncryption
                RSA Public-Key: (4096 bit)
                Modulus:
                    00:b3:59:a0:42:c5:fb:78:fb:64:ff:eb:5c:1d:86:
                    8b:0b:dc:ea:8f:d0:e7:8e:fa:95:5f:ac:c5:8a:3b:
                    d0:c1:05:85:3b:dd:16:df:92:37:c7:d2:ab:e4:d6:
                    55:e8:8f:b8:6c:8f:55:6d:7c:53:eb:40:93:50:01:
                    b8:bf:8e:f0:86:64:79:35:70:63:ab:98:64:c3:07:
                    b0:40:f8:aa:3d:24:45:6d:3f:4d:98:bb:4b:1c:da:
                    a9:c8:5e:f3:46:49:2e:c7:08:34:48:bd:17:93:91:
                    47:6d:8f:2e:b8:48:ea:2b:88:ff:08:44:3a:4b:6f:
                    b5:ac:02:2e:88:53:39:3f:32:83:7a:bb:d5:0a:b4:
                    cb:76:d3:8c:8e:bc:97:3a:d9:a4:07:44:77:9b:93:
                    55:6d:4b:ac:64:0d:fa:53:61:23:37:44:57:4c:e8:
                    00:13:12:96:d6:7b:68:04:76:16:64:ed:f9:8b:e8:
                    de:e3:45:9b:ad:ca:3e:37:52:a7:33:56:0c:22:11:
                    9f:21:72:73:f0:53:99:39:a0:a9:69:ae:d4:07:3b:
                    c5:ef:4e:d4:69:d7:f7:6f:52:19:ea:d3:11:2a:ac:
                    07:c8:61:17:ea:a2:e3:44:f5:03:05:88:69:fa:1e:
                    58:e7:cd:27:9d:5e:46:6e:f0:b3:31:75:31:c9:87:
                    bf:b1:4e:62:6a:21:88:af:b3:2d:20:ab:4e:a4:76:
                    e7:63:7e:86:d4:9c:12:4e:bf:0d:53:67:ce:09:3d:
                    c0:e9:b5:34:b7:c0:b0:f2:61:e0:9c:1b:0d:29:5c:
                    ef:a1:f2:58:a2:b4:6f:69:dc:cf:be:18:fb:3a:99:
                    fd:8f:b6:db:50:05:d4:6a:45:a6:87:9a:5f:3f:8d:
                    f8:10:9d:e7:c2:dd:d4:6f:48:3a:ba:66:d5:a4:8f:
                    b1:c4:20:7f:9e:b8:92:c2:6b:28:ae:17:9c:f2:5c:
                    06:13:43:71:32:0b:44:77:62:ba:88:c9:4f:13:92:
                    d3:e4:db:71:a3:7f:84:fd:1d:41:2d:f9:d9:25:49:
                    6c:8f:5c:c3:24:85:b7:f7:9a:64:34:e6:7a:f3:30:
                    45:2e:be:b9:dd:4c:09:2f:51:01:93:73:15:bb:eb:
                    a5:16:9e:18:a7:e3:1a:2f:dd:9d:43:35:fb:2d:6a:
                    60:09:f7:ad:a1:05:b4:87:4e:e6:16:06:9d:ae:67:
                    f7:79:2c:90:3a:2e:a8:17:63:3f:73:b7:38:a5:c1:
                    fb:b9:d5:21:e9:82:40:8d:3c:7e:85:8d:81:3c:81:
                    f7:a6:70:30:f3:4b:81:d3:e0:03:51:0c:75:ad:16:
                    cd:14:bd:ed:51:96:ab:52:ce:5d:6e:31:2a:68:c8:
                    10:b4:65
                Exponent: 65537 (0x10001)
        X509v3 extensions:
            X509v3 Key Usage: critical
                Certificate Sign, CRL Sign
            X509v3 Basic Constraints: critical
                CA:TRUE
            X509v3 Subject Key Identifier: 
                96:98:C0:68:03:47:4C:DD:7D:77:E8:C3:34:5E:58:E2:9E:B6:36:9D
            X509v3 Authority Key Identifier: 
                keyid:96:98:C0:68:03:47:4C:DD:7D:77:E8:C3:34:5E:58:E2:9E:B6:36:9D

    Signature Algorithm: sha256WithRSAEncryption
         75:73:30:71:9d:3b:37:d6:84:b8:1e:db:89:ff:2c:d6:a2:c4:
         42:29:10:2e:f9:c9:4e:8b:68:09:44:bd:fa:b2:d5:62:8e:00:
         a9:8c:e9:44:6a:4c:34:a5:58:99:0f:4d:b4:13:32:76:4b:26:
         bf:ef:78:17:ed:3d:21:67:70:42:28:25:74:da:7d:af:30:46:
         82:c4:45:c4:bb:b3:af:72:ef:44:94:c6:8b:7e:be:57:4e:97:
         2a:c5:1b:6b:09:ec:41:c7:0f:c3:50:f5:cb:88:ac:1d:f9:5d:
         0e:5a:7d:6e:d6:b5:8b:0a:2b:56:68:25:8a:b1:24:c0:44:e7:
         66:cf:d7:3b:ca:41:7d:61:cb:38:20:a8:ef:5b:ec:23:20:6c:
         f0:1e:ee:0b:01:ee:80:74:2c:25:a2:83:ee:f7:fb:a5:54:40:
         df:b8:3e:4f:0b:52:dc:d2:f4:47:8a:91:55:92:49:8b:19:5e:
         08:e7:2b:87:df:f5:35:27:4d:27:53:b4:f8:64:45:ba:e9:52:
         c3:f0:6a:0e:0e:19:c4:a4:bd:ed:f1:40:7a:fe:c8:01:5c:bc:
         5d:12:cc:68:3c:70:61:b4:52:94:9a:b3:d2:ca:b9:f0:55:c7:
         81:39:a8:1e:81:13:fe:d5:1b:28:57:3a:e2:19:42:99:a2:05:
         07:02:52:1c:5a:ac:10:f9:48:7c:b7:1d:22:50:37:38:6d:28:
         1f:20:0e:a5:f3:fa:d8:fc:12:af:cd:a4:8e:73:f7:50:90:4e:
         74:25:1e:70:99:a5:e0:20:c7:33:bf:f2:8f:18:8e:04:3c:a5:
         df:ca:39:e5:6e:9d:d8:6d:d8:11:01:96:2b:40:65:51:4d:cb:
         e7:8d:38:51:76:a4:88:9a:d7:13:32:7e:c2:04:4d:7e:06:c4:
         11:21:1c:a6:3d:e1:8f:f3:41:e7:4c:2b:40:0e:38:ba:7c:ee:
         79:db:72:2a:1f:47:c3:1d:1a:57:0e:af:ac:5d:ec:fa:0b:a5:
         43:25:b9:7d:16:63:f4:be:ff:4c:85:ff:0a:9e:8e:48:db:6b:
         7c:c4:96:a0:d8:7f:89:f7:0a:c8:97:f0:62:76:3b:0e:4c:d9:
         3f:8b:a3:a3:c3:88:64:33:2b:74:7e:b3:78:74:eb:9f:b8:2f:
         43:b2:20:58:66:2f:76:74:7e:20:48:a0:14:6a:fc:a3:c0:c9:
         bb:18:68:21:85:49:a8:ba:fd:76:b2:e8:45:24:b0:66:00:5f:
         c2:17:b8:44:35:cb:25:b8:5c:00:15:6b:d9:c4:3d:be:47:a3:
         8b:94:0d:de:49:55:d0:7a:1a:65:5c:82:a5:71:ca:04:8d:44:
         64:9d:42:0b:10:cd:c3:15
-----BEGIN CERTIFICATE-----
MIIFvzCCA6egAwIBAgIUAp9HWLHIuCXl6R5vpOiM3+zToqgwDQYJKoZIhvcNAQEL
BQAwZzELMAkGA1UEBhMCTk8xEjAQBgNVBAoMCU5pdHBpY2tzeTEoMCYGA1UECwwf
Tml0cGlja3N5IENlcnRpZmljYXRlIEF1dGhvcml0eTEaMBgGA1UEAwwRTml0cGlj
a3N5IFJvb3QgQ0EwHhcNMjAxMjExMjMzNTUwWhcNMzAxMjExMjMzNTUwWjBnMQsw
CQYDVQQGEwJOTzESMBAGA1UECgwJTml0cGlja3N5MSgwJgYDVQQLDB9OaXRwaWNr
c3kgQ2VydGlmaWNhdGUgQXV0aG9yaXR5MRowGAYDVQQDDBFOaXRwaWNrc3kgUm9v
dCBDQTCCAiIwDQYJKoZIhvcNAQEBBQADggIPADCCAgoCggIBALNZoELF+3j7ZP/r
XB2Giwvc6o/Q5476lV+sxYo70MEFhTvdFt+SN8fSq+TWVeiPuGyPVW18U+tAk1AB
uL+O8IZkeTVwY6uYZMMHsED4qj0kRW0/TZi7Sxzaqche80ZJLscINEi9F5ORR22P
LrhI6iuI/whEOktvtawCLohTOT8yg3q71Qq0y3bTjI68lzrZpAdEd5uTVW1LrGQN
+lNhIzdEV0zoABMSltZ7aAR2FmTt+Yvo3uNFm63KPjdSpzNWDCIRnyFyc/BTmTmg
qWmu1Ac7xe9O1GnX929SGerTESqsB8hhF+qi40T1AwWIafoeWOfNJ51eRm7wszF1
McmHv7FOYmohiK+zLSCrTqR252N+htScEk6/DVNnzgk9wOm1NLfAsPJh4JwbDSlc
76HyWKK0b2ncz74Y+zqZ/Y+221AF1GpFpoeaXz+N+BCd58Ld1G9IOrpm1aSPscQg
f564ksJrKK4XnPJcBhNDcTILRHdiuojJTxOS0+TbcaN/hP0dQS352SVJbI9cwySF
t/eaZDTmevMwRS6+ud1MCS9RAZNzFbvrpRaeGKfjGi/dnUM1+y1qYAn3raEFtIdO
5hYGna5n93kskDouqBdjP3O3OKXB+7nVIemCQI08foWNgTyB96ZwMPNLgdPgA1EM
da0WzRS97VGWq1LOXW4xKmjIELRlAgMBAAGjYzBhMA4GA1UdDwEB/wQEAwIBBjAP
BgNVHRMBAf8EBTADAQH/MB0GA1UdDgQWBBSWmMBoA0dM3X136MM0XljinrY2nTAf
BgNVHSMEGDAWgBSWmMBoA0dM3X136MM0XljinrY2nTANBgkqhkiG9w0BAQsFAAOC
AgEAdXMwcZ07N9aEuB7bif8s1qLEQikQLvnJTotoCUS9+rLVYo4AqYzpRGpMNKVY
mQ9NtBMydksmv+94F+09IWdwQigldNp9rzBGgsRFxLuzr3LvRJTGi36+V06XKsUb
awnsQccPw1D1y4isHfldDlp9bta1iworVmglirEkwETnZs/XO8pBfWHLOCCo71vs
IyBs8B7uCwHugHQsJaKD7vf7pVRA37g+TwtS3NL0R4qRVZJJixleCOcrh9/1NSdN
J1O0+GRFuulSw/BqDg4ZxKS97fFAev7IAVy8XRLMaDxwYbRSlJqz0sq58FXHgTmo
HoET/tUbKFc64hlCmaIFBwJSHFqsEPlIfLcdIlA3OG0oHyAOpfP62PwSr82kjnP3
UJBOdCUecJml4CDHM7/yjxiOBDyl38o55W6d2G3YEQGWK0BlUU3L5404UXakiJrX
EzJ+wgRNfgbEESEcpj3hj/NB50wrQA44unzuedtyKh9Hwx0aVw6vrF3s+gulQyW5
fRZj9L7/TIX/Cp6OSNtrfMSWoNh/ifcKyJfwYnY7DkzZP4ujo8OIZDMrdH6zeHTr
n7gvQ7IgWGYvdnR+IEigFGr8o8DJuxhoIYVJqLr9drLoRSSwZgBfwhe4RDXLJbhc
ABVr2cQ9vkeji5QN3klV0HoaZVyCpXHKBI1EZJ1CCxDNwxU=
-----END CERTIFICATE-----
