Certificate:
    Data:
        Version: 3 (0x2)
        Serial Number:
            03:68:92:39:a1:22:df:ea:4a:9b:57:83:d5:70:78:91:2f:8f:56:a3
        Signature Algorithm: sha256WithRSAEncryption
        Issuer: C=NO, O=Nitpicksy, OU=Nitpicksy Certificate Authority, CN=Nitpicksy Root CA
        Validity
            Not Before: Dec  6 22:19:58 2020 GMT
            Not After : Dec  6 22:19:58 2030 GMT
        Subject: C=NO, O=Nitpicksy, OU=Nitpicksy Certificate Authority, CN=Nitpicksy Root CA
        Subject Public Key Info:
            Public Key Algorithm: rsaEncryption
                RSA Public-Key: (4096 bit)
                Modulus:
                    00:aa:a6:0d:2f:7c:eb:8a:75:fc:67:de:33:e0:cb:
                    1e:02:f3:50:db:c3:a1:1f:83:ae:01:75:d6:b0:03:
                    e9:41:81:99:7f:d8:46:c3:9e:e8:e9:a5:a3:1b:78:
                    d0:e2:90:78:41:e1:4c:7f:d8:0c:d6:cf:09:68:e1:
                    33:71:86:b9:0d:7e:8a:e2:6d:c7:0f:bd:cd:bf:c9:
                    29:f2:ca:2b:08:53:89:cf:dc:97:1d:78:53:dc:af:
                    4d:b9:fc:1c:17:96:83:c1:a6:a5:a2:49:4b:d0:d5:
                    65:ce:fd:9c:3c:ed:67:c0:71:0c:cb:63:02:e3:17:
                    7a:db:d5:a1:b0:8b:03:0c:f5:18:09:0a:49:8c:88:
                    ba:1c:79:6b:73:c2:90:31:3e:4a:93:70:d9:ce:8c:
                    df:3e:a3:1b:50:4d:74:48:26:28:60:18:c1:84:97:
                    44:67:26:31:51:85:e5:67:8f:65:d9:3a:1b:ea:d3:
                    52:7e:b7:26:ef:80:55:27:51:b3:7a:6c:7e:1a:9a:
                    87:35:79:36:d9:99:9b:2c:f2:dd:64:78:5d:67:e7:
                    4f:c1:39:fb:b4:75:14:1b:af:0a:8c:6d:ae:9d:a3:
                    b2:9b:a9:e6:85:cd:6c:3e:0b:ed:ca:ad:89:f4:c9:
                    11:2b:4c:bd:60:68:01:cf:50:ba:83:53:8d:68:82:
                    e0:9f:8e:ae:ec:db:b8:9b:42:ca:f8:65:54:da:70:
                    1f:b5:6d:86:97:f4:ff:eb:f0:b6:26:37:1f:b3:d3:
                    34:fa:0d:bb:e6:5e:85:0c:b7:54:a5:cc:8a:bf:f3:
                    d3:c8:09:3a:b7:2f:a0:e6:71:ef:c9:e7:e4:32:f2:
                    df:3f:01:5e:e7:f9:5e:7a:ef:be:f6:38:38:3d:f5:
                    95:68:0e:68:a5:dd:34:67:a0:e6:7e:66:5c:a3:ba:
                    7b:e7:0a:eb:e3:c7:60:6b:3f:94:65:c0:cd:88:51:
                    81:6a:c3:20:11:70:2c:67:88:38:7c:9b:be:3e:02:
                    17:a2:60:0c:86:da:4d:24:58:8f:ac:f3:14:d1:ab:
                    8c:4d:6c:cd:39:ac:74:d8:99:22:24:8b:62:9d:4a:
                    ef:7a:c2:af:bf:fd:7f:f1:ce:82:b3:71:f4:9e:32:
                    04:9e:73:80:4a:ee:4f:7f:08:31:6a:1c:d9:07:32:
                    db:41:aa:02:44:d9:53:8e:8d:44:a0:e8:22:57:3d:
                    9a:24:af:c5:33:90:98:4c:ec:cb:99:d8:36:1c:df:
                    0a:c1:41:87:5a:7e:b6:7a:e7:1e:e0:da:c5:4e:13:
                    4d:3b:72:df:2e:40:9b:04:94:de:e7:f2:16:c4:4c:
                    55:4d:82:25:db:0e:5f:7a:1e:a0:e1:13:e7:29:f0:
                    d6:fb:8b
                Exponent: 65537 (0x10001)
        X509v3 extensions:
            X509v3 Key Usage: critical
                Certificate Sign, CRL Sign
            X509v3 Basic Constraints: critical
                CA:TRUE
            X509v3 Subject Key Identifier: 
                E8:6E:AB:A5:67:3C:39:82:42:1F:BD:9C:21:D4:C0:FA:10:7D:E4:5D
            X509v3 Authority Key Identifier: 
                keyid:E8:6E:AB:A5:67:3C:39:82:42:1F:BD:9C:21:D4:C0:FA:10:7D:E4:5D

    Signature Algorithm: sha256WithRSAEncryption
         0c:50:b6:83:fd:04:50:5a:2a:4c:0f:9d:a9:99:b0:50:5a:3d:
         e1:e1:48:19:c8:f5:45:04:14:89:77:f7:81:68:f8:95:8f:f2:
         e0:64:0d:00:4a:1f:cd:45:d9:d8:8f:b8:7a:3b:ab:ce:f1:ab:
         d6:65:a0:03:8c:e1:ba:5a:92:76:63:e4:4d:c8:49:28:c8:1d:
         e0:e6:a6:b0:ab:6d:7e:91:1f:01:ea:1c:d8:e1:de:e3:f5:10:
         01:01:92:ad:83:bf:3b:b2:18:d9:0e:52:0f:b6:28:60:c5:54:
         51:9a:88:8e:c4:66:9e:4d:f6:64:b2:4f:b7:73:ab:1e:02:8d:
         ae:e4:e6:64:e9:f8:49:83:61:de:d3:9a:d8:fa:94:f3:5b:db:
         db:a3:43:37:25:07:68:38:70:42:79:99:eb:ff:e3:43:39:85:
         9d:68:81:70:e6:2d:27:41:31:74:f6:53:52:26:23:34:a5:51:
         fc:41:3a:cb:96:1b:f7:20:41:a4:60:2b:39:8e:3a:b3:f6:7a:
         ca:9e:42:e5:5a:e7:e7:77:87:06:4d:71:c8:40:f2:eb:f7:c2:
         1c:02:0e:5f:2e:60:d1:f5:27:95:75:87:ba:bf:e9:00:65:c6:
         7d:16:8d:27:3c:b8:79:d8:3d:b4:ae:03:75:31:47:45:d4:05:
         9b:ce:ac:21:5e:be:e6:a2:d2:84:f4:59:3c:9d:7d:8f:07:cf:
         0d:55:77:bc:30:46:f9:e9:1d:17:0d:61:38:f6:ce:fd:77:d3:
         b5:d5:62:75:33:ca:9e:59:fc:93:49:c3:16:2a:b2:c4:05:14:
         35:96:49:8c:1b:fd:7c:82:f9:e8:af:05:f5:a0:c1:b6:dd:32:
         73:93:24:59:59:a5:ad:7e:16:01:f9:79:f6:a6:d9:e3:97:5a:
         85:4a:40:51:44:04:3f:d4:c1:7a:80:1f:a6:2f:f4:f9:77:fb:
         14:a2:b3:89:18:c0:47:80:64:20:72:79:ed:8f:43:8d:1d:c5:
         dc:85:5c:ad:69:93:e7:43:4a:20:b5:cd:2c:a0:5d:44:6d:80:
         58:b4:bc:2a:21:0c:25:cd:98:2b:b2:f3:3e:0b:11:de:a7:c2:
         26:a5:dc:2e:65:96:70:f6:7e:b1:aa:22:44:61:9b:d0:a9:64:
         ed:ef:d0:85:ed:ba:45:c4:36:0f:9c:17:a6:be:f9:51:4a:ee:
         58:c0:e5:03:1d:32:37:21:e6:ed:7c:89:c1:57:4a:9e:56:45:
         ed:5f:87:5f:8f:34:34:b7:d6:c1:11:c5:73:ec:78:aa:1b:5e:
         b6:c9:e9:1d:d6:a0:73:de:6e:b2:97:71:79:da:41:d8:7c:2d:
         b1:4b:f1:b1:9e:40:c2:8e
-----BEGIN CERTIFICATE-----
MIIFvzCCA6egAwIBAgIUA2iSOaEi3+pKm1eD1XB4kS+PVqMwDQYJKoZIhvcNAQEL
BQAwZzELMAkGA1UEBhMCTk8xEjAQBgNVBAoMCU5pdHBpY2tzeTEoMCYGA1UECwwf
Tml0cGlja3N5IENlcnRpZmljYXRlIEF1dGhvcml0eTEaMBgGA1UEAwwRTml0cGlj
a3N5IFJvb3QgQ0EwHhcNMjAxMjA2MjIxOTU4WhcNMzAxMjA2MjIxOTU4WjBnMQsw
CQYDVQQGEwJOTzESMBAGA1UECgwJTml0cGlja3N5MSgwJgYDVQQLDB9OaXRwaWNr
c3kgQ2VydGlmaWNhdGUgQXV0aG9yaXR5MRowGAYDVQQDDBFOaXRwaWNrc3kgUm9v
dCBDQTCCAiIwDQYJKoZIhvcNAQEBBQADggIPADCCAgoCggIBAKqmDS9864p1/Gfe
M+DLHgLzUNvDoR+DrgF11rAD6UGBmX/YRsOe6Omloxt40OKQeEHhTH/YDNbPCWjh
M3GGuQ1+iuJtxw+9zb/JKfLKKwhTic/clx14U9yvTbn8HBeWg8GmpaJJS9DVZc79
nDztZ8BxDMtjAuMXetvVobCLAwz1GAkKSYyIuhx5a3PCkDE+SpNw2c6M3z6jG1BN
dEgmKGAYwYSXRGcmMVGF5WePZdk6G+rTUn63Ju+AVSdRs3psfhqahzV5NtmZmyzy
3WR4XWfnT8E5+7R1FBuvCoxtrp2jspup5oXNbD4L7cqtifTJEStMvWBoAc9QuoNT
jWiC4J+OruzbuJtCyvhlVNpwH7Vthpf0/+vwtiY3H7PTNPoNu+ZehQy3VKXMir/z
08gJOrcvoOZx78nn5DLy3z8BXuf5XnrvvvY4OD31lWgOaKXdNGeg5n5mXKO6e+cK
6+PHYGs/lGXAzYhRgWrDIBFwLGeIOHybvj4CF6JgDIbaTSRYj6zzFNGrjE1szTms
dNiZIiSLYp1K73rCr7/9f/HOgrNx9J4yBJ5zgEruT38IMWoc2Qcy20GqAkTZU46N
RKDoIlc9miSvxTOQmEzsy5nYNhzfCsFBh1p+tnrnHuDaxU4TTTty3y5AmwSU3ufy
FsRMVU2CJdsOX3oeoOET5ynw1vuLAgMBAAGjYzBhMA4GA1UdDwEB/wQEAwIBBjAP
BgNVHRMBAf8EBTADAQH/MB0GA1UdDgQWBBTobqulZzw5gkIfvZwh1MD6EH3kXTAf
BgNVHSMEGDAWgBTobqulZzw5gkIfvZwh1MD6EH3kXTANBgkqhkiG9w0BAQsFAAOC
AgEADFC2g/0EUFoqTA+dqZmwUFo94eFIGcj1RQQUiXf3gWj4lY/y4GQNAEofzUXZ
2I+4ejurzvGr1mWgA4zhulqSdmPkTchJKMgd4OamsKttfpEfAeoc2OHe4/UQAQGS
rYO/O7IY2Q5SD7YoYMVUUZqIjsRmnk32ZLJPt3OrHgKNruTmZOn4SYNh3tOa2PqU
81vb26NDNyUHaDhwQnmZ6//jQzmFnWiBcOYtJ0ExdPZTUiYjNKVR/EE6y5Yb9yBB
pGArOY46s/Z6yp5C5Vrn53eHBk1xyEDy6/fCHAIOXy5g0fUnlXWHur/pAGXGfRaN
Jzy4edg9tK4DdTFHRdQFm86sIV6+5qLShPRZPJ19jwfPDVV3vDBG+ekdFw1hOPbO
/XfTtdVidTPKnln8k0nDFiqyxAUUNZZJjBv9fIL56K8F9aDBtt0yc5MkWVmlrX4W
Afl59qbZ45dahUpAUUQEP9TBeoAfpi/0+Xf7FKKziRjAR4BkIHJ57Y9DjR3F3IVc
rWmT50NKILXNLKBdRG2AWLS8KiEMJc2YK7LzPgsR3qfCJqXcLmWWcPZ+saoiRGGb
0Klk7e/Qhe26RcQ2D5wXpr75UUruWMDlAx0yNyHm7XyJwVdKnlZF7V+HX480NLfW
wRHFc+x4qhtetsnpHdagc95uspdxedpB2HwtsUvxsZ5Awo4=
-----END CERTIFICATE-----
