Certificate:
    Data:
        Version: 3 (0x2)
        Serial Number:
            09:e1:11:9a:f8:78:66:db:bf:cf:3d:17:9d:b9:6b:b2:66:ee:64:45
        Signature Algorithm: sha256WithRSAEncryption
        Issuer: C=NO, O=Nitpicksy, OU=Nitpicksy Certificate Authority, CN=Nitpicksy Root CA
        Validity
            Not Before: Dec 11 20:36:47 2020 GMT
            Not After : Dec 11 20:36:47 2030 GMT
        Subject: C=NO, O=Nitpicksy, OU=Nitpicksy Certificate Authority, CN=Nitpicksy TLS CA
        Subject Public Key Info:
            Public Key Algorithm: rsaEncryption
                RSA Public-Key: (4096 bit)
                Modulus:
                    00:d5:c5:5f:c9:0b:6a:f4:78:c8:40:b2:58:3c:6c:
                    2e:95:03:63:ed:f0:d9:82:f3:ca:e7:38:35:0f:f9:
                    8e:26:cb:de:06:f9:0f:61:c8:cb:1d:5d:5f:55:5a:
                    22:a0:46:b8:be:dd:55:5b:64:5d:f1:c5:35:f5:c0:
                    90:07:02:9f:19:d8:2d:70:0b:6d:51:82:89:a6:30:
                    f7:2c:27:bf:30:ca:16:6e:96:aa:46:0f:43:e2:a0:
                    ed:bc:09:6f:23:20:f9:6e:d6:a2:cd:67:ca:4b:38:
                    99:42:70:2f:a8:b0:f3:2f:e9:2e:59:83:3a:e4:45:
                    cb:a7:52:b3:0a:8a:fe:65:b3:01:6b:33:fe:68:84:
                    f1:c5:f4:97:f4:56:66:5a:4d:35:12:70:c1:77:0d:
                    7b:14:98:22:ad:9f:79:6b:c6:07:4e:99:6f:f1:75:
                    c0:c9:05:06:2e:40:03:ad:9e:a2:72:5c:49:37:61:
                    ee:2c:4e:a1:af:5f:bd:ff:82:ff:f0:3b:51:06:9f:
                    68:84:e2:e2:2f:f2:24:57:17:18:9d:bb:54:40:43:
                    54:2c:25:e0:ee:98:2b:f9:57:60:82:4f:17:83:d4:
                    f6:e7:88:2a:a9:a6:88:34:dc:93:70:ed:e4:5d:d9:
                    df:81:d2:55:5a:d7:e1:73:13:4f:09:72:1a:cd:a0:
                    52:8d:a4:86:bf:98:ad:6b:d1:fa:b5:0e:14:83:a8:
                    63:b3:fa:77:06:be:bc:98:32:b6:3a:74:82:76:24:
                    1d:de:c3:b6:c3:45:90:e8:00:cf:03:23:0e:2a:23:
                    31:bf:14:a7:6c:dc:20:d3:87:28:24:e2:c5:70:02:
                    db:c5:80:53:4f:99:dd:ca:50:6e:3e:e6:28:f4:d0:
                    26:c1:39:03:bd:22:67:80:8f:17:8e:b6:dd:74:2b:
                    3f:7c:09:15:23:96:5e:8b:11:6d:a5:62:9b:3e:c2:
                    84:16:79:7b:c3:a1:c6:b7:38:88:5f:c3:d8:10:62:
                    ae:5b:36:49:22:eb:9f:a1:6c:c7:9d:c9:1b:7f:c1:
                    06:41:41:85:10:42:b5:05:45:88:1b:4f:20:3b:0f:
                    cb:74:da:74:1b:80:24:18:53:23:f8:da:dc:df:0a:
                    17:29:c1:5e:a5:32:da:17:bf:35:ea:23:a0:a5:49:
                    c8:93:3a:43:25:b2:90:19:c0:6f:15:13:bd:bd:eb:
                    cf:d5:0f:9a:9b:8e:d7:d9:72:a1:0a:ce:ce:24:45:
                    f9:f4:71:78:63:38:82:ab:8c:84:d9:48:b4:cb:0e:
                    ba:aa:ff:9f:96:88:27:19:e5:32:44:3b:93:87:d0:
                    ee:a8:ee:40:14:d2:fb:37:1d:55:ca:cc:7d:bb:0d:
                    69:ce:1d
                Exponent: 65537 (0x10001)
        X509v3 extensions:
            X509v3 Key Usage: critical
                Certificate Sign, CRL Sign
            X509v3 Basic Constraints: critical
                CA:TRUE, pathlen:0
            X509v3 Subject Key Identifier: 
                CC:B0:B8:BC:D8:35:9B:94:9B:C9:52:8E:84:33:E7:D3:46:B9:14:ED
            X509v3 Authority Key Identifier: 
                keyid:BC:B4:95:7F:25:77:19:C5:FD:A9:FB:E4:92:9C:30:C5:BD:04:BD:BD

            Authority Information Access: 
                CA Issuers - URI:http://nitpicksy.no/ca/root-ca.cer

            X509v3 CRL Distribution Points: 

                Full Name:
                  URI:http://nitpicksy.no/ca/root-ca.crl

    Signature Algorithm: sha256WithRSAEncryption
         ab:d7:28:cd:cd:86:53:a7:3c:ea:7c:16:71:92:0a:51:5b:e5:
         ef:94:05:9d:ed:2b:f0:b9:17:23:60:95:f6:f5:41:b2:95:ee:
         97:54:29:24:48:46:5f:23:d5:0c:af:da:69:aa:43:39:ce:b2:
         d8:a4:f8:dc:df:c7:46:a8:49:6b:c1:b7:39:d9:5e:03:ee:90:
         a0:c4:3e:ea:2c:6b:1f:08:f8:d9:5c:d3:4c:1a:66:ac:23:3d:
         2f:54:15:22:86:ad:cb:f2:72:fa:eb:fc:7e:14:79:17:fc:4a:
         26:01:f6:24:1d:da:94:8a:6c:06:65:43:1f:b5:df:48:2b:c0:
         70:7c:ea:99:e1:9d:ac:2c:2b:91:f4:da:66:67:c8:19:5a:b8:
         09:e5:b0:3b:e7:6c:9f:e0:d8:d9:fa:11:fa:9c:b9:18:cf:ab:
         2d:30:77:39:be:55:e3:ce:4d:db:d9:a8:70:59:86:7c:ce:10:
         cf:a6:5f:a6:30:07:c8:f4:15:17:95:ec:bf:d4:6b:bd:96:ad:
         73:ea:5e:1b:f7:02:73:36:e6:ec:f3:6c:89:7f:be:d3:d7:c1:
         f2:8c:2c:e8:d4:96:69:3a:dd:83:24:d6:d0:ca:5b:6f:6c:7a:
         b4:5e:f9:72:78:98:c1:96:93:c7:d9:0b:70:bd:e7:4d:d4:ee:
         20:da:ff:1c:f7:1e:69:51:f4:88:e3:d2:fc:f0:e1:d9:06:94:
         89:e7:a7:61:82:78:85:6f:81:dc:1b:db:67:09:f3:c4:15:29:
         71:40:25:7c:c1:ab:7c:4f:98:4a:c3:2e:e4:d0:89:9e:c4:ea:
         7b:c0:c7:fd:41:d9:a6:7c:43:24:2d:b7:42:cc:ae:ce:10:a7:
         79:ca:bb:79:a4:86:44:30:b4:f7:d8:cb:53:1c:16:cb:ce:73:
         fe:bb:a9:43:86:23:e7:25:84:07:50:06:4a:0b:d9:4a:f7:77:
         f1:b1:28:b1:cd:32:81:0a:6e:a4:b8:41:cc:62:b6:cf:86:f0:
         b7:3d:a9:88:1b:fe:38:02:76:89:fa:62:fa:da:dc:de:02:c5:
         42:ec:be:ce:c3:c1:b7:c2:de:a7:16:13:31:f7:be:b0:70:57:
         f1:0c:7c:99:01:89:99:14:c7:c0:e2:dc:bd:73:d6:12:c4:59:
         0a:f8:29:c9:b9:3a:c6:f1:b9:52:c7:ef:95:8a:69:26:0a:5b:
         a6:6c:f5:5b:c0:6b:2a:3f:54:42:b7:cc:85:7a:c8:2f:37:1a:
         c5:c8:17:fa:b2:f4:64:2d:38:95:54:37:79:02:fb:30:81:57:
         78:25:4c:84:f0:46:73:85:39:61:2b:98:da:65:3d:ba:02:b2:
         ac:40:9e:19:49:a8:0c:79
-----BEGIN CERTIFICATE-----
MIIGODCCBCCgAwIBAgIUCeERmvh4Ztu/zz0XnblrsmbuZEUwDQYJKoZIhvcNAQEL
BQAwZzELMAkGA1UEBhMCTk8xEjAQBgNVBAoMCU5pdHBpY2tzeTEoMCYGA1UECwwf
Tml0cGlja3N5IENlcnRpZmljYXRlIEF1dGhvcml0eTEaMBgGA1UEAwwRTml0cGlj
a3N5IFJvb3QgQ0EwHhcNMjAxMjExMjAzNjQ3WhcNMzAxMjExMjAzNjQ3WjBmMQsw
CQYDVQQGEwJOTzESMBAGA1UECgwJTml0cGlja3N5MSgwJgYDVQQLDB9OaXRwaWNr
c3kgQ2VydGlmaWNhdGUgQXV0aG9yaXR5MRkwFwYDVQQDDBBOaXRwaWNrc3kgVExT
IENBMIICIjANBgkqhkiG9w0BAQEFAAOCAg8AMIICCgKCAgEA1cVfyQtq9HjIQLJY
PGwulQNj7fDZgvPK5zg1D/mOJsveBvkPYcjLHV1fVVoioEa4vt1VW2Rd8cU19cCQ
BwKfGdgtcAttUYKJpjD3LCe/MMoWbpaqRg9D4qDtvAlvIyD5btaizWfKSziZQnAv
qLDzL+kuWYM65EXLp1KzCor+ZbMBazP+aITxxfSX9FZmWk01EnDBdw17FJgirZ95
a8YHTplv8XXAyQUGLkADrZ6iclxJN2HuLE6hr1+9/4L/8DtRBp9ohOLiL/IkVxcY
nbtUQENULCXg7pgr+Vdggk8Xg9T254gqqaaINNyTcO3kXdnfgdJVWtfhcxNPCXIa
zaBSjaSGv5ita9H6tQ4Ug6hjs/p3Br68mDK2OnSCdiQd3sO2w0WQ6ADPAyMOKiMx
vxSnbNwg04coJOLFcALbxYBTT5ndylBuPuYo9NAmwTkDvSJngI8XjrbddCs/fAkV
I5ZeixFtpWKbPsKEFnl7w6HGtziIX8PYEGKuWzZJIuufoWzHnckbf8EGQUGFEEK1
BUWIG08gOw/LdNp0G4AkGFMj+Nrc3woXKcFepTLaF7816iOgpUnIkzpDJbKQGcBv
FRO9vevP1Q+am47X2XKhCs7OJEX59HF4YziCq4yE2Ui0yw66qv+flognGeUyRDuT
h9DuqO5AFNL7Nx1Vysx9uw1pzh0CAwEAAaOB3DCB2TAOBgNVHQ8BAf8EBAMCAQYw
EgYDVR0TAQH/BAgwBgEB/wIBADAdBgNVHQ4EFgQUzLC4vNg1m5SbyVKOhDPn00a5
FO0wHwYDVR0jBBgwFoAUvLSVfyV3GcX9qfvkkpwwxb0Evb0wPgYIKwYBBQUHAQEE
MjAwMC4GCCsGAQUFBzAChiJodHRwOi8vbml0cGlja3N5Lm5vL2NhL3Jvb3QtY2Eu
Y2VyMDMGA1UdHwQsMCowKKAmoCSGImh0dHA6Ly9uaXRwaWNrc3kubm8vY2Evcm9v
dC1jYS5jcmwwDQYJKoZIhvcNAQELBQADggIBAKvXKM3NhlOnPOp8FnGSClFb5e+U
BZ3tK/C5FyNglfb1QbKV7pdUKSRIRl8j1Qyv2mmqQznOstik+Nzfx0aoSWvBtznZ
XgPukKDEPuosax8I+Nlc00waZqwjPS9UFSKGrcvycvrr/H4UeRf8SiYB9iQd2pSK
bAZlQx+130grwHB86pnhnawsK5H02mZnyBlauAnlsDvnbJ/g2Nn6EfqcuRjPqy0w
dzm+VePOTdvZqHBZhnzOEM+mX6YwB8j0FReV7L/Ua72WrXPqXhv3AnM25uzzbIl/
vtPXwfKMLOjUlmk63YMk1tDKW29serRe+XJ4mMGWk8fZC3C9503U7iDa/xz3HmlR
9Ijj0vzw4dkGlInnp2GCeIVvgdwb22cJ88QVKXFAJXzBq3xPmErDLuTQiZ7E6nvA
x/1B2aZ8QyQtt0LMrs4Qp3nKu3mkhkQwtPfYy1McFsvOc/67qUOGI+clhAdQBkoL
2Ur3d/GxKLHNMoEKbqS4Qcxits+G8Lc9qYgb/jgCdon6Yvra3N4CxULsvs7DwbfC
3qcWEzH3vrBwV/EMfJkBiZkUx8Di3L1z1hLEWQr4Kcm5OsbxuVLH75WKaSYKW6Zs
9VvAayo/VEK3zIV6yC83GsXIF/qy9GQtOJVUN3kC+zCBV3glTITwRnOFOWErmNpl
PboCsqxAnhlJqAx5
-----END CERTIFICATE-----
