Certificate:
    Data:
        Version: 3 (0x2)
        Serial Number:
            16:f6:7a:dd:62:1b:ff:b8:18:44:cb:6d:89:67:32:5b:48:c9:e4:22
        Signature Algorithm: sha256WithRSAEncryption
        Issuer: C=NO, O=Nitpicksy, OU=Nitpicksy Certificate Authority, CN=Nitpicksy Root CA
        Validity
            Not Before: Dec  6 21:59:43 2020 GMT
            Not After : Dec  6 21:59:43 2030 GMT
        Subject: C=NO, O=Nitpicksy, OU=Nitpicksy Certificate Authority, CN=Nitpicksy Root CA
        Subject Public Key Info:
            Public Key Algorithm: rsaEncryption
                RSA Public-Key: (4096 bit)
                Modulus:
                    00:be:bb:df:13:78:34:61:96:ea:f2:5f:4d:8b:fe:
                    60:34:2e:af:0c:81:27:25:41:bb:6a:3a:a6:31:c3:
                    07:b6:ab:3b:66:ed:cc:e6:77:e9:3c:c4:51:f1:c7:
                    72:41:fb:bc:79:07:f6:fa:59:f7:47:20:13:d9:a1:
                    11:ff:c4:00:25:4e:fe:a2:d5:98:aa:0e:46:ad:01:
                    78:13:c5:34:71:49:b6:eb:d2:43:f6:63:31:d2:e7:
                    3f:73:b2:b0:19:4b:34:40:f0:2d:45:28:09:af:a1:
                    55:8a:04:35:a0:51:62:11:55:34:36:8d:d7:e9:a7:
                    10:c5:bf:91:b3:b9:99:7f:a0:ef:84:06:a0:68:4e:
                    bb:d6:83:a7:59:ce:7c:77:ad:ee:34:97:f0:12:3d:
                    01:7f:7f:a9:1b:87:ae:11:d6:96:06:87:46:7d:d7:
                    0b:89:9e:d4:15:c9:db:c5:e8:c8:05:30:55:c3:40:
                    ba:1e:69:e4:73:0f:69:b1:87:2e:76:27:c8:9f:b8:
                    70:6d:a2:ef:06:fe:6d:c4:dc:11:19:6c:fe:f9:95:
                    97:51:ff:d7:eb:34:8f:00:c6:a3:07:07:f1:70:01:
                    7e:7b:f9:17:5f:ed:e6:cf:d3:dd:60:20:85:ba:f4:
                    50:8f:49:ab:ad:9e:de:a4:96:e6:0d:89:9c:1b:97:
                    64:f0:ac:09:e7:e4:fa:20:c3:84:a9:84:12:c5:41:
                    10:8e:ad:62:f9:9f:bd:f2:32:fe:b3:32:68:b9:19:
                    aa:e7:57:db:95:b3:d3:d0:06:73:c1:40:88:32:fe:
                    c5:d5:f8:cd:a4:fc:ac:7b:ce:10:64:1b:e8:db:8d:
                    c5:4b:c0:2d:bb:11:d8:19:59:63:66:c3:79:e5:46:
                    83:f9:02:f3:86:78:13:97:f6:e5:05:85:82:69:18:
                    af:06:67:0f:da:9a:8a:e8:9e:2a:fb:ff:10:06:35:
                    96:ad:04:ce:ec:a5:4f:ae:d8:6c:72:b9:22:8a:7c:
                    d4:3d:1f:15:c7:19:2c:e8:b9:c3:72:90:a2:60:02:
                    9f:9f:51:4a:99:3b:10:6e:f9:0e:c8:eb:57:e7:c3:
                    24:d3:3f:d4:2a:a2:e3:f7:6b:1e:51:20:9f:3a:50:
                    9f:67:81:6a:57:f6:07:ac:af:6e:aa:77:2e:e7:2d:
                    a6:5c:63:0e:f1:2e:1f:3a:b1:b4:26:78:a7:0e:57:
                    25:41:31:c2:80:55:77:51:d2:5d:50:89:8d:f6:9c:
                    10:c1:4c:e2:b2:87:5e:d1:d5:98:6e:f8:90:ed:da:
                    ca:5a:61:c0:ed:60:20:25:ec:ca:58:74:95:60:72:
                    0c:a0:59:98:78:4e:c9:97:40:2f:33:c4:6a:54:23:
                    4e:59:4b
                Exponent: 65537 (0x10001)
        X509v3 extensions:
            X509v3 Key Usage: critical
                Certificate Sign, CRL Sign
            X509v3 Basic Constraints: critical
                CA:TRUE
            X509v3 Subject Key Identifier: 
                90:74:5D:D6:AF:A9:15:73:06:E6:A7:B0:1E:D9:2F:13:1C:AE:DE:29
            X509v3 Authority Key Identifier: 
                keyid:90:74:5D:D6:AF:A9:15:73:06:E6:A7:B0:1E:D9:2F:13:1C:AE:DE:29

    Signature Algorithm: sha256WithRSAEncryption
         92:b0:8f:13:b5:8a:f5:17:2a:0c:24:5d:59:9d:f7:9b:7c:45:
         f4:cc:9b:47:c6:b1:2e:51:ad:da:5d:bf:1f:09:6d:99:b8:76:
         ad:f7:ef:40:55:f7:26:39:f5:21:76:ee:74:bf:52:b0:f0:86:
         5f:5e:f5:b6:16:28:67:07:f5:0d:05:d8:ec:8c:12:d8:47:42:
         8e:e7:d3:35:a0:65:3c:ff:b6:64:8f:f0:67:5f:8a:ef:b9:3d:
         06:35:57:c2:28:6b:d6:95:09:9c:61:49:60:9b:a9:23:66:f7:
         13:3f:9f:13:2e:01:93:50:fb:9c:7a:60:0f:2b:a7:a9:39:ad:
         5c:06:fd:a8:90:d6:63:8a:88:02:ee:8c:03:b6:17:44:eb:c3:
         08:d5:0e:9f:05:a3:ec:d5:42:2d:e0:a6:cc:b8:21:01:dd:7f:
         05:f0:74:a8:c4:10:cc:55:e3:43:11:92:0e:4c:67:d4:1a:f7:
         2f:91:88:18:bf:bc:6b:02:8b:77:90:38:42:3a:cc:78:d9:58:
         80:ad:27:b1:db:f6:d0:e4:62:6b:e9:42:30:2b:26:4f:30:b8:
         73:09:f1:24:6b:58:8d:8d:5c:63:44:79:5e:8c:29:d2:ae:e2:
         1e:22:0f:ec:05:c5:52:d8:7b:33:33:c3:23:d1:4f:81:8f:94:
         a0:c3:a7:0e:9e:4c:02:0a:6f:96:1a:16:d6:de:81:85:78:1d:
         bf:03:df:2d:2c:d0:b3:25:6d:8d:f4:3f:97:b1:b1:98:04:b8:
         b2:e6:6e:65:55:7c:7f:6e:46:1e:a8:64:46:f9:40:07:34:9c:
         9c:47:f0:5d:fc:b2:4f:ac:ed:97:a9:7a:38:94:91:3f:f6:3e:
         c7:24:3a:b4:7a:15:67:42:f7:e9:c2:fd:3a:b5:5e:ed:4f:5f:
         9c:69:2a:ff:f2:81:31:a2:1e:d2:1e:d4:82:09:42:94:a6:f7:
         58:c7:b5:e1:4d:a7:4f:25:dd:9e:3e:d2:b4:c7:f8:af:f9:67:
         6f:ca:dc:18:a8:d8:9b:a9:ee:f7:f0:cc:6f:74:48:7d:b4:d7:
         44:68:12:45:1e:02:83:08:11:44:65:ff:c5:8e:38:de:0b:d6:
         a8:e3:43:31:fd:12:22:70:9a:59:3f:c6:f1:08:60:9f:74:a5:
         c8:ec:5c:12:8f:ea:35:75:d0:12:87:85:fe:e4:82:1d:23:10:
         aa:a3:01:70:c3:be:33:dd:9f:f2:95:25:19:b7:83:c2:b0:2a:
         da:71:43:25:9c:18:67:2f:dd:b1:8f:50:2b:85:e4:5a:55:97:
         58:68:0b:11:d8:f2:52:d1:80:44:c6:65:9e:a1:b8:b0:5d:a4:
         63:4a:e0:fa:77:a1:b6:e6
-----BEGIN CERTIFICATE-----
MIIFvzCCA6egAwIBAgIUFvZ63WIb/7gYRMttiWcyW0jJ5CIwDQYJKoZIhvcNAQEL
BQAwZzELMAkGA1UEBhMCTk8xEjAQBgNVBAoMCU5pdHBpY2tzeTEoMCYGA1UECwwf
Tml0cGlja3N5IENlcnRpZmljYXRlIEF1dGhvcml0eTEaMBgGA1UEAwwRTml0cGlj
a3N5IFJvb3QgQ0EwHhcNMjAxMjA2MjE1OTQzWhcNMzAxMjA2MjE1OTQzWjBnMQsw
CQYDVQQGEwJOTzESMBAGA1UECgwJTml0cGlja3N5MSgwJgYDVQQLDB9OaXRwaWNr
c3kgQ2VydGlmaWNhdGUgQXV0aG9yaXR5MRowGAYDVQQDDBFOaXRwaWNrc3kgUm9v
dCBDQTCCAiIwDQYJKoZIhvcNAQEBBQADggIPADCCAgoCggIBAL673xN4NGGW6vJf
TYv+YDQurwyBJyVBu2o6pjHDB7arO2btzOZ36TzEUfHHckH7vHkH9vpZ90cgE9mh
Ef/EACVO/qLVmKoORq0BeBPFNHFJtuvSQ/ZjMdLnP3OysBlLNEDwLUUoCa+hVYoE
NaBRYhFVNDaN1+mnEMW/kbO5mX+g74QGoGhOu9aDp1nOfHet7jSX8BI9AX9/qRuH
rhHWlgaHRn3XC4me1BXJ28XoyAUwVcNAuh5p5HMPabGHLnYnyJ+4cG2i7wb+bcTc
ERls/vmVl1H/1+s0jwDGowcH8XABfnv5F1/t5s/T3WAghbr0UI9Jq62e3qSW5g2J
nBuXZPCsCefk+iDDhKmEEsVBEI6tYvmfvfIy/rMyaLkZqudX25Wz09AGc8FAiDL+
xdX4zaT8rHvOEGQb6NuNxUvALbsR2BlZY2bDeeVGg/kC84Z4E5f25QWFgmkYrwZn
D9qaiuieKvv/EAY1lq0EzuylT67YbHK5Iop81D0fFccZLOi5w3KQomACn59RSpk7
EG75DsjrV+fDJNM/1Cqi4/drHlEgnzpQn2eBalf2B6yvbqp3LuctplxjDvEuHzqx
tCZ4pw5XJUExwoBVd1HSXVCJjfacEMFM4rKHXtHVmG74kO3aylphwO1gICXsylh0
lWByDKBZmHhOyZdALzPEalQjTllLAgMBAAGjYzBhMA4GA1UdDwEB/wQEAwIBBjAP
BgNVHRMBAf8EBTADAQH/MB0GA1UdDgQWBBSQdF3Wr6kVcwbmp7Ae2S8THK7eKTAf
BgNVHSMEGDAWgBSQdF3Wr6kVcwbmp7Ae2S8THK7eKTANBgkqhkiG9w0BAQsFAAOC
AgEAkrCPE7WK9RcqDCRdWZ33m3xF9MybR8axLlGt2l2/Hwltmbh2rffvQFX3Jjn1
IXbudL9SsPCGX171thYoZwf1DQXY7IwS2EdCjufTNaBlPP+2ZI/wZ1+K77k9BjVX
wihr1pUJnGFJYJupI2b3Ez+fEy4Bk1D7nHpgDyunqTmtXAb9qJDWY4qIAu6MA7YX
ROvDCNUOnwWj7NVCLeCmzLghAd1/BfB0qMQQzFXjQxGSDkxn1Br3L5GIGL+8awKL
d5A4QjrMeNlYgK0nsdv20ORia+lCMCsmTzC4cwnxJGtYjY1cY0R5Xowp0q7iHiIP
7AXFUth7MzPDI9FPgY+UoMOnDp5MAgpvlhoW1t6BhXgdvwPfLSzQsyVtjfQ/l7Gx
mAS4suZuZVV8f25GHqhkRvlABzScnEfwXfyyT6ztl6l6OJSRP/Y+xyQ6tHoVZ0L3
6cL9OrVe7U9fnGkq//KBMaIe0h7UgglClKb3WMe14U2nTyXdnj7StMf4r/lnb8rc
GKjYm6nu9/DMb3RIfbTXRGgSRR4CgwgRRGX/xY443gvWqONDMf0SInCaWT/G8Qhg
n3SlyOxcEo/qNXXQEoeF/uSCHSMQqqMBcMO+M92f8pUlGbeDwrAq2nFDJZwYZy/d
sY9QK4XkWlWXWGgLEdjyUtGARMZlnqG4sF2kY0rg+nehtuY=
-----END CERTIFICATE-----
