Certificate:
    Data:
        Version: 3 (0x2)
        Serial Number:
            24:15:3c:32:29:d5:34:2b:a8:1a:74:fc:eb:59:e5:88:e9:b7:1b:cf
        Signature Algorithm: sha256WithRSAEncryption
        Issuer: C=NO, O=Nitpicksy, OU=Nitpicksy Certificate Authority, CN=Nitpicksy Root CA
        Validity
            Not Before: Dec  6 21:52:30 2020 GMT
            Not After : Dec  6 21:52:30 2030 GMT
        Subject: C=NO, O=Nitpicksy, OU=Nitpicksy Certificate Authority, CN=Nitpicksy TLS CA
        Subject Public Key Info:
            Public Key Algorithm: rsaEncryption
                RSA Public-Key: (4096 bit)
                Modulus:
                    00:c3:54:67:73:2a:da:35:87:b4:eb:95:3e:82:30:
                    5c:50:d6:9e:d4:86:a9:90:56:8d:c7:e5:a4:63:15:
                    d1:11:6c:c6:f6:b2:76:0f:d9:f6:2b:76:59:00:ff:
                    e9:6e:eb:00:27:dd:b5:a9:f7:a8:d7:2d:83:4e:de:
                    f5:78:80:ce:69:0e:a0:88:0d:36:33:87:87:f8:29:
                    a4:5f:43:4e:8b:ff:83:65:cd:d8:68:15:99:70:08:
                    54:4f:06:5d:d9:fb:3e:59:14:62:e6:1d:1a:eb:69:
                    c1:0d:d1:d0:6d:77:35:a4:cd:9d:97:54:db:19:07:
                    db:80:5f:70:de:89:d2:06:9e:66:45:e6:54:03:d7:
                    c6:64:f4:ba:cd:66:17:11:a3:8b:6f:e9:db:00:4d:
                    96:e7:f7:a4:ab:5d:78:0f:63:53:8e:9e:5f:25:34:
                    29:9c:b5:39:16:ff:51:0e:13:08:93:bf:7c:9a:e6:
                    29:96:27:35:af:25:37:ff:0e:2b:00:be:5c:b7:fd:
                    b3:3f:99:1d:6d:c5:46:95:a0:e8:b3:4c:46:66:3e:
                    a8:1c:17:82:e0:94:96:ae:1e:2f:d8:51:56:a7:d1:
                    0d:80:19:4a:68:18:96:85:49:33:66:50:b3:e9:e3:
                    01:a5:7e:c9:7d:b9:e9:ba:cd:37:2a:f8:c1:e0:25:
                    1b:1a:25:28:ab:06:9f:9e:38:d0:64:f3:81:6d:12:
                    3d:76:bc:62:cc:9e:e9:b4:4b:2c:8c:13:e6:d8:2b:
                    21:0f:0c:9b:70:2d:fe:e5:e0:87:ec:50:c2:76:7a:
                    e6:f8:97:a4:97:57:1c:11:1f:e3:7c:52:b4:6e:b5:
                    98:25:13:9d:47:19:4c:d5:af:b5:24:ed:c1:f1:96:
                    f0:8d:da:e7:78:45:f9:2f:51:98:e2:ba:02:3d:1c:
                    dd:3f:e0:01:25:c5:08:01:07:15:55:74:80:f4:31:
                    04:dc:a5:7a:20:1b:d1:36:bc:9e:d7:aa:ca:58:36:
                    9d:01:74:da:ab:af:62:74:d3:31:68:5a:6f:da:ed:
                    e6:63:63:30:ca:d2:ae:95:88:21:cb:a3:1b:a7:db:
                    bf:69:07:26:25:48:ee:49:34:00:3e:76:5d:e7:e1:
                    e5:bf:cc:28:d7:d2:bf:b5:05:89:5d:b8:29:ca:6a:
                    43:54:db:84:1e:86:3d:30:3d:a4:c2:08:5b:e6:5d:
                    71:c4:56:d0:07:40:99:92:f7:ef:da:09:32:b4:12:
                    c8:ae:5b:80:7e:d4:5c:8f:7d:b3:03:4a:d4:77:42:
                    cb:bc:37:7c:9a:e4:65:bb:39:c8:dd:ab:ac:c6:3f:
                    19:e8:9b:d2:74:6c:6e:08:a9:b3:d3:6e:ce:cb:ac:
                    96:94:43
                Exponent: 65537 (0x10001)
        X509v3 extensions:
            X509v3 Key Usage: critical
                Certificate Sign, CRL Sign
            X509v3 Basic Constraints: critical
                CA:TRUE, pathlen:0
            X509v3 Subject Key Identifier: 
                D7:D7:89:7B:D0:D8:5C:D5:C9:27:4E:98:7C:EE:76:73:F6:EB:7E:DB
            X509v3 Authority Key Identifier: 
                keyid:68:A0:19:90:C1:1E:35:A2:1F:4D:95:72:62:FC:50:76:59:10:A3:26

            Authority Information Access: 
                CA Issuers - URI:http://nitpicksy.no/ca/root-ca.cer

            X509v3 CRL Distribution Points: 

                Full Name:
                  URI:http://nitpicksy.no/ca/root-ca.crl

    Signature Algorithm: sha256WithRSAEncryption
         0e:18:f8:d1:2c:93:b2:12:98:43:9f:cf:93:65:dd:67:9f:40:
         33:00:69:fc:66:85:e7:42:d7:8c:da:47:b0:d3:26:83:e5:cc:
         0f:86:16:3f:23:08:69:0c:a7:2f:6a:38:e7:27:66:38:59:52:
         10:dd:ec:86:5b:51:4a:95:2b:e6:22:47:cd:7e:ff:51:56:a2:
         d4:42:b3:fb:6f:6a:78:68:87:75:b8:60:f3:e9:b3:01:aa:0a:
         f8:1d:da:c4:23:8b:e1:34:4b:88:9b:22:e0:63:78:34:99:5d:
         ab:fa:51:61:5a:ed:8d:56:5f:dc:62:29:56:7b:b3:a9:ec:2f:
         80:b1:85:ee:ac:db:e0:a4:cd:5f:b1:13:4f:f3:08:ef:33:32:
         cb:3c:89:62:47:2c:01:16:3e:7f:ff:44:8e:48:f1:5d:24:ff:
         c2:8f:c9:b8:8f:a1:dc:ea:bd:f9:a7:25:e3:a5:85:42:95:0b:
         92:dd:7b:84:f6:ac:43:71:2e:8e:fb:ad:e0:af:6d:b6:8e:aa:
         66:69:9c:1e:1c:96:c3:a2:37:7e:39:f7:23:c5:75:ff:4f:fb:
         6c:0d:ae:62:dd:1a:58:4f:19:89:02:d4:da:44:29:63:1e:7e:
         ec:b3:84:d4:65:77:d8:6c:84:6d:d9:d1:0f:d7:25:81:bf:b5:
         79:25:ca:82:a4:aa:01:ad:6c:a9:a6:05:9a:55:11:b9:8d:89:
         88:24:04:a2:da:3d:07:b7:75:c4:9d:ec:fc:75:87:c0:8b:5b:
         f4:ac:de:4e:69:95:93:14:df:4e:ae:82:d0:87:8e:67:e5:ac:
         f1:da:eb:6c:92:31:4a:b9:e7:10:d6:58:d5:5b:34:6d:ec:1c:
         c6:91:cb:bf:87:b7:5a:4e:8a:fb:6e:14:70:d3:d4:0b:44:44:
         a1:20:5f:7a:c6:c4:30:e6:cc:92:d0:23:45:c6:bb:19:3d:ef:
         33:f1:2c:74:5d:57:da:db:f5:7b:d5:62:1a:ef:c2:0b:1c:51:
         10:f7:fe:08:18:ad:e9:79:06:12:9a:8e:4c:7d:ec:75:42:ef:
         2a:dc:fd:80:9d:fc:e6:54:0e:87:f8:de:b9:da:7f:3a:9b:a1:
         4e:da:8d:d1:c8:cc:7a:29:81:83:7a:6b:c2:00:79:2d:74:7f:
         47:00:3e:a3:fc:95:30:52:bf:2d:9c:5b:d4:d7:bb:fa:eb:75:
         6e:b7:e0:fc:a4:c7:8c:a0:40:bf:d2:60:e2:df:ce:91:4e:fb:
         48:20:1d:7d:46:90:68:72:28:b4:d9:eb:3e:a6:63:a8:c6:fe:
         b0:2c:f0:ca:7e:fa:f8:e4:f7:04:cd:5f:b1:d1:1d:5b:5e:99:
         52:2b:75:34:08:1b:db:65
-----BEGIN CERTIFICATE-----
MIIGODCCBCCgAwIBAgIUJBU8MinVNCuoGnT861nliOm3G88wDQYJKoZIhvcNAQEL
BQAwZzELMAkGA1UEBhMCTk8xEjAQBgNVBAoMCU5pdHBpY2tzeTEoMCYGA1UECwwf
Tml0cGlja3N5IENlcnRpZmljYXRlIEF1dGhvcml0eTEaMBgGA1UEAwwRTml0cGlj
a3N5IFJvb3QgQ0EwHhcNMjAxMjA2MjE1MjMwWhcNMzAxMjA2MjE1MjMwWjBmMQsw
CQYDVQQGEwJOTzESMBAGA1UECgwJTml0cGlja3N5MSgwJgYDVQQLDB9OaXRwaWNr
c3kgQ2VydGlmaWNhdGUgQXV0aG9yaXR5MRkwFwYDVQQDDBBOaXRwaWNrc3kgVExT
IENBMIICIjANBgkqhkiG9w0BAQEFAAOCAg8AMIICCgKCAgEAw1RncyraNYe065U+
gjBcUNae1IapkFaNx+WkYxXREWzG9rJ2D9n2K3ZZAP/pbusAJ921qfeo1y2DTt71
eIDOaQ6giA02M4eH+CmkX0NOi/+DZc3YaBWZcAhUTwZd2fs+WRRi5h0a62nBDdHQ
bXc1pM2dl1TbGQfbgF9w3onSBp5mReZUA9fGZPS6zWYXEaOLb+nbAE2W5/ekq114
D2NTjp5fJTQpnLU5Fv9RDhMIk798muYplic1ryU3/w4rAL5ct/2zP5kdbcVGlaDo
s0xGZj6oHBeC4JSWrh4v2FFWp9ENgBlKaBiWhUkzZlCz6eMBpX7Jfbnpus03KvjB
4CUbGiUoqwafnjjQZPOBbRI9drxizJ7ptEssjBPm2CshDwybcC3+5eCH7FDCdnrm
+Jekl1ccER/jfFK0brWYJROdRxlM1a+1JO3B8ZbwjdrneEX5L1GY4roCPRzdP+AB
JcUIAQcVVXSA9DEE3KV6IBvRNrye16rKWDadAXTaq69idNMxaFpv2u3mY2MwytKu
lYghy6Mbp9u/aQcmJUjuSTQAPnZd5+Hlv8wo19K/tQWJXbgpympDVNuEHoY9MD2k
wghb5l1xxFbQB0CZkvfv2gkytBLIrluAftRcj32zA0rUd0LLvDd8muRluznI3aus
xj8Z6JvSdGxuCKmz027Oy6yWlEMCAwEAAaOB3DCB2TAOBgNVHQ8BAf8EBAMCAQYw
EgYDVR0TAQH/BAgwBgEB/wIBADAdBgNVHQ4EFgQU19eJe9DYXNXJJ06YfO52c/br
ftswHwYDVR0jBBgwFoAUaKAZkMEeNaIfTZVyYvxQdlkQoyYwPgYIKwYBBQUHAQEE
MjAwMC4GCCsGAQUFBzAChiJodHRwOi8vbml0cGlja3N5Lm5vL2NhL3Jvb3QtY2Eu
Y2VyMDMGA1UdHwQsMCowKKAmoCSGImh0dHA6Ly9uaXRwaWNrc3kubm8vY2Evcm9v
dC1jYS5jcmwwDQYJKoZIhvcNAQELBQADggIBAA4Y+NEsk7ISmEOfz5Nl3WefQDMA
afxmhedC14zaR7DTJoPlzA+GFj8jCGkMpy9qOOcnZjhZUhDd7IZbUUqVK+YiR81+
/1FWotRCs/tvanhoh3W4YPPpswGqCvgd2sQji+E0S4ibIuBjeDSZXav6UWFa7Y1W
X9xiKVZ7s6nsL4Cxhe6s2+CkzV+xE0/zCO8zMss8iWJHLAEWPn//RI5I8V0k/8KP
ybiPodzqvfmnJeOlhUKVC5Lde4T2rENxLo77reCvbbaOqmZpnB4clsOiN3459yPF
df9P+2wNrmLdGlhPGYkC1NpEKWMefuyzhNRld9hshG3Z0Q/XJYG/tXklyoKkqgGt
bKmmBZpVEbmNiYgkBKLaPQe3dcSd7Px1h8CLW/Ss3k5plZMU306ugtCHjmflrPHa
62ySMUq55xDWWNVbNG3sHMaRy7+Ht1pOivtuFHDT1AtERKEgX3rGxDDmzJLQI0XG
uxk97zPxLHRdV9rb9XvVYhrvwgscURD3/ggYrel5BhKajkx97HVC7yrc/YCd/OZU
Dof43rnafzqboU7ajdHIzHopgYN6a8IAeS10f0cAPqP8lTBSvy2cW9TXu/rrdW63
4Pykx4ygQL/SYOLfzpFO+0ggHX1GkGhyKLTZ6z6mY6jG/rAs8Mp++vjk9wTNX7HR
HVtemVIrdTQIG9tl
-----END CERTIFICATE-----
