Certificate:
    Data:
        Version: 3 (0x2)
        Serial Number:
            2d:bc:ae:2d:35:c7:0a:17:39:42:3f:eb:86:6b:f8:65:b4:d4:1d:11
        Signature Algorithm: sha256WithRSAEncryption
        Issuer: C=NO, O=Nitpicksy, OU=Nitpicksy Certificate Authority, CN=Nitpicksy Root CA
        Validity
            Not Before: Dec  6 21:52:29 2020 GMT
            Not After : Dec  6 21:52:29 2030 GMT
        Subject: C=NO, O=Nitpicksy, OU=Nitpicksy Certificate Authority, CN=Nitpicksy Root CA
        Subject Public Key Info:
            Public Key Algorithm: rsaEncryption
                RSA Public-Key: (4096 bit)
                Modulus:
                    00:ef:e9:70:50:0f:e3:ff:3d:fc:9b:83:38:cc:b2:
                    5a:81:13:a5:55:8d:d1:0a:0e:0b:86:25:2f:f3:a7:
                    ba:0e:84:d0:a9:8c:19:af:2b:98:0e:10:4a:b0:f0:
                    11:19:b1:27:01:96:34:ae:e6:3c:43:d9:be:cc:9f:
                    66:f9:ac:7e:81:e7:8a:80:8c:af:05:72:11:28:07:
                    51:78:e9:44:3b:1f:1d:09:32:1d:db:01:d1:a7:f6:
                    54:4e:e1:d4:a1:60:4c:2f:f5:45:c3:65:78:40:a6:
                    9d:52:94:ed:51:15:f7:64:c6:e8:4d:0d:8d:d7:cf:
                    08:6d:52:b5:df:1c:9d:da:b5:b5:f2:4a:2d:a1:03:
                    4c:83:c6:f1:d1:fb:c1:2a:de:2c:d5:6c:a6:e5:ef:
                    73:ca:ec:22:84:d6:91:c3:db:28:66:ff:81:83:99:
                    3a:1a:7a:2c:d2:1c:3d:2b:71:c4:b7:4c:f2:4f:de:
                    10:63:82:26:66:70:4b:e9:99:34:f8:4f:b5:ab:b6:
                    b2:ee:86:06:40:42:57:4b:2b:3f:69:5b:0c:29:d5:
                    17:62:cb:fe:d6:e1:a2:dd:d5:36:a7:2b:42:07:17:
                    63:04:f0:e7:0f:dc:a4:ce:1d:ae:64:d3:08:73:7c:
                    71:64:94:5a:3f:22:65:dc:e5:c6:19:d1:6f:fd:2a:
                    94:6c:52:74:6b:86:03:c8:d9:1a:b5:7d:b8:58:08:
                    16:49:d2:26:f6:a8:05:5b:44:60:ac:f3:c5:b6:e1:
                    42:b3:a0:e9:51:21:c0:48:32:5e:42:11:dc:dc:38:
                    50:a8:6c:eb:e9:e5:90:01:cb:9c:cb:a8:59:71:c5:
                    b3:3b:0b:4b:c1:f4:e0:e8:5a:ea:da:be:d0:3b:23:
                    29:c2:72:ed:82:06:77:b4:63:33:7b:fc:e3:51:ec:
                    45:3e:b4:5e:2a:70:0b:ff:4c:17:2a:e2:7d:3d:5c:
                    d3:6a:31:6b:c1:25:47:37:2b:a4:1f:f3:96:3e:34:
                    85:99:94:b3:ce:77:c1:1e:38:bc:17:48:3d:8e:4f:
                    fb:29:23:77:18:f0:b2:7c:de:73:42:b1:0a:54:70:
                    ec:71:7e:5b:79:f1:f9:32:24:b8:b9:98:aa:db:b9:
                    2a:d6:04:a1:69:64:7b:0f:0d:c4:42:0d:c9:c4:1d:
                    e6:9b:3c:80:c7:37:8a:78:85:ac:66:cf:c1:06:28:
                    f1:ef:67:da:5f:17:c3:59:b3:3f:1e:30:bb:f0:3a:
                    4e:96:0a:80:d0:6d:95:66:3d:42:ab:95:6d:28:c5:
                    89:70:31:6d:03:0a:4a:ae:df:5d:ae:a5:0e:4c:0c:
                    92:79:77:f4:93:26:7c:d9:07:2a:70:9f:34:71:48:
                    28:1e:51
                Exponent: 65537 (0x10001)
        X509v3 extensions:
            X509v3 Key Usage: critical
                Certificate Sign, CRL Sign
            X509v3 Basic Constraints: critical
                CA:TRUE
            X509v3 Subject Key Identifier: 
                68:A0:19:90:C1:1E:35:A2:1F:4D:95:72:62:FC:50:76:59:10:A3:26
            X509v3 Authority Key Identifier: 
                keyid:68:A0:19:90:C1:1E:35:A2:1F:4D:95:72:62:FC:50:76:59:10:A3:26

    Signature Algorithm: sha256WithRSAEncryption
         30:f0:d2:08:9e:33:a1:fd:8d:98:9a:b1:1a:e0:50:f6:85:6b:
         1c:a3:38:95:21:18:f5:5b:2d:0f:1a:d7:46:cd:fc:44:23:1f:
         90:7a:aa:ab:05:b7:71:22:f8:89:1b:1b:7e:d7:39:97:c4:ac:
         61:94:39:97:11:3c:52:be:05:13:ea:23:9a:4c:b6:38:a4:4c:
         76:c7:96:4e:d3:bf:fb:86:c5:f3:1d:5f:c1:a0:7a:55:19:33:
         bd:dc:e8:7d:a8:f0:fd:ec:ff:fe:89:0c:d6:01:7f:e6:ee:b0:
         bd:9f:f7:f3:36:46:fa:96:a1:ae:22:ba:87:02:46:d4:27:30:
         15:15:90:17:8f:de:39:5a:39:03:f5:f9:a3:70:f6:e3:4e:11:
         35:77:85:3a:39:bb:b9:2d:0a:46:2d:d3:2e:f6:6c:2f:f0:a2:
         0c:3c:c8:b3:c2:e2:16:67:51:f7:f8:b7:51:11:80:4a:04:52:
         45:6e:93:b4:e4:39:07:76:e7:63:cf:e2:01:a6:eb:48:fb:fb:
         63:35:93:16:02:ba:f7:07:f7:24:8e:89:ae:11:85:3a:a4:b2:
         68:43:89:63:a4:c0:31:b6:0d:cc:3d:34:c2:7e:7b:46:bf:c5:
         d4:7d:c5:54:5d:4a:bf:02:ba:94:cb:99:6f:cc:0f:89:04:2b:
         e8:7c:1c:b3:c2:7b:8f:fc:6d:ae:b1:84:4b:c5:97:9d:9e:ea:
         b5:d2:83:a9:fb:b7:a1:2e:fb:9f:d7:ac:9c:c0:cb:54:60:10:
         46:fa:d9:9a:cc:c7:45:7f:a4:13:dc:16:31:f3:a8:14:60:d9:
         de:df:f9:9d:24:a8:63:36:b8:80:b4:cd:74:ee:18:98:45:7b:
         c5:58:2d:b2:d4:ea:1c:3f:f7:33:72:9c:bf:3a:97:eb:d5:ff:
         0b:72:e4:72:28:db:66:40:c5:eb:df:94:00:fa:be:ce:c1:19:
         ff:f7:33:bb:30:c3:df:49:84:a2:db:f1:13:1e:0d:6a:27:cd:
         42:89:20:5d:56:b3:2a:2f:a7:ce:4a:94:5a:91:1d:0b:cd:c2:
         50:fa:5f:54:a0:07:af:fa:8c:5b:48:1a:3c:48:0a:78:f3:dd:
         30:77:2e:74:7b:d9:50:02:59:88:3e:9e:5d:07:f5:e6:95:f8:
         97:1f:3c:cf:66:99:05:1e:8d:14:5c:8d:f7:e6:89:fe:1e:21:
         3b:21:7a:d7:69:cb:85:2e:7d:3d:34:f6:08:98:f6:93:5a:48:
         5b:bd:28:37:75:fb:9e:d4:f6:f8:13:54:fb:eb:40:6c:41:39:
         12:7e:b8:e4:5c:07:80:05:8c:00:27:8a:76:15:6c:dc:8b:6e:
         22:7a:ce:52:d7:2b:cb:a3
-----BEGIN CERTIFICATE-----
MIIFvzCCA6egAwIBAgIULbyuLTXHChc5Qj/rhmv4ZbTUHREwDQYJKoZIhvcNAQEL
BQAwZzELMAkGA1UEBhMCTk8xEjAQBgNVBAoMCU5pdHBpY2tzeTEoMCYGA1UECwwf
Tml0cGlja3N5IENlcnRpZmljYXRlIEF1dGhvcml0eTEaMBgGA1UEAwwRTml0cGlj
a3N5IFJvb3QgQ0EwHhcNMjAxMjA2MjE1MjI5WhcNMzAxMjA2MjE1MjI5WjBnMQsw
CQYDVQQGEwJOTzESMBAGA1UECgwJTml0cGlja3N5MSgwJgYDVQQLDB9OaXRwaWNr
c3kgQ2VydGlmaWNhdGUgQXV0aG9yaXR5MRowGAYDVQQDDBFOaXRwaWNrc3kgUm9v
dCBDQTCCAiIwDQYJKoZIhvcNAQEBBQADggIPADCCAgoCggIBAO/pcFAP4/89/JuD
OMyyWoETpVWN0QoOC4YlL/Onug6E0KmMGa8rmA4QSrDwERmxJwGWNK7mPEPZvsyf
ZvmsfoHnioCMrwVyESgHUXjpRDsfHQkyHdsB0af2VE7h1KFgTC/1RcNleECmnVKU
7VEV92TG6E0NjdfPCG1Std8cndq1tfJKLaEDTIPG8dH7wSreLNVspuXvc8rsIoTW
kcPbKGb/gYOZOhp6LNIcPStxxLdM8k/eEGOCJmZwS+mZNPhPtau2su6GBkBCV0sr
P2lbDCnVF2LL/tbhot3VNqcrQgcXYwTw5w/cpM4drmTTCHN8cWSUWj8iZdzlxhnR
b/0qlGxSdGuGA8jZGrV9uFgIFknSJvaoBVtEYKzzxbbhQrOg6VEhwEgyXkIR3Nw4
UKhs6+nlkAHLnMuoWXHFszsLS8H04Oha6tq+0DsjKcJy7YIGd7RjM3v841HsRT60
XipwC/9MFyrifT1c02oxa8ElRzcrpB/zlj40hZmUs853wR44vBdIPY5P+ykjdxjw
snzec0KxClRw7HF+W3nx+TIkuLmYqtu5KtYEoWlkew8NxEINycQd5ps8gMc3iniF
rGbPwQYo8e9n2l8Xw1mzPx4wu/A6TpYKgNBtlWY9QquVbSjFiXAxbQMKSq7fXa6l
DkwMknl39JMmfNkHKnCfNHFIKB5RAgMBAAGjYzBhMA4GA1UdDwEB/wQEAwIBBjAP
BgNVHRMBAf8EBTADAQH/MB0GA1UdDgQWBBRooBmQwR41oh9NlXJi/FB2WRCjJjAf
BgNVHSMEGDAWgBRooBmQwR41oh9NlXJi/FB2WRCjJjANBgkqhkiG9w0BAQsFAAOC
AgEAMPDSCJ4zof2NmJqxGuBQ9oVrHKM4lSEY9VstDxrXRs38RCMfkHqqqwW3cSL4
iRsbftc5l8SsYZQ5lxE8Ur4FE+ojmky2OKRMdseWTtO/+4bF8x1fwaB6VRkzvdzo
fajw/ez//okM1gF/5u6wvZ/38zZG+pahriK6hwJG1CcwFRWQF4/eOVo5A/X5o3D2
404RNXeFOjm7uS0KRi3TLvZsL/CiDDzIs8LiFmdR9/i3URGASgRSRW6TtOQ5B3bn
Y8/iAabrSPv7YzWTFgK69wf3JI6JrhGFOqSyaEOJY6TAMbYNzD00wn57Rr/F1H3F
VF1KvwK6lMuZb8wPiQQr6Hwcs8J7j/xtrrGES8WXnZ7qtdKDqfu3oS77n9esnMDL
VGAQRvrZmszHRX+kE9wWMfOoFGDZ3t/5nSSoYza4gLTNdO4YmEV7xVgtstTqHD/3
M3KcvzqX69X/C3LkcijbZkDF69+UAPq+zsEZ//czuzDD30mEotvxEx4NaifNQokg
XVazKi+nzkqUWpEdC83CUPpfVKAHr/qMW0gaPEgKePPdMHcudHvZUAJZiD6eXQf1
5pX4lx88z2aZBR6NFFyN9+aJ/h4hOyF612nLhS59PTT2CJj2k1pIW70oN3X7ntT2
+BNU++tAbEE5En645FwHgAWMACeKdhVs3ItuInrOUtcry6M=
-----END CERTIFICATE-----
