Certificate:
    Data:
        Version: 3 (0x2)
        Serial Number:
            3b:ba:ee:38:ca:09:69:ec:3a:aa:2b:90:11:af:38:fc:eb:ba:c9:79
        Signature Algorithm: sha256WithRSAEncryption
        Issuer: C=NO, O=Nitpicksy, OU=Nitpicksy Certificate Authority, CN=Nitpicksy Root CA
        Validity
            Not Before: Dec  6 21:59:44 2020 GMT
            Not After : Dec  6 21:59:44 2030 GMT
        Subject: C=NO, O=Nitpicksy, OU=Nitpicksy Certificate Authority, CN=Nitpicksy TLS CA
        Subject Public Key Info:
            Public Key Algorithm: rsaEncryption
                RSA Public-Key: (4096 bit)
                Modulus:
                    00:ab:7c:04:50:6f:59:fa:43:eb:0f:be:9a:72:67:
                    0c:bb:ec:50:44:4c:b6:ef:c5:6b:4c:8d:ca:55:d5:
                    a2:43:e1:e7:9e:d1:8a:96:28:bb:1a:cd:6d:f2:4b:
                    92:6b:b7:3f:5a:93:33:28:a1:ac:af:42:89:67:b5:
                    2f:ac:04:0b:5a:36:9c:35:ea:d1:52:33:89:13:af:
                    2c:71:c4:e8:64:83:3e:67:59:0c:09:a8:8f:f8:98:
                    3d:0a:1e:3c:62:53:13:51:a7:5a:5d:a4:f0:ac:e4:
                    46:d0:d7:33:10:0d:7b:92:1d:5c:83:a0:cf:2e:c7:
                    df:a7:02:f9:01:bc:7c:19:01:61:c3:e2:f5:69:39:
                    7d:a3:20:89:1d:66:99:47:bf:b0:85:a2:48:f3:94:
                    11:1e:c1:8f:5e:e5:4c:0f:ad:d0:f3:06:c3:53:6b:
                    40:f1:c4:6b:86:63:f6:81:7a:de:d5:da:51:ae:26:
                    1b:37:1e:0c:91:48:3f:2f:69:e5:2d:a1:8e:72:2d:
                    c5:1b:2c:75:12:5a:6e:5a:7c:62:56:bf:ed:04:67:
                    ee:29:38:ad:37:cb:60:31:80:44:db:cb:d8:84:8a:
                    00:40:60:4d:43:16:ea:28:38:5a:e4:8e:58:7a:5e:
                    4d:88:ea:4f:a1:86:79:e0:9f:11:6a:36:76:0e:d7:
                    34:f4:c2:1a:f9:32:b8:7d:3a:05:7f:94:37:5d:8c:
                    a7:31:61:33:be:57:4b:fd:da:bd:cb:b2:be:d3:61:
                    21:88:cf:c5:d0:5b:45:91:e8:71:44:d7:0f:c2:87:
                    95:47:b6:d5:f4:65:b2:b0:a1:b7:7f:41:7f:8b:58:
                    1d:40:41:a2:38:71:82:23:ce:bd:8f:92:19:01:4b:
                    03:aa:f7:dc:76:a2:1b:07:e6:bc:94:53:66:1c:39:
                    9e:6d:d3:71:d1:aa:a3:31:70:9e:7f:f9:50:c6:e8:
                    33:98:8c:92:3b:1e:93:f6:a8:d8:17:40:a3:f9:72:
                    03:c7:50:bf:a5:ad:c5:22:96:96:ed:da:14:3a:df:
                    fe:ca:ed:9c:2b:57:ae:5b:4d:7b:79:ff:f5:de:48:
                    4a:5a:be:50:5c:a7:c9:df:c0:f0:17:d4:83:4a:39:
                    0a:fc:7a:e6:ae:1f:0c:bc:60:b0:e2:98:0a:0c:e8:
                    52:6f:d1:93:09:cf:00:29:32:5e:a0:e6:6f:32:3a:
                    74:bf:37:54:da:5b:8f:0a:64:b3:cd:1b:16:69:68:
                    7a:50:ee:1d:95:36:ad:a8:5d:b4:31:12:62:cc:06:
                    e8:99:28:6c:03:45:08:f6:e6:0f:d5:9a:17:e7:45:
                    81:1a:dd:82:c0:d7:ab:0a:2f:66:f1:a0:ea:b7:7d:
                    79:3d:91
                Exponent: 65537 (0x10001)
        X509v3 extensions:
            X509v3 Key Usage: critical
                Certificate Sign, CRL Sign
            X509v3 Basic Constraints: critical
                CA:TRUE, pathlen:0
            X509v3 Subject Key Identifier: 
                F8:9E:02:FC:4A:0D:42:21:E6:18:5C:50:21:68:5A:34:79:23:14:65
            X509v3 Authority Key Identifier: 
                keyid:90:74:5D:D6:AF:A9:15:73:06:E6:A7:B0:1E:D9:2F:13:1C:AE:DE:29

            Authority Information Access: 
                CA Issuers - URI:http://nitpicksy.no/ca/root-ca.cer

            X509v3 CRL Distribution Points: 

                Full Name:
                  URI:http://nitpicksy.no/ca/root-ca.crl

    Signature Algorithm: sha256WithRSAEncryption
         93:6c:8d:7a:4d:10:0e:95:a8:59:23:20:b8:11:19:e1:91:91:
         34:f3:a8:d0:7e:d8:3f:21:70:7c:97:0c:ff:da:60:40:77:1b:
         00:ad:0b:0e:13:54:73:f7:e0:1a:d7:70:d4:9a:83:92:d0:75:
         36:e5:5a:ef:01:47:6f:7a:d1:44:82:76:33:c3:13:59:11:ca:
         b2:6e:46:df:8a:fa:73:44:7e:6f:07:68:13:b6:75:64:7e:46:
         7d:f3:ba:cb:41:b8:8b:71:cf:6d:6b:0e:26:02:ef:12:ae:2c:
         09:7f:c6:30:5a:21:7f:d5:4e:a1:b3:72:89:e0:ce:05:b3:50:
         03:fa:f6:80:be:85:55:00:49:4f:14:7c:8c:08:bd:aa:d2:6b:
         b0:64:d6:91:9e:cb:04:21:32:e0:64:c4:ff:72:6c:ff:9c:b4:
         5d:63:de:dd:23:ce:a8:96:d0:69:52:b7:95:81:c2:60:85:fb:
         00:73:1b:79:92:73:3e:41:c6:51:e6:b3:ff:de:84:71:e8:9c:
         a4:29:e1:45:8c:f8:e8:a1:31:23:b9:8f:5e:8d:6b:a2:5b:85:
         e9:59:31:ec:bb:68:ca:1b:bd:da:77:15:a8:4f:37:9b:88:21:
         86:7b:ba:c4:01:82:e7:aa:46:12:41:cc:76:bd:84:81:a5:6b:
         e2:35:38:77:31:28:66:12:10:63:5e:5f:50:c6:e8:38:30:f7:
         33:38:a1:e0:27:19:ad:18:89:40:54:f1:56:f7:72:92:fa:7b:
         63:22:d6:c7:b4:ef:b1:86:67:fc:92:e7:b1:5c:f7:93:d3:f1:
         44:2b:64:44:59:08:e6:db:e4:06:54:ba:f1:ca:c1:f8:b9:9b:
         43:40:99:9f:92:84:e1:8b:70:03:b8:90:3d:43:6e:9a:2a:00:
         6c:a8:d3:f3:71:88:e7:e7:6e:31:12:2b:64:15:9f:aa:cf:8b:
         fc:08:2e:43:35:f3:40:9d:4c:8a:01:07:dd:c0:37:b1:5e:5a:
         d8:3b:dc:92:af:c4:a8:ee:f2:4b:09:93:9c:68:b3:e5:4f:9f:
         20:71:7a:34:36:cc:5f:81:6a:bb:d9:1b:d8:32:b5:42:30:22:
         be:39:0f:f2:da:22:4f:53:3b:5a:61:fc:d1:0b:78:41:83:f0:
         25:5e:02:50:6d:2f:f9:44:17:52:0a:5c:4e:94:7d:a9:bf:f8:
         db:14:c6:ff:7b:b2:51:37:1e:5c:c6:11:96:aa:42:58:7e:da:
         f4:6f:75:f5:b0:59:7b:15:3e:ff:19:f7:b7:b2:bf:5f:f4:63:
         fe:e4:dd:83:55:48:fc:b1:e7:4a:ed:08:b0:f9:06:56:2a:10:
         6b:e3:ee:2d:53:79:7c:e1
-----BEGIN CERTIFICATE-----
MIIGODCCBCCgAwIBAgIUO7ruOMoJaew6qiuQEa84/Ou6yXkwDQYJKoZIhvcNAQEL
BQAwZzELMAkGA1UEBhMCTk8xEjAQBgNVBAoMCU5pdHBpY2tzeTEoMCYGA1UECwwf
Tml0cGlja3N5IENlcnRpZmljYXRlIEF1dGhvcml0eTEaMBgGA1UEAwwRTml0cGlj
a3N5IFJvb3QgQ0EwHhcNMjAxMjA2MjE1OTQ0WhcNMzAxMjA2MjE1OTQ0WjBmMQsw
CQYDVQQGEwJOTzESMBAGA1UECgwJTml0cGlja3N5MSgwJgYDVQQLDB9OaXRwaWNr
c3kgQ2VydGlmaWNhdGUgQXV0aG9yaXR5MRkwFwYDVQQDDBBOaXRwaWNrc3kgVExT
IENBMIICIjANBgkqhkiG9w0BAQEFAAOCAg8AMIICCgKCAgEAq3wEUG9Z+kPrD76a
cmcMu+xQREy278VrTI3KVdWiQ+HnntGKlii7Gs1t8kuSa7c/WpMzKKGsr0KJZ7Uv
rAQLWjacNerRUjOJE68sccToZIM+Z1kMCaiP+Jg9Ch48YlMTUadaXaTwrORG0Ncz
EA17kh1cg6DPLsffpwL5Abx8GQFhw+L1aTl9oyCJHWaZR7+whaJI85QRHsGPXuVM
D63Q8wbDU2tA8cRrhmP2gXre1dpRriYbNx4MkUg/L2nlLaGOci3FGyx1ElpuWnxi
Vr/tBGfuKTitN8tgMYBE28vYhIoAQGBNQxbqKDha5I5Yel5NiOpPoYZ54J8RajZ2
Dtc09MIa+TK4fToFf5Q3XYynMWEzvldL/dq9y7K+02EhiM/F0FtFkehxRNcPwoeV
R7bV9GWysKG3f0F/i1gdQEGiOHGCI869j5IZAUsDqvfcdqIbB+a8lFNmHDmebdNx
0aqjMXCef/lQxugzmIySOx6T9qjYF0Cj+XIDx1C/pa3FIpaW7doUOt/+yu2cK1eu
W017ef/13khKWr5QXKfJ38DwF9SDSjkK/Hrmrh8MvGCw4pgKDOhSb9GTCc8AKTJe
oOZvMjp0vzdU2luPCmSzzRsWaWh6UO4dlTatqF20MRJizAbomShsA0UI9uYP1ZoX
50WBGt2CwNerCi9m8aDqt315PZECAwEAAaOB3DCB2TAOBgNVHQ8BAf8EBAMCAQYw
EgYDVR0TAQH/BAgwBgEB/wIBADAdBgNVHQ4EFgQU+J4C/EoNQiHmGFxQIWhaNHkj
FGUwHwYDVR0jBBgwFoAUkHRd1q+pFXMG5qewHtkvExyu3ikwPgYIKwYBBQUHAQEE
MjAwMC4GCCsGAQUFBzAChiJodHRwOi8vbml0cGlja3N5Lm5vL2NhL3Jvb3QtY2Eu
Y2VyMDMGA1UdHwQsMCowKKAmoCSGImh0dHA6Ly9uaXRwaWNrc3kubm8vY2Evcm9v
dC1jYS5jcmwwDQYJKoZIhvcNAQELBQADggIBAJNsjXpNEA6VqFkjILgRGeGRkTTz
qNB+2D8hcHyXDP/aYEB3GwCtCw4TVHP34BrXcNSag5LQdTblWu8BR2960USCdjPD
E1kRyrJuRt+K+nNEfm8HaBO2dWR+Rn3zustBuItxz21rDiYC7xKuLAl/xjBaIX/V
TqGzcongzgWzUAP69oC+hVUASU8UfIwIvarSa7Bk1pGeywQhMuBkxP9ybP+ctF1j
3t0jzqiW0GlSt5WBwmCF+wBzG3mScz5BxlHms//ehHHonKQp4UWM+OihMSO5j16N
a6JbhelZMey7aMobvdp3FahPN5uIIYZ7usQBgueqRhJBzHa9hIGla+I1OHcxKGYS
EGNeX1DG6Dgw9zM4oeAnGa0YiUBU8Vb3cpL6e2Mi1se077GGZ/yS57Fc95PT8UQr
ZERZCObb5AZUuvHKwfi5m0NAmZ+ShOGLcAO4kD1DbpoqAGyo0/NxiOfnbjESK2QV
n6rPi/wILkM180CdTIoBB93AN7FeWtg73JKvxKju8ksJk5xos+VPnyBxejQ2zF+B
arvZG9gytUIwIr45D/LaIk9TO1ph/NELeEGD8CVeAlBtL/lEF1IKXE6Ufam/+NsU
xv97slE3HlzGEZaqQlh+2vRvdfWwWXsVPv8Z97eyv1/0Y/7k3YNVSPyx50rtCLD5
BlYqEGvj7i1TeXzh
-----END CERTIFICATE-----
