Certificate:
    Data:
        Version: 3 (0x2)
        Serial Number:
            49:73:f3:32:ca:d2:50:db:bf:e5:ce:7f:de:82:fd:32:6a:05:69:f4
        Signature Algorithm: sha256WithRSAEncryption
        Issuer: C=NO, O=Nitpicksy, OU=Nitpicksy Certificate Authority, CN=Nitpicksy Root CA
        Validity
            Not Before: Dec  6 22:19:59 2020 GMT
            Not After : Dec  6 22:19:59 2030 GMT
        Subject: C=NO, O=Nitpicksy, OU=Nitpicksy Certificate Authority, CN=Nitpicksy TLS CA
        Subject Public Key Info:
            Public Key Algorithm: rsaEncryption
                RSA Public-Key: (4096 bit)
                Modulus:
                    00:d8:98:96:6c:79:42:bb:97:ab:93:5d:fd:0a:26:
                    5a:39:3b:d6:94:6b:97:bd:ce:a4:b4:65:83:d2:07:
                    b6:65:2d:82:ae:45:03:d6:c3:db:e6:e6:1f:0f:f4:
                    f2:08:c5:35:98:9a:34:07:3b:48:45:70:ad:1d:84:
                    e8:b2:a1:41:6f:3a:89:44:57:a9:17:d1:3c:48:2d:
                    7e:d0:15:32:4d:6e:f0:e7:87:94:1f:20:d9:eb:ca:
                    9f:d8:62:78:12:8c:84:07:31:30:ad:f1:71:43:59:
                    46:ff:c7:77:ef:99:b3:c1:5c:40:7a:ec:3a:6a:da:
                    33:99:2f:d8:db:7a:10:45:e8:58:33:5b:7b:84:dd:
                    cb:8e:c1:31:48:36:8b:c3:ce:b9:49:db:d0:7a:f0:
                    cf:2e:12:28:39:38:e8:40:87:a0:4d:93:f7:bd:d3:
                    f8:12:69:81:39:54:f7:dc:5d:ab:73:10:a3:28:6a:
                    10:ae:10:57:f8:f6:5f:f1:99:f3:a2:fc:6c:ba:03:
                    c8:54:d6:e2:8c:d8:66:4a:06:b2:c2:f8:19:96:09:
                    09:76:3c:f2:3e:d7:dc:8f:20:ab:41:5d:71:85:97:
                    9c:d1:4c:b8:ef:61:a7:13:d1:52:a7:cb:5e:88:4f:
                    0b:28:41:31:c6:75:3c:ae:d1:3b:a1:5f:0c:e3:d2:
                    a1:37:c7:af:02:2a:a9:e1:08:d8:dd:3c:15:30:1f:
                    06:b6:3f:c1:e8:d2:15:f7:c0:ed:68:47:a6:a8:54:
                    b9:79:33:a7:ef:fe:fc:de:99:20:02:28:18:b4:74:
                    98:9f:40:52:0e:9a:b7:d5:e4:43:13:32:43:2e:3a:
                    49:87:94:89:e8:54:ac:ce:fb:b8:85:04:90:6d:31:
                    8b:92:6e:31:e3:90:7d:df:6e:04:66:92:e2:a4:6f:
                    92:92:15:a2:74:6a:cc:62:c7:69:7a:59:18:54:da:
                    82:77:83:de:bf:80:70:1c:63:1f:25:16:95:07:c5:
                    ec:04:dc:9c:02:dc:99:cf:a3:2e:4c:72:3b:dd:73:
                    7f:99:77:49:bd:db:2a:28:c4:b7:e9:7c:28:80:db:
                    2d:d6:5b:20:ae:c3:da:2c:aa:e2:b8:45:8e:57:88:
                    5c:fc:69:24:7f:ee:d5:3c:89:15:8c:38:e6:a5:fc:
                    5c:01:6b:a5:9c:ab:70:c7:7d:52:05:35:82:42:12:
                    a8:3e:62:36:b0:5d:60:3d:14:c4:38:76:fc:70:4d:
                    2f:c8:4a:75:80:4e:05:36:39:7f:4e:b7:e3:6b:51:
                    d2:8c:f3:9f:db:cf:ed:8b:35:23:5a:38:bf:7a:fc:
                    61:50:36:2e:ea:35:dc:2b:75:43:52:40:00:3b:29:
                    86:bb:47
                Exponent: 65537 (0x10001)
        X509v3 extensions:
            X509v3 Key Usage: critical
                Certificate Sign, CRL Sign
            X509v3 Basic Constraints: critical
                CA:TRUE, pathlen:0
            X509v3 Subject Key Identifier: 
                52:53:5F:DA:76:E1:0A:7D:73:AE:D0:12:45:72:13:C1:30:4F:4E:39
            X509v3 Authority Key Identifier: 
                keyid:E8:6E:AB:A5:67:3C:39:82:42:1F:BD:9C:21:D4:C0:FA:10:7D:E4:5D

            Authority Information Access: 
                CA Issuers - URI:http://nitpicksy.no/ca/root-ca.cer

            X509v3 CRL Distribution Points: 

                Full Name:
                  URI:http://nitpicksy.no/ca/root-ca.crl

    Signature Algorithm: sha256WithRSAEncryption
         30:7b:f1:9e:e9:c2:4d:f6:76:83:42:8b:38:99:d0:b9:2b:97:
         77:96:cc:1b:09:c2:8d:6a:2e:ee:65:01:87:30:46:e4:3c:aa:
         24:60:0f:b0:81:98:19:75:f9:2e:a5:e8:af:5a:55:6b:59:ef:
         ba:25:cf:fa:f9:15:c9:18:33:18:c2:33:54:0c:d7:fb:88:77:
         2f:8f:0b:fd:b7:de:90:51:46:f7:3b:da:59:33:db:49:37:d9:
         00:fe:33:56:42:f9:1d:1d:6e:46:58:a7:07:fd:e7:6e:e9:e7:
         ef:a1:33:02:17:a8:6c:0c:e2:09:9a:f7:03:43:bb:60:e2:75:
         54:32:27:6d:51:c4:42:3c:44:1b:f7:9e:86:3b:e0:c6:52:ad:
         c4:45:ba:b6:8c:a8:9e:a1:4f:f3:33:a9:39:36:e1:19:bd:46:
         81:47:42:37:74:1a:79:b1:6c:32:2e:56:34:8d:f0:1c:c9:8d:
         bb:76:97:4a:d4:db:3c:16:74:cf:89:52:0c:c2:33:04:89:ad:
         ca:5b:63:bb:f0:39:82:60:be:11:c1:69:c7:f6:41:bd:96:47:
         cb:16:47:b2:3d:33:45:a8:1e:08:7e:51:55:7a:08:c3:ef:74:
         d6:3b:0d:26:e7:ee:ee:44:bd:c9:07:fd:18:e6:4a:46:76:34:
         2c:c2:c9:a8:d5:09:44:70:c1:9b:51:f9:5c:a0:83:42:a8:9c:
         91:55:9c:ce:03:26:3f:d5:ba:c7:bb:f5:2c:e0:3e:d6:bb:14:
         60:58:e7:8a:62:6f:67:4d:53:d9:d8:e5:15:1c:c9:2a:77:56:
         81:93:a9:49:8d:9a:4b:93:69:2b:ad:75:fe:ab:25:54:1d:81:
         87:0f:fb:3f:92:f1:5d:78:34:b3:c0:ef:65:32:68:ec:d7:04:
         a1:0a:6a:07:4a:e2:fd:29:5a:be:b4:10:5d:8a:fd:0a:e2:23:
         c8:d0:62:2a:b2:b2:d5:2f:50:48:4e:4f:56:3e:8f:38:85:56:
         1c:5b:75:d2:ea:51:92:78:79:45:cb:a5:12:01:58:43:30:18:
         21:69:08:56:f1:80:a2:70:10:c3:99:69:cb:66:85:bc:6a:61:
         d3:1b:8f:ee:a6:5b:e7:aa:f9:0c:80:d8:9d:8c:01:9d:66:7d:
         db:1a:09:c1:94:ec:d6:92:52:00:98:ca:51:10:dd:2d:6e:36:
         80:70:f9:e1:42:2f:a4:14:64:e1:c8:fc:d1:6e:90:9f:85:d4:
         da:60:b1:2b:ad:e1:eb:03:72:b4:d2:6f:18:ae:34:2a:a4:95:
         15:94:b1:b4:9f:81:40:97:88:03:6f:ce:20:11:2b:77:07:cc:
         ce:7d:cb:c0:f7:d3:0f:b2
-----BEGIN CERTIFICATE-----
MIIGODCCBCCgAwIBAgIUSXPzMsrSUNu/5c5/3oL9MmoFafQwDQYJKoZIhvcNAQEL
BQAwZzELMAkGA1UEBhMCTk8xEjAQBgNVBAoMCU5pdHBpY2tzeTEoMCYGA1UECwwf
Tml0cGlja3N5IENlcnRpZmljYXRlIEF1dGhvcml0eTEaMBgGA1UEAwwRTml0cGlj
a3N5IFJvb3QgQ0EwHhcNMjAxMjA2MjIxOTU5WhcNMzAxMjA2MjIxOTU5WjBmMQsw
CQYDVQQGEwJOTzESMBAGA1UECgwJTml0cGlja3N5MSgwJgYDVQQLDB9OaXRwaWNr
c3kgQ2VydGlmaWNhdGUgQXV0aG9yaXR5MRkwFwYDVQQDDBBOaXRwaWNrc3kgVExT
IENBMIICIjANBgkqhkiG9w0BAQEFAAOCAg8AMIICCgKCAgEA2JiWbHlCu5erk139
CiZaOTvWlGuXvc6ktGWD0ge2ZS2CrkUD1sPb5uYfD/TyCMU1mJo0BztIRXCtHYTo
sqFBbzqJRFepF9E8SC1+0BUyTW7w54eUHyDZ68qf2GJ4EoyEBzEwrfFxQ1lG/8d3
75mzwVxAeuw6atozmS/Y23oQRehYM1t7hN3LjsExSDaLw865SdvQevDPLhIoOTjo
QIegTZP3vdP4EmmBOVT33F2rcxCjKGoQrhBX+PZf8ZnzovxsugPIVNbijNhmSgay
wvgZlgkJdjzyPtfcjyCrQV1xhZec0Uy472GnE9FSp8teiE8LKEExxnU8rtE7oV8M
49KhN8evAiqp4QjY3TwVMB8Gtj/B6NIV98DtaEemqFS5eTOn7/783pkgAigYtHSY
n0BSDpq31eRDEzJDLjpJh5SJ6FSszvu4hQSQbTGLkm4x45B9324EZpLipG+SkhWi
dGrMYsdpelkYVNqCd4Pev4BwHGMfJRaVB8XsBNycAtyZz6MuTHI73XN/mXdJvdsq
KMS36XwogNst1lsgrsPaLKriuEWOV4hc/Gkkf+7VPIkVjDjmpfxcAWulnKtwx31S
BTWCQhKoPmI2sF1gPRTEOHb8cE0vyEp1gE4FNjl/Trfja1HSjPOf28/tizUjWji/
evxhUDYu6jXcK3VDUkAAOymGu0cCAwEAAaOB3DCB2TAOBgNVHQ8BAf8EBAMCAQYw
EgYDVR0TAQH/BAgwBgEB/wIBADAdBgNVHQ4EFgQUUlNf2nbhCn1zrtASRXITwTBP
TjkwHwYDVR0jBBgwFoAU6G6rpWc8OYJCH72cIdTA+hB95F0wPgYIKwYBBQUHAQEE
MjAwMC4GCCsGAQUFBzAChiJodHRwOi8vbml0cGlja3N5Lm5vL2NhL3Jvb3QtY2Eu
Y2VyMDMGA1UdHwQsMCowKKAmoCSGImh0dHA6Ly9uaXRwaWNrc3kubm8vY2Evcm9v
dC1jYS5jcmwwDQYJKoZIhvcNAQELBQADggIBADB78Z7pwk32doNCiziZ0Lkrl3eW
zBsJwo1qLu5lAYcwRuQ8qiRgD7CBmBl1+S6l6K9aVWtZ77olz/r5FckYMxjCM1QM
1/uIdy+PC/233pBRRvc72lkz20k32QD+M1ZC+R0dbkZYpwf9527p5++hMwIXqGwM
4gma9wNDu2DidVQyJ21RxEI8RBv3noY74MZSrcRFuraMqJ6hT/MzqTk24Rm9RoFH
Qjd0GnmxbDIuVjSN8BzJjbt2l0rU2zwWdM+JUgzCMwSJrcpbY7vwOYJgvhHBacf2
Qb2WR8sWR7I9M0WoHgh+UVV6CMPvdNY7DSbn7u5EvckH/RjmSkZ2NCzCyajVCURw
wZtR+Vygg0KonJFVnM4DJj/Vuse79SzgPta7FGBY54pib2dNU9nY5RUcySp3VoGT
qUmNmkuTaSutdf6rJVQdgYcP+z+S8V14NLPA72UyaOzXBKEKagdK4v0pWr60EF2K
/QriI8jQYiqystUvUEhOT1Y+jziFVhxbddLqUZJ4eUXLpRIBWEMwGCFpCFbxgKJw
EMOZactmhbxqYdMbj+6mW+eq+QyA2J2MAZ1mfdsaCcGU7NaSUgCYylEQ3S1uNoBw
+eFCL6QUZOHI/NFukJ+F1NpgsSut4esDcrTSbxiuNCqklRWUsbSfgUCXiANvziAR
K3cHzM59y8D30w+y
-----END CERTIFICATE-----
