Certificate:
    Data:
        Version: 3 (0x2)
        Serial Number:
            4a:06:bb:44:fa:2b:27:42:69:df:a3:a0:0c:4d:a2:c2:df:29:7f:3c
        Signature Algorithm: sha256WithRSAEncryption
        Issuer: C=NO, O=Nitpicksy, OU=Nitpicksy Certificate Authority, CN=Nitpicksy Root CA
        Validity
            Not Before: Dec  4 12:02:34 2020 GMT
            Not After : Dec  4 12:02:34 2030 GMT
        Subject: C=NO, O=Nitpicksy, OU=Nitpicksy Certificate Authority, CN=Nitpicksy TLS CA
        Subject Public Key Info:
            Public Key Algorithm: rsaEncryption
                RSA Public-Key: (4096 bit)
                Modulus:
                    00:f4:49:bf:c2:14:58:a3:b6:a7:59:d3:86:9f:a9:
                    03:a5:59:5c:ed:4e:74:1d:49:22:da:42:ba:6e:29:
                    e0:ec:74:11:fc:48:ee:28:f3:5e:00:77:00:57:b7:
                    3c:f7:a9:ee:94:88:7e:f6:42:ec:4b:27:38:ca:ff:
                    b1:6e:b3:61:f1:18:40:ab:83:af:19:de:28:4c:cc:
                    a0:db:ae:6c:91:66:ad:cb:e6:8d:dc:81:03:29:96:
                    10:4f:a0:68:9f:3c:7f:af:6b:d5:e0:5e:b0:ea:a9:
                    ea:85:67:cb:2d:d3:e6:2e:ae:cc:af:a0:6d:35:ed:
                    4d:43:7f:62:54:31:79:27:fe:12:e4:ee:03:00:c2:
                    9d:60:eb:5d:fa:82:4f:4b:6c:91:23:e1:64:88:62:
                    a5:64:0c:b9:61:f8:41:0d:96:c0:5f:68:3f:89:20:
                    44:9d:78:7f:da:63:af:79:95:1c:6e:6a:4e:8b:15:
                    5a:e4:86:37:c9:12:e4:e9:61:c3:f2:16:6a:47:a1:
                    ae:31:75:38:1e:f2:50:66:36:e1:ff:28:f0:a2:95:
                    fa:c4:12:f1:21:ca:8f:b7:36:1e:7a:51:dc:58:74:
                    10:e6:4d:94:26:7a:8e:10:57:ad:0f:42:6f:e5:26:
                    ff:86:e7:51:6f:a7:3a:5a:17:b4:01:4b:d7:dd:1b:
                    88:96:1b:22:1d:f6:25:e2:a0:46:ef:76:95:86:61:
                    5d:a5:8e:b5:9b:01:6b:2d:88:2c:fb:f2:80:9e:9d:
                    94:c4:86:3d:08:14:ce:f8:99:8e:53:5a:c2:c0:73:
                    ba:a4:4d:dd:59:79:90:f3:c7:eb:c4:fa:19:54:0b:
                    ea:a6:1d:7a:6a:36:ce:52:ba:83:80:3d:14:3a:79:
                    40:89:a6:a2:63:2c:6d:07:bd:58:fe:08:0c:98:72:
                    9d:47:11:ee:e5:1d:90:2d:90:6a:1a:c1:a1:8a:44:
                    6e:83:96:8a:c7:bd:bf:00:82:d9:3d:15:e9:54:0d:
                    7d:31:a7:0c:2a:39:42:a1:13:32:91:46:04:bf:8c:
                    cb:ca:16:df:b0:07:29:c5:7c:30:ac:80:40:ab:74:
                    02:58:b9:43:a4:c1:bd:e1:31:6b:cc:ff:3a:53:ee:
                    10:b6:76:6a:66:d2:e8:64:06:7a:66:b3:d1:1a:f7:
                    9c:ae:f7:52:1f:fc:83:3a:d3:36:2e:ea:1e:ba:1a:
                    38:a3:12:aa:d9:45:98:19:c0:fc:19:61:73:87:24:
                    85:a0:f5:ff:64:8c:e1:88:c5:34:57:bc:c0:6e:ce:
                    50:16:40:41:ac:de:fe:96:81:e7:79:5f:61:dc:64:
                    49:eb:25:e2:a5:20:d9:98:74:ed:9d:56:bd:53:36:
                    f8:bb:71
                Exponent: 65537 (0x10001)
        X509v3 extensions:
            X509v3 Key Usage: critical
                Certificate Sign, CRL Sign
            X509v3 Basic Constraints: critical
                CA:TRUE, pathlen:0
            X509v3 Subject Key Identifier: 
                D2:53:26:CF:E6:F6:19:54:29:73:17:A2:0D:1B:AF:E6:C8:8B:AC:46
            X509v3 Authority Key Identifier: 
                keyid:AB:77:8E:51:19:F4:98:63:BB:D9:1C:95:F7:4A:76:12:63:59:9E:91

            Authority Information Access: 
                CA Issuers - URI:http://nitpicksy.no/ca/root-ca.cer

            X509v3 CRL Distribution Points: 

                Full Name:
                  URI:http://nitpicksy.no/ca/root-ca.crl

    Signature Algorithm: sha256WithRSAEncryption
         3f:1b:86:a5:ab:1b:2d:8c:cb:7f:94:4f:87:8f:f3:0e:93:ab:
         01:82:5d:6a:cd:f2:88:ca:0e:38:77:da:7d:7d:75:d6:4a:0a:
         0f:85:00:a4:57:22:0d:50:7c:5e:b5:1b:14:36:d1:e3:53:ea:
         ad:f7:cc:6b:c1:f3:fd:cd:7c:40:46:fb:cb:e8:d0:94:a0:c3:
         f2:7b:95:95:e1:eb:6a:c2:7d:04:60:53:32:d5:f9:92:c7:72:
         30:df:0e:eb:48:d3:4a:d4:e5:2b:3c:b2:f1:d1:5d:c8:22:f7:
         3e:cd:5a:d2:10:4c:7f:22:c7:05:01:5d:fd:c8:2f:19:0c:ab:
         c8:cd:bd:d1:d7:45:e3:06:2e:95:73:a8:3c:5a:08:6b:ce:9b:
         c8:27:04:1a:a3:8d:ef:e9:f6:d7:ab:bb:07:24:49:7d:e5:ff:
         d9:61:76:91:df:98:cd:21:a3:c9:ef:75:d8:27:64:5c:49:d9:
         c2:5b:76:94:b9:12:c8:a6:07:29:03:f3:19:b0:db:99:66:f6:
         3f:ba:85:80:9b:d8:6d:24:4f:b9:6f:56:60:af:15:00:6f:75:
         ff:67:b5:01:cc:0e:bc:57:b2:c2:2b:8b:4f:27:2f:84:d7:d9:
         3e:91:c0:46:c1:d5:ce:30:f0:a2:5d:9d:ac:c4:e8:2a:9f:13:
         14:9d:2b:24:a1:79:94:96:b3:b3:a6:04:14:7f:9d:25:38:18:
         25:1f:a4:e2:93:56:9e:70:2b:72:b9:44:34:a0:6b:6b:2c:ac:
         2a:7a:bc:6f:93:cb:20:1b:1e:51:a5:80:ef:8a:39:df:31:45:
         3a:95:60:00:ae:3f:51:2d:38:49:2d:51:81:ca:e8:9f:f3:95:
         d2:e0:04:42:f0:0f:95:5a:f7:bf:1a:16:3a:42:51:78:93:56:
         af:c6:48:cf:66:12:5e:87:b4:4a:4f:15:4c:3f:66:2f:05:76:
         3e:55:f5:1f:92:80:56:8e:e2:6e:27:a7:33:09:0e:ae:95:ea:
         69:20:e1:cd:0b:c6:20:ae:52:04:40:4b:09:a8:a3:87:06:15:
         43:d9:08:48:d9:1e:e7:21:82:63:e2:94:a8:42:92:04:26:9e:
         d4:7f:77:a9:ae:58:0d:c9:0f:b0:b7:74:70:d9:60:2f:5d:26:
         c1:d7:75:ee:b6:a9:18:42:2b:17:30:29:7a:04:2b:c5:ec:49:
         2d:b1:64:3d:08:e5:b8:6b:6a:38:83:f5:1a:56:bf:fb:97:90:
         5c:48:04:0a:3a:76:fb:b8:f7:1f:f3:35:d2:d5:0e:c8:9c:a1:
         a3:28:8d:45:85:bb:74:1c:02:e0:81:1f:57:1f:71:29:87:f6:
         58:ff:35:3a:b8:d3:ff:b0
-----BEGIN CERTIFICATE-----
MIIGODCCBCCgAwIBAgIUSga7RPorJ0Jp36OgDE2iwt8pfzwwDQYJKoZIhvcNAQEL
BQAwZzELMAkGA1UEBhMCTk8xEjAQBgNVBAoMCU5pdHBpY2tzeTEoMCYGA1UECwwf
Tml0cGlja3N5IENlcnRpZmljYXRlIEF1dGhvcml0eTEaMBgGA1UEAwwRTml0cGlj
a3N5IFJvb3QgQ0EwHhcNMjAxMjA0MTIwMjM0WhcNMzAxMjA0MTIwMjM0WjBmMQsw
CQYDVQQGEwJOTzESMBAGA1UECgwJTml0cGlja3N5MSgwJgYDVQQLDB9OaXRwaWNr
c3kgQ2VydGlmaWNhdGUgQXV0aG9yaXR5MRkwFwYDVQQDDBBOaXRwaWNrc3kgVExT
IENBMIICIjANBgkqhkiG9w0BAQEFAAOCAg8AMIICCgKCAgEA9Em/whRYo7anWdOG
n6kDpVlc7U50HUki2kK6bing7HQR/EjuKPNeAHcAV7c896nulIh+9kLsSyc4yv+x
brNh8RhAq4OvGd4oTMyg265skWaty+aN3IEDKZYQT6Bonzx/r2vV4F6w6qnqhWfL
LdPmLq7Mr6BtNe1NQ39iVDF5J/4S5O4DAMKdYOtd+oJPS2yRI+FkiGKlZAy5YfhB
DZbAX2g/iSBEnXh/2mOveZUcbmpOixVa5IY3yRLk6WHD8hZqR6GuMXU4HvJQZjbh
/yjwopX6xBLxIcqPtzYeelHcWHQQ5k2UJnqOEFetD0Jv5Sb/hudRb6c6Whe0AUvX
3RuIlhsiHfYl4qBG73aVhmFdpY61mwFrLYgs+/KAnp2UxIY9CBTO+JmOU1rCwHO6
pE3dWXmQ88frxPoZVAvqph16ajbOUrqDgD0UOnlAiaaiYyxtB71Y/ggMmHKdRxHu
5R2QLZBqGsGhikRug5aKx72/AILZPRXpVA19MacMKjlCoRMykUYEv4zLyhbfsAcp
xXwwrIBAq3QCWLlDpMG94TFrzP86U+4QtnZqZtLoZAZ6ZrPRGvecrvdSH/yDOtM2
Luoeuho4oxKq2UWYGcD8GWFzhySFoPX/ZIzhiMU0V7zAbs5QFkBBrN7+loHneV9h
3GRJ6yXipSDZmHTtnVa9Uzb4u3ECAwEAAaOB3DCB2TAOBgNVHQ8BAf8EBAMCAQYw
EgYDVR0TAQH/BAgwBgEB/wIBADAdBgNVHQ4EFgQU0lMmz+b2GVQpcxeiDRuv5siL
rEYwHwYDVR0jBBgwFoAUq3eOURn0mGO72RyV90p2EmNZnpEwPgYIKwYBBQUHAQEE
MjAwMC4GCCsGAQUFBzAChiJodHRwOi8vbml0cGlja3N5Lm5vL2NhL3Jvb3QtY2Eu
Y2VyMDMGA1UdHwQsMCowKKAmoCSGImh0dHA6Ly9uaXRwaWNrc3kubm8vY2Evcm9v
dC1jYS5jcmwwDQYJKoZIhvcNAQELBQADggIBAD8bhqWrGy2My3+UT4eP8w6TqwGC
XWrN8ojKDjh32n19ddZKCg+FAKRXIg1QfF61GxQ20eNT6q33zGvB8/3NfEBG+8vo
0JSgw/J7lZXh62rCfQRgUzLV+ZLHcjDfDutI00rU5Ss8svHRXcgi9z7NWtIQTH8i
xwUBXf3ILxkMq8jNvdHXReMGLpVzqDxaCGvOm8gnBBqjje/p9teruwckSX3l/9lh
dpHfmM0ho8nvddgnZFxJ2cJbdpS5EsimBykD8xmw25lm9j+6hYCb2G0kT7lvVmCv
FQBvdf9ntQHMDrxXssIri08nL4TX2T6RwEbB1c4w8KJdnazE6CqfExSdKySheZSW
s7OmBBR/nSU4GCUfpOKTVp5wK3K5RDSga2ssrCp6vG+TyyAbHlGlgO+KOd8xRTqV
YACuP1EtOEktUYHK6J/zldLgBELwD5Va978aFjpCUXiTVq/GSM9mEl6HtEpPFUw/
Zi8Fdj5V9R+SgFaO4m4npzMJDq6V6mkg4c0LxiCuUgRASwmoo4cGFUPZCEjZHuch
gmPilKhCkgQmntR/d6muWA3JD7C3dHDZYC9dJsHXde62qRhCKxcwKXoEK8XsSS2x
ZD0I5bhrajiD9RpWv/uXkFxIBAo6dvu49x/zNdLVDsicoaMojUWFu3QcAuCBH1cf
cSmH9lj/NTq40/+w
-----END CERTIFICATE-----
