Certificate:
    Data:
        Version: 3 (0x2)
        Serial Number:
            4a:22:6b:4b:76:6a:ba:76:91:5d:80:ae:10:3a:ab:9d:54:21:59:f2
        Signature Algorithm: sha256WithRSAEncryption
        Issuer: C=NO, O=Nitpicksy, OU=Nitpicksy Certificate Authority, CN=Nitpicksy Root CA
        Validity
            Not Before: Dec  6 21:51:55 2020 GMT
            Not After : Dec  6 21:51:55 2030 GMT
        Subject: C=NO, O=Nitpicksy, OU=Nitpicksy Certificate Authority, CN=Nitpicksy Root CA
        Subject Public Key Info:
            Public Key Algorithm: rsaEncryption
                RSA Public-Key: (4096 bit)
                Modulus:
                    00:b4:d5:1c:53:55:fd:0d:e2:ee:58:b4:a0:75:79:
                    f3:66:38:0d:9a:65:77:ea:53:b1:ae:a9:c9:ba:4f:
                    c7:46:a2:68:92:17:49:68:fa:4b:b5:f6:7a:3a:ce:
                    9c:14:eb:a6:07:3c:ed:0a:05:0e:0f:23:cc:75:93:
                    57:a2:46:19:41:56:76:d1:4f:d5:a4:c7:73:58:e0:
                    ae:79:1f:bc:be:bb:89:96:3e:0f:a3:e7:d1:44:d2:
                    52:7b:69:5a:af:44:47:8d:05:82:b2:38:bc:a0:fc:
                    8a:d1:db:42:aa:48:c4:52:7a:18:7d:02:92:ff:b3:
                    b5:1c:08:8f:05:56:a7:6e:ce:ab:ed:d7:59:7f:0d:
                    df:33:66:35:9c:e1:4f:d0:12:44:af:fb:14:19:76:
                    bd:62:6f:18:60:70:b9:82:16:99:0f:e6:e3:c6:45:
                    77:24:4e:65:00:d2:12:a8:6d:f8:28:5d:f1:8d:34:
                    3d:d5:06:ca:ba:80:48:87:17:62:6e:92:ae:76:f3:
                    87:f7:5e:4c:d1:c8:ac:86:80:cd:b7:6c:0a:59:01:
                    55:c3:57:37:06:83:ac:b9:f6:7e:fb:f3:52:8f:70:
                    bf:27:31:95:27:27:8a:69:e7:6e:6d:19:25:1c:64:
                    78:6c:4b:24:68:12:d8:79:f3:41:a3:82:2c:5c:04:
                    05:ec:7e:a7:ca:a8:de:7a:7b:a8:91:8b:e8:34:f9:
                    55:fc:4b:a4:c1:e6:b0:c7:a7:e3:dc:8d:8d:20:1f:
                    ac:be:7d:cd:82:21:3e:8c:41:7b:ab:25:bf:14:2b:
                    02:17:7f:97:d3:7c:ac:bf:8e:dc:dd:53:4d:d0:55:
                    4e:01:37:ba:50:e6:8c:09:64:d9:8e:bf:8f:af:08:
                    da:24:c0:f1:3a:84:51:a9:70:3b:ea:71:03:8d:b3:
                    ab:03:16:42:52:45:03:36:28:52:10:35:d8:bb:52:
                    b7:bf:a6:ed:c3:fa:9e:44:84:84:df:70:57:2f:12:
                    a1:0b:4e:df:a0:9f:05:20:46:bc:90:d7:bd:2c:2a:
                    9e:10:1a:3c:9c:3c:d8:6f:ed:9d:a5:67:e1:bb:1c:
                    2b:1b:8e:26:26:78:27:a2:46:6e:7a:0b:01:43:c0:
                    ca:a6:51:48:0a:d6:c7:24:ae:a6:f2:2e:2b:02:1e:
                    17:66:c9:d9:da:95:40:03:14:ec:32:92:96:6c:da:
                    8a:87:8e:b4:9d:a7:e0:9f:08:cc:3f:0a:37:93:7b:
                    a5:85:75:90:aa:a1:04:d3:14:86:b0:ec:95:00:39:
                    cd:2c:4d:d9:0d:ca:22:5e:5d:66:78:12:16:bd:24:
                    a4:16:db:b9:d1:c7:82:e9:f9:a7:6c:c0:2b:53:d1:
                    2a:38:49
                Exponent: 65537 (0x10001)
        X509v3 extensions:
            X509v3 Key Usage: critical
                Certificate Sign, CRL Sign
            X509v3 Basic Constraints: critical
                CA:TRUE
            X509v3 Subject Key Identifier: 
                12:CD:50:35:AC:49:29:E9:98:C1:7A:B5:8D:4D:B2:84:71:CE:10:4C
            X509v3 Authority Key Identifier: 
                keyid:12:CD:50:35:AC:49:29:E9:98:C1:7A:B5:8D:4D:B2:84:71:CE:10:4C

    Signature Algorithm: sha256WithRSAEncryption
         ac:3a:c1:e9:cb:cd:1a:8a:21:79:16:c0:ca:be:c4:27:6f:a9:
         c9:a0:d7:48:b2:b0:b5:f8:e4:cf:3e:84:67:16:d8:31:1d:db:
         03:6b:46:11:8c:f4:dc:97:6c:01:43:21:ac:ec:d8:b7:b3:1a:
         6d:53:96:e0:f8:10:43:dc:cb:fe:bf:86:3b:70:0b:cd:b4:e5:
         19:3b:5b:2f:2e:b4:5c:10:3e:74:7f:44:16:36:a5:bd:2e:a2:
         af:b4:15:ba:a8:f6:e6:8f:46:43:b1:21:a8:2a:5c:09:47:eb:
         fb:9d:da:3a:b4:7e:a3:07:2d:16:fa:ae:bb:7d:cd:33:01:24:
         1b:6c:4b:20:35:7c:a5:f7:4c:d4:11:40:9a:d8:ca:16:c3:91:
         dc:a3:b9:d2:af:3d:27:80:01:28:38:5b:6f:db:53:c0:74:b1:
         c7:ae:d5:33:a9:4a:36:a7:43:7a:40:29:c8:55:e5:51:74:a1:
         3e:8c:56:ff:2d:27:74:52:2f:9a:16:8e:db:65:02:b6:0a:47:
         84:5d:de:f9:43:4c:7c:14:85:41:0c:f2:47:8c:e8:89:cc:6f:
         45:2c:e3:da:d8:01:3c:3c:f5:7d:fa:91:eb:36:da:88:db:c4:
         48:c2:b6:3f:97:4b:1c:7b:68:38:40:0f:90:98:1e:94:7f:8c:
         a1:04:50:70:ac:cc:02:21:c4:fd:33:a0:d1:ed:25:9a:81:9b:
         db:76:1b:52:18:29:8c:97:29:bb:fc:c4:43:28:38:23:c2:e1:
         f7:3e:1a:9a:41:47:c3:69:e7:0c:c7:0e:84:81:0e:75:b4:99:
         64:0d:ea:c0:b8:fd:2c:28:16:57:fb:03:0d:61:b3:18:8a:ec:
         9d:a4:50:af:9e:33:87:45:6c:86:3b:0a:48:37:fd:ef:36:d7:
         57:b9:13:f5:75:26:53:ae:15:d1:f4:33:f9:8f:a5:b1:5e:ac:
         37:d4:48:c1:89:07:5d:c1:32:46:c6:30:a9:8f:f0:92:03:8e:
         44:25:5b:de:d5:e6:1d:04:d8:17:72:1a:df:9d:fa:47:4d:5f:
         9b:de:bf:94:a0:37:74:93:8d:d8:5c:a2:d8:9b:ef:d1:a2:65:
         81:33:88:24:9f:08:c0:ea:f3:76:ce:3a:6f:90:ba:6a:91:ea:
         bd:90:c8:4b:fc:af:82:be:35:28:d4:65:63:d6:bb:cf:9a:fd:
         17:a0:82:ff:cd:c8:64:27:d5:ca:7d:e0:68:32:36:be:1e:52:
         fe:8d:f5:c7:ed:93:7e:a9:a9:b9:0b:3e:11:18:ac:5d:5d:08:
         cc:01:c2:00:ab:27:60:12:44:07:15:a5:1f:b1:2e:89:1c:bd:
         ee:1b:5e:27:e7:89:f6:19
-----BEGIN CERTIFICATE-----
MIIFvzCCA6egAwIBAgIUSiJrS3ZqunaRXYCuEDqrnVQhWfIwDQYJKoZIhvcNAQEL
BQAwZzELMAkGA1UEBhMCTk8xEjAQBgNVBAoMCU5pdHBpY2tzeTEoMCYGA1UECwwf
Tml0cGlja3N5IENlcnRpZmljYXRlIEF1dGhvcml0eTEaMBgGA1UEAwwRTml0cGlj
a3N5IFJvb3QgQ0EwHhcNMjAxMjA2MjE1MTU1WhcNMzAxMjA2MjE1MTU1WjBnMQsw
CQYDVQQGEwJOTzESMBAGA1UECgwJTml0cGlja3N5MSgwJgYDVQQLDB9OaXRwaWNr
c3kgQ2VydGlmaWNhdGUgQXV0aG9yaXR5MRowGAYDVQQDDBFOaXRwaWNrc3kgUm9v
dCBDQTCCAiIwDQYJKoZIhvcNAQEBBQADggIPADCCAgoCggIBALTVHFNV/Q3i7li0
oHV582Y4DZpld+pTsa6pybpPx0aiaJIXSWj6S7X2ejrOnBTrpgc87QoFDg8jzHWT
V6JGGUFWdtFP1aTHc1jgrnkfvL67iZY+D6Pn0UTSUntpWq9ER40FgrI4vKD8itHb
QqpIxFJ6GH0Ckv+ztRwIjwVWp27Oq+3XWX8N3zNmNZzhT9ASRK/7FBl2vWJvGGBw
uYIWmQ/m48ZFdyROZQDSEqht+Chd8Y00PdUGyrqASIcXYm6Srnbzh/deTNHIrIaA
zbdsClkBVcNXNwaDrLn2fvvzUo9wvycxlScnimnnbm0ZJRxkeGxLJGgS2HnzQaOC
LFwEBex+p8qo3np7qJGL6DT5VfxLpMHmsMen49yNjSAfrL59zYIhPoxBe6slvxQr
Ahd/l9N8rL+O3N1TTdBVTgE3ulDmjAlk2Y6/j68I2iTA8TqEUalwO+pxA42zqwMW
QlJFAzYoUhA12LtSt7+m7cP6nkSEhN9wVy8SoQtO36CfBSBGvJDXvSwqnhAaPJw8
2G/tnaVn4bscKxuOJiZ4J6JGbnoLAUPAyqZRSArWxySupvIuKwIeF2bJ2dqVQAMU
7DKSlmzaioeOtJ2n4J8IzD8KN5N7pYV1kKqhBNMUhrDslQA5zSxN2Q3KIl5dZngS
Fr0kpBbbudHHgun5p2zAK1PRKjhJAgMBAAGjYzBhMA4GA1UdDwEB/wQEAwIBBjAP
BgNVHRMBAf8EBTADAQH/MB0GA1UdDgQWBBQSzVA1rEkp6ZjBerWNTbKEcc4QTDAf
BgNVHSMEGDAWgBQSzVA1rEkp6ZjBerWNTbKEcc4QTDANBgkqhkiG9w0BAQsFAAOC
AgEArDrB6cvNGooheRbAyr7EJ2+pyaDXSLKwtfjkzz6EZxbYMR3bA2tGEYz03Jds
AUMhrOzYt7MabVOW4PgQQ9zL/r+GO3ALzbTlGTtbLy60XBA+dH9EFjalvS6ir7QV
uqj25o9GQ7EhqCpcCUfr+53aOrR+owctFvquu33NMwEkG2xLIDV8pfdM1BFAmtjK
FsOR3KO50q89J4ABKDhbb9tTwHSxx67VM6lKNqdDekApyFXlUXShPoxW/y0ndFIv
mhaO22UCtgpHhF3e+UNMfBSFQQzyR4zoicxvRSzj2tgBPDz1ffqR6zbaiNvESMK2
P5dLHHtoOEAPkJgelH+MoQRQcKzMAiHE/TOg0e0lmoGb23YbUhgpjJcpu/zEQyg4
I8Lh9z4amkFHw2nnDMcOhIEOdbSZZA3qwLj9LCgWV/sDDWGzGIrsnaRQr54zh0Vs
hjsKSDf97zbXV7kT9XUmU64V0fQz+Y+lsV6sN9RIwYkHXcEyRsYwqY/wkgOORCVb
3tXmHQTYF3Ia3536R01fm96/lKA3dJON2Fyi2Jvv0aJlgTOIJJ8IwOrzds46b5C6
apHqvZDIS/yvgr41KNRlY9a7z5r9F6CC/83IZCfVyn3gaDI2vh5S/o31x+2Tfqmp
uQs+ERisXV0IzAHCAKsnYBJEBxWlH7EuiRy97hteJ+eJ9hk=
-----END CERTIFICATE-----
