Certificate:
    Data:
        Version: 3 (0x2)
        Serial Number:
            4a:e1:c5:5b:43:90:55:c7:0b:9c:3c:8d:67:c2:47:bb:4a:1d:8f:32
        Signature Algorithm: sha256WithRSAEncryption
        Issuer: C=NO, O=Nitpicksy, OU=Nitpicksy Certificate Authority, CN=Nitpicksy Root CA
        Validity
            Not Before: Dec 11 20:36:46 2020 GMT
            Not After : Dec 11 20:36:46 2030 GMT
        Subject: C=NO, O=Nitpicksy, OU=Nitpicksy Certificate Authority, CN=Nitpicksy Root CA
        Subject Public Key Info:
            Public Key Algorithm: rsaEncryption
                RSA Public-Key: (4096 bit)
                Modulus:
                    00:d0:d1:ab:18:e1:99:a6:66:72:9e:60:22:d0:a3:
                    e5:49:b1:7e:e6:d6:cc:75:90:74:85:c1:80:51:65:
                    db:30:5a:e4:30:34:6c:1a:8b:29:7c:9a:2e:57:14:
                    f8:60:df:b5:29:b6:6e:86:3a:c6:4f:a8:7e:74:bc:
                    3e:e7:09:cc:b6:e5:4d:35:3f:80:77:16:48:a9:bf:
                    0b:9e:2a:8b:30:1d:b6:7d:8a:c1:07:75:e8:bf:d4:
                    a3:93:b6:bf:16:71:6f:e2:ad:7a:e2:cd:2c:c9:8a:
                    b8:b3:53:04:d0:14:6c:8d:3e:6a:36:46:0c:bd:d1:
                    e3:c7:8d:0b:3d:16:cf:df:02:09:aa:b0:fd:9b:75:
                    cd:a4:17:a4:05:d5:6c:94:01:6c:57:3a:c1:54:29:
                    fb:f3:ef:b2:2f:e8:fd:86:2b:d0:9d:56:ee:bd:60:
                    6b:29:f3:f5:08:3b:79:06:4d:43:33:42:f5:e5:b8:
                    c4:b4:4d:a3:13:c7:da:a6:5c:c1:f6:0b:25:cb:e2:
                    7d:3c:d7:f5:e9:f9:f2:94:ed:f6:4a:29:40:a6:ff:
                    74:b7:87:ae:4a:ae:f3:83:0e:52:ac:3b:71:9c:19:
                    59:fa:df:00:61:99:c9:67:e9:72:87:5f:00:b1:47:
                    8a:2c:ab:00:a6:ee:dd:08:0d:72:92:e8:ee:ba:61:
                    28:91:b2:a8:9b:43:a3:99:1e:29:83:5c:0b:11:6f:
                    e6:9f:25:39:6a:a9:82:b4:fd:e8:41:ce:36:70:8a:
                    ca:06:cd:5c:93:77:7f:72:b4:e2:7f:c4:5d:0d:d6:
                    5c:04:d2:93:91:2d:7a:ae:48:77:dd:93:f6:95:15:
                    50:3b:3e:fc:c7:26:03:37:c9:3c:cf:47:b4:73:53:
                    03:65:05:04:fd:af:b8:f7:61:3f:fa:13:ce:b8:61:
                    0a:48:88:3d:96:5b:45:35:b6:a9:59:01:5b:06:7b:
                    0c:c2:f8:2c:61:d0:28:b1:ed:b5:2b:75:ce:97:26:
                    67:e7:e2:b9:67:0e:e2:a6:c8:81:ca:b2:ae:28:69:
                    09:ea:15:f9:85:44:89:8e:11:66:0b:72:91:94:f2:
                    fd:41:17:46:60:e2:c3:e2:42:e4:2c:0c:22:e9:22:
                    fa:43:f7:ec:09:03:e2:e4:a9:21:de:9e:15:86:43:
                    83:91:3a:c1:a8:f8:cd:2d:ec:6c:a4:de:2b:d6:f7:
                    8a:89:89:b4:e7:31:15:d4:0d:7b:d3:d6:5d:a8:65:
                    6e:2c:2b:b9:bf:60:fc:96:72:d1:37:96:e6:ed:46:
                    8a:75:bc:49:37:1d:dd:b9:33:af:25:35:a6:2b:a2:
                    a7:e0:23:08:4b:32:8b:7c:91:48:ca:75:98:1b:f0:
                    2e:19:b1
                Exponent: 65537 (0x10001)
        X509v3 extensions:
            X509v3 Key Usage: critical
                Certificate Sign, CRL Sign
            X509v3 Basic Constraints: critical
                CA:TRUE
            X509v3 Subject Key Identifier: 
                BC:B4:95:7F:25:77:19:C5:FD:A9:FB:E4:92:9C:30:C5:BD:04:BD:BD
            X509v3 Authority Key Identifier: 
                keyid:BC:B4:95:7F:25:77:19:C5:FD:A9:FB:E4:92:9C:30:C5:BD:04:BD:BD

    Signature Algorithm: sha256WithRSAEncryption
         b0:c7:1a:b6:14:eb:0f:79:72:86:72:7c:63:58:cc:66:b0:d5:
         5e:7d:c7:aa:b4:12:74:b7:b0:8b:ca:7f:21:87:c1:a4:5e:18:
         e1:b0:2c:e5:bf:24:7e:2f:bb:4c:1e:c8:4b:48:7a:16:9f:6b:
         55:ad:b4:d9:98:a4:e4:ba:39:79:9e:4c:05:2f:3c:4f:0e:e8:
         b8:22:7c:f7:98:9e:e1:c6:cd:ed:cf:96:b7:56:db:db:27:c0:
         d6:5a:eb:89:d1:7f:7e:07:15:2b:c5:07:f6:0e:37:bd:68:d3:
         34:8b:09:f6:6b:03:0e:09:67:b2:0d:d1:0e:b7:43:9f:10:07:
         86:da:a2:7d:ac:9b:be:a8:e4:d7:b2:9a:e0:7e:83:cf:72:fc:
         0e:fc:6e:32:b0:eb:f0:59:b0:35:6b:e7:36:69:b6:43:72:fa:
         ca:89:f5:63:23:f2:0c:fc:ce:4e:6c:fc:7f:e8:3b:46:95:de:
         ed:6b:a4:d0:78:fc:6f:e5:8d:53:6a:d3:f6:ee:4d:02:38:55:
         db:c9:c9:53:16:4c:b9:38:cf:17:05:df:b3:9e:ed:03:6e:bb:
         65:95:1f:60:32:a1:59:c3:4f:34:80:2c:a2:f1:f6:d1:6b:a8:
         1f:af:61:5c:0a:92:63:13:d1:1b:7c:e7:5e:f7:bb:4a:23:a7:
         d4:ac:6f:93:fe:f3:92:3a:ee:c3:cb:00:ce:4d:01:1a:fc:8d:
         44:f8:64:eb:48:04:9b:46:80:e6:9a:0a:60:de:6e:58:05:ba:
         ea:03:1b:5d:8f:63:84:86:df:7c:30:98:63:16:b3:3b:ce:a5:
         8a:9a:61:89:5b:93:50:47:c0:60:db:32:ae:f3:68:5f:dd:f1:
         98:f4:dc:6d:5c:dc:f7:65:e3:15:88:d0:02:7a:c6:82:28:53:
         26:36:80:ba:9e:82:83:77:9f:f7:3d:01:e1:95:4e:13:d1:28:
         ef:f3:0d:bd:e0:eb:de:dd:b7:a1:f9:b6:2a:14:a8:2d:ac:55:
         9b:c7:b6:e0:e8:76:35:37:01:36:ec:be:d7:59:dd:59:ff:cf:
         26:9d:ce:22:d2:1c:2c:6f:c8:be:92:16:f3:a9:8a:52:6c:e1:
         f4:98:9e:60:08:bd:10:60:4e:45:68:90:5c:c4:20:bf:98:23:
         65:8c:f0:96:30:f9:65:3a:b3:6e:a1:af:fa:ee:55:83:80:e9:
         5e:84:00:09:b1:29:1a:e5:8b:b8:7e:fc:bf:27:e3:98:c5:7f:
         aa:09:05:3a:e5:f8:c6:f0:4a:75:94:df:b5:6c:72:2f:01:cb:
         ce:f9:a5:92:b8:bb:9e:07:b9:7a:e5:58:59:fc:4b:e8:79:7c:
         53:c8:c3:11:aa:c1:7c:15
-----BEGIN CERTIFICATE-----
MIIFvzCCA6egAwIBAgIUSuHFW0OQVccLnDyNZ8JHu0odjzIwDQYJKoZIhvcNAQEL
BQAwZzELMAkGA1UEBhMCTk8xEjAQBgNVBAoMCU5pdHBpY2tzeTEoMCYGA1UECwwf
Tml0cGlja3N5IENlcnRpZmljYXRlIEF1dGhvcml0eTEaMBgGA1UEAwwRTml0cGlj
a3N5IFJvb3QgQ0EwHhcNMjAxMjExMjAzNjQ2WhcNMzAxMjExMjAzNjQ2WjBnMQsw
CQYDVQQGEwJOTzESMBAGA1UECgwJTml0cGlja3N5MSgwJgYDVQQLDB9OaXRwaWNr
c3kgQ2VydGlmaWNhdGUgQXV0aG9yaXR5MRowGAYDVQQDDBFOaXRwaWNrc3kgUm9v
dCBDQTCCAiIwDQYJKoZIhvcNAQEBBQADggIPADCCAgoCggIBANDRqxjhmaZmcp5g
ItCj5UmxfubWzHWQdIXBgFFl2zBa5DA0bBqLKXyaLlcU+GDftSm2boY6xk+ofnS8
PucJzLblTTU/gHcWSKm/C54qizAdtn2KwQd16L/Uo5O2vxZxb+KteuLNLMmKuLNT
BNAUbI0+ajZGDL3R48eNCz0Wz98CCaqw/Zt1zaQXpAXVbJQBbFc6wVQp+/Pvsi/o
/YYr0J1W7r1gaynz9Qg7eQZNQzNC9eW4xLRNoxPH2qZcwfYLJcvifTzX9en58pTt
9kopQKb/dLeHrkqu84MOUqw7cZwZWfrfAGGZyWfpcodfALFHiiyrAKbu3QgNcpLo
7rphKJGyqJtDo5keKYNcCxFv5p8lOWqpgrT96EHONnCKygbNXJN3f3K04n/EXQ3W
XATSk5Eteq5Id92T9pUVUDs+/McmAzfJPM9HtHNTA2UFBP2vuPdhP/oTzrhhCkiI
PZZbRTW2qVkBWwZ7DML4LGHQKLHttSt1zpcmZ+fiuWcO4qbIgcqyrihpCeoV+YVE
iY4RZgtykZTy/UEXRmDiw+JC5CwMIuki+kP37AkD4uSpId6eFYZDg5E6waj4zS3s
bKTeK9b3iomJtOcxFdQNe9PWXahlbiwrub9g/JZy0TeW5u1GinW8STcd3bkzryU1
piuip+AjCEsyi3yRSMp1mBvwLhmxAgMBAAGjYzBhMA4GA1UdDwEB/wQEAwIBBjAP
BgNVHRMBAf8EBTADAQH/MB0GA1UdDgQWBBS8tJV/JXcZxf2p++SSnDDFvQS9vTAf
BgNVHSMEGDAWgBS8tJV/JXcZxf2p++SSnDDFvQS9vTANBgkqhkiG9w0BAQsFAAOC
AgEAsMcathTrD3lyhnJ8Y1jMZrDVXn3HqrQSdLewi8p/IYfBpF4Y4bAs5b8kfi+7
TB7IS0h6Fp9rVa202Zik5Lo5eZ5MBS88Tw7ouCJ895ie4cbN7c+Wt1bb2yfA1lrr
idF/fgcVK8UH9g43vWjTNIsJ9msDDglnsg3RDrdDnxAHhtqifaybvqjk17Ka4H6D
z3L8DvxuMrDr8FmwNWvnNmm2Q3L6yon1YyPyDPzOTmz8f+g7RpXe7Wuk0Hj8b+WN
U2rT9u5NAjhV28nJUxZMuTjPFwXfs57tA267ZZUfYDKhWcNPNIAsovH20WuoH69h
XAqSYxPRG3znXve7SiOn1Kxvk/7zkjruw8sAzk0BGvyNRPhk60gEm0aA5poKYN5u
WAW66gMbXY9jhIbffDCYYxazO86lipphiVuTUEfAYNsyrvNoX93xmPTcbVzc92Xj
FYjQAnrGgihTJjaAup6Cg3ef9z0B4ZVOE9Eo7/MNveDr3t23ofm2KhSoLaxVm8e2
4Oh2NTcBNuy+11ndWf/PJp3OItIcLG/IvpIW86mKUmzh9JieYAi9EGBORWiQXMQg
v5gjZYzwljD5ZTqzbqGv+u5Vg4DpXoQACbEpGuWLuH78vyfjmMV/qgkFOuX4xvBK
dZTftWxyLwHLzvmlkri7nge5euVYWfxL6Hl8U8jDEarBfBU=
-----END CERTIFICATE-----
