Certificate:
    Data:
        Version: 3 (0x2)
        Serial Number:
            4b:ab:fb:20:4f:41:79:96:6d:bc:48:2f:8a:bb:86:e7:3b:2e:f5:dd
        Signature Algorithm: sha256WithRSAEncryption
        Issuer: C=NO, O=Nitpicksy, OU=Nitpicksy Certificate Authority, CN=Nitpicksy Root CA
        Validity
            Not Before: Dec  6 21:37:45 2020 GMT
            Not After : Dec  6 21:37:45 2030 GMT
        Subject: C=NO, O=Nitpicksy, OU=Nitpicksy Certificate Authority, CN=Nitpicksy TLS CA
        Subject Public Key Info:
            Public Key Algorithm: rsaEncryption
                RSA Public-Key: (4096 bit)
                Modulus:
                    00:b7:0e:f0:c1:62:aa:01:72:69:cc:d2:0c:1e:c0:
                    be:7d:f3:4c:f1:44:fc:0e:ed:e7:a6:36:d9:55:b0:
                    bd:f9:8a:a9:61:a1:b5:4c:ea:5f:fd:d5:34:d0:4b:
                    99:0c:de:50:43:16:e9:e8:a2:7a:59:00:c3:24:55:
                    38:fe:4c:6c:50:4a:c8:e6:5f:c6:29:02:48:e2:cf:
                    ba:9e:99:d4:c3:95:b4:8f:0f:b1:aa:57:58:51:bb:
                    14:ac:f5:7b:93:90:a4:c3:10:7c:d9:c4:06:74:f2:
                    3f:1e:3c:7f:80:04:28:ac:23:50:db:80:11:b5:fc:
                    34:1e:a6:2e:a1:bf:54:e5:ad:8f:cd:2b:fb:45:a0:
                    b3:3b:74:5a:b9:dd:e1:7c:1f:1e:7f:3e:8c:d7:bf:
                    da:fe:41:75:95:a7:42:e1:05:53:4e:75:0e:3b:6c:
                    6a:48:31:b0:84:98:c7:5e:ce:69:bf:51:bd:ed:04:
                    b7:c3:36:7a:78:f6:3d:d4:79:15:00:8c:83:c8:70:
                    98:22:5c:66:32:14:32:c0:e8:3c:92:44:5c:f4:b0:
                    ef:2f:98:15:60:01:b8:34:b6:2b:16:3e:bc:65:9b:
                    f7:c2:d0:6b:80:98:73:36:e5:24:71:64:8d:0f:2b:
                    f5:33:55:9e:c0:6a:8c:e9:e4:31:40:9d:d8:8b:b4:
                    69:c6:50:56:33:72:de:c2:43:aa:8d:d0:a1:67:7f:
                    0c:85:e5:e5:2b:88:b3:b4:5a:b4:43:f8:4d:e5:22:
                    30:aa:35:d1:00:8c:6b:d5:90:e7:21:f1:aa:87:37:
                    20:18:9b:68:8c:7d:3e:51:af:97:fa:27:ad:99:f5:
                    a0:2d:9d:a0:5d:8e:e7:7c:b8:a5:0a:66:e7:cf:e1:
                    c3:34:68:55:f2:b5:cd:d5:22:4e:53:a2:ca:60:e8:
                    11:87:a5:51:68:19:f8:69:3d:a9:cd:68:ec:03:d3:
                    e6:c8:c0:94:7f:74:e4:fb:05:94:da:94:ab:ee:67:
                    f7:d3:a0:53:41:8b:ca:4a:56:5d:4f:40:f3:43:fc:
                    23:39:ad:43:f6:5d:65:ac:33:29:19:e0:75:b0:12:
                    ba:5c:cc:33:7e:fc:ac:54:dd:e6:ed:5e:d6:9b:10:
                    c0:8b:37:09:bf:3d:cd:28:08:95:26:cd:d9:1e:d2:
                    ee:a2:b5:41:74:73:7f:ca:aa:bc:a7:e1:3a:8f:d7:
                    6a:22:3d:2f:f8:c5:c5:a7:cd:cf:15:ac:12:4d:6e:
                    bb:73:50:53:a9:f8:a1:e2:db:b1:41:9f:47:dc:8c:
                    c2:99:a6:9a:93:8b:0e:82:81:67:af:ec:fd:28:ff:
                    45:47:31:d7:69:91:6b:7e:59:f7:b6:ed:0e:81:1c:
                    ab:8a:d5
                Exponent: 65537 (0x10001)
        X509v3 extensions:
            X509v3 Key Usage: critical
                Certificate Sign, CRL Sign
            X509v3 Basic Constraints: critical
                CA:TRUE, pathlen:0
            X509v3 Subject Key Identifier: 
                13:C7:9F:5E:B9:43:55:A8:78:A1:8C:2B:C2:F3:BE:BF:4D:3B:7C:FF
            X509v3 Authority Key Identifier: 
                keyid:4D:85:54:8E:73:03:66:8D:0E:08:28:B9:6C:0F:0D:47:FA:26:E3:99

            Authority Information Access: 
                CA Issuers - URI:http://nitpicksy.no/ca/root-ca.cer

            X509v3 CRL Distribution Points: 

                Full Name:
                  URI:http://nitpicksy.no/ca/root-ca.crl

    Signature Algorithm: sha256WithRSAEncryption
         44:df:ff:68:7a:75:a8:1c:2f:81:cd:10:94:3e:a9:84:c9:c3:
         01:09:e0:e6:3d:44:6c:b1:52:75:6a:ad:92:b6:cd:79:b5:ce:
         ec:29:28:35:b9:92:25:83:13:65:3a:8e:e1:4a:b7:e8:b9:6c:
         a6:8f:1d:45:48:e9:cc:c9:0a:70:ff:8c:4b:ec:2c:fd:32:47:
         a7:51:bd:20:6a:c4:ae:89:12:e6:2c:f8:86:b9:9f:bb:ec:e6:
         90:f9:cc:62:cf:66:ea:ba:a0:02:b0:ed:05:79:ed:f9:86:05:
         29:5d:4f:e5:af:16:9c:c2:ce:01:3d:21:66:e8:dd:05:a8:a9:
         8f:7e:6e:32:d3:83:ee:f2:c4:69:80:3f:03:58:ee:ea:b1:d2:
         31:3e:13:e8:85:9b:57:c7:21:45:31:50:14:ed:52:26:e4:e0:
         f4:f7:c0:e4:d7:bc:3d:1b:dc:92:6a:57:4b:08:f5:a0:e5:6f:
         16:dd:a0:30:0c:8f:e5:5b:36:76:e2:58:d2:d1:d3:98:69:95:
         20:ef:a9:bb:8e:a2:a4:b8:cb:89:a6:20:2b:24:9d:20:e9:70:
         bf:a0:61:c2:ff:07:42:8a:78:53:34:e3:8f:29:bc:f2:1c:05:
         38:1c:96:84:53:64:25:37:4c:bb:f4:c0:83:16:0f:b1:2a:7e:
         8f:93:1c:59:eb:f5:24:4b:bd:3c:92:48:a4:ba:35:6a:49:c5:
         06:79:d6:79:dc:b8:ed:90:03:15:bf:3d:97:2a:a7:a2:92:11:
         7c:75:a8:20:a7:01:aa:84:b5:7f:31:f5:b5:48:c0:f9:2e:9f:
         50:15:65:b5:cd:59:ca:9f:78:be:7a:f8:bf:2b:d4:cc:d0:47:
         3b:ac:a4:4a:0d:36:56:04:a1:f5:94:7a:c9:e3:41:e0:d6:dd:
         82:1a:5d:42:e1:40:3c:5c:ec:be:d9:07:d6:9c:f8:c2:0e:e8:
         2d:ee:53:62:05:e5:f8:a0:ab:39:e1:c9:37:b6:9c:73:38:65:
         b6:e8:8a:5f:c2:f7:cf:9a:0d:f9:53:71:5e:e7:17:30:d0:c7:
         15:f1:e5:af:9f:5e:a4:25:f9:10:92:80:cb:ea:83:01:da:fe:
         ef:28:1b:c6:df:24:a3:82:45:77:53:85:1f:94:fc:2f:aa:5c:
         d8:6d:78:2b:62:65:91:0e:cc:cc:9a:81:9f:59:39:6f:a0:f8:
         d7:01:29:a8:46:a4:77:6c:66:69:fc:2e:16:5e:f2:13:41:0e:
         a4:54:f5:b4:83:2a:3d:5a:32:9f:03:2c:20:f3:a2:49:f1:6a:
         df:cf:cb:7b:8b:3f:70:49:db:ab:18:2f:72:9d:6b:c7:86:7d:
         db:4f:1e:35:d9:b7:ca:3b
-----BEGIN CERTIFICATE-----
MIIGODCCBCCgAwIBAgIUS6v7IE9BeZZtvEgviruG5zsu9d0wDQYJKoZIhvcNAQEL
BQAwZzELMAkGA1UEBhMCTk8xEjAQBgNVBAoMCU5pdHBpY2tzeTEoMCYGA1UECwwf
Tml0cGlja3N5IENlcnRpZmljYXRlIEF1dGhvcml0eTEaMBgGA1UEAwwRTml0cGlj
a3N5IFJvb3QgQ0EwHhcNMjAxMjA2MjEzNzQ1WhcNMzAxMjA2MjEzNzQ1WjBmMQsw
CQYDVQQGEwJOTzESMBAGA1UECgwJTml0cGlja3N5MSgwJgYDVQQLDB9OaXRwaWNr
c3kgQ2VydGlmaWNhdGUgQXV0aG9yaXR5MRkwFwYDVQQDDBBOaXRwaWNrc3kgVExT
IENBMIICIjANBgkqhkiG9w0BAQEFAAOCAg8AMIICCgKCAgEAtw7wwWKqAXJpzNIM
HsC+ffNM8UT8Du3npjbZVbC9+YqpYaG1TOpf/dU00EuZDN5QQxbp6KJ6WQDDJFU4
/kxsUErI5l/GKQJI4s+6npnUw5W0jw+xqldYUbsUrPV7k5CkwxB82cQGdPI/Hjx/
gAQorCNQ24ARtfw0HqYuob9U5a2PzSv7RaCzO3Raud3hfB8efz6M17/a/kF1ladC
4QVTTnUOO2xqSDGwhJjHXs5pv1G97QS3wzZ6ePY91HkVAIyDyHCYIlxmMhQywOg8
kkRc9LDvL5gVYAG4NLYrFj68ZZv3wtBrgJhzNuUkcWSNDyv1M1WewGqM6eQxQJ3Y
i7RpxlBWM3LewkOqjdChZ38MheXlK4iztFq0Q/hN5SIwqjXRAIxr1ZDnIfGqhzcg
GJtojH0+Ua+X+ietmfWgLZ2gXY7nfLilCmbnz+HDNGhV8rXN1SJOU6LKYOgRh6VR
aBn4aT2pzWjsA9PmyMCUf3Tk+wWU2pSr7mf306BTQYvKSlZdT0DzQ/wjOa1D9l1l
rDMpGeB1sBK6XMwzfvysVN3m7V7WmxDAizcJvz3NKAiVJs3ZHtLuorVBdHN/yqq8
p+E6j9dqIj0v+MXFp83PFawSTW67c1BTqfih4tuxQZ9H3IzCmaaak4sOgoFnr+z9
KP9FRzHXaZFrfln3tu0OgRyritUCAwEAAaOB3DCB2TAOBgNVHQ8BAf8EBAMCAQYw
EgYDVR0TAQH/BAgwBgEB/wIBADAdBgNVHQ4EFgQUE8efXrlDVah4oYwrwvO+v007
fP8wHwYDVR0jBBgwFoAUTYVUjnMDZo0OCCi5bA8NR/om45kwPgYIKwYBBQUHAQEE
MjAwMC4GCCsGAQUFBzAChiJodHRwOi8vbml0cGlja3N5Lm5vL2NhL3Jvb3QtY2Eu
Y2VyMDMGA1UdHwQsMCowKKAmoCSGImh0dHA6Ly9uaXRwaWNrc3kubm8vY2Evcm9v
dC1jYS5jcmwwDQYJKoZIhvcNAQELBQADggIBAETf/2h6dagcL4HNEJQ+qYTJwwEJ
4OY9RGyxUnVqrZK2zXm1zuwpKDW5kiWDE2U6juFKt+i5bKaPHUVI6czJCnD/jEvs
LP0yR6dRvSBqxK6JEuYs+Ia5n7vs5pD5zGLPZuq6oAKw7QV57fmGBSldT+WvFpzC
zgE9IWbo3QWoqY9+bjLTg+7yxGmAPwNY7uqx0jE+E+iFm1fHIUUxUBTtUibk4PT3
wOTXvD0b3JJqV0sI9aDlbxbdoDAMj+VbNnbiWNLR05hplSDvqbuOoqS4y4mmICsk
nSDpcL+gYcL/B0KKeFM0448pvPIcBTgcloRTZCU3TLv0wIMWD7Eqfo+THFnr9SRL
vTySSKS6NWpJxQZ51nncuO2QAxW/PZcqp6KSEXx1qCCnAaqEtX8x9bVIwPkun1AV
ZbXNWcqfeL56+L8r1MzQRzuspEoNNlYEofWUesnjQeDW3YIaXULhQDxc7L7ZB9ac
+MIO6C3uU2IF5figqznhyTe2nHM4Zbboil/C98+aDflTcV7nFzDQxxXx5a+fXqQl
+RCSgMvqgwHa/u8oG8bfJKOCRXdThR+U/C+qXNhteCtiZZEOzMyagZ9ZOW+g+NcB
KahGpHdsZmn8LhZe8hNBDqRU9bSDKj1aMp8DLCDzoknxat/Py3uLP3BJ26sYL3Kd
a8eGfdtPHjXZt8o7
-----END CERTIFICATE-----
