Certificate:
    Data:
        Version: 3 (0x2)
        Serial Number:
            56:78:ea:21:7f:ef:2e:7b:08:19:f9:4d:34:e8:3b:82:53:4a:8a:c2
        Signature Algorithm: sha256WithRSAEncryption
        Issuer: C=NO, O=Nitpicksy, OU=Nitpicksy Certificate Authority, CN=Nitpicksy Root CA
        Validity
            Not Before: Dec  6 21:51:56 2020 GMT
            Not After : Dec  6 21:51:56 2030 GMT
        Subject: C=NO, O=Nitpicksy, OU=Nitpicksy Certificate Authority, CN=Nitpicksy TLS CA
        Subject Public Key Info:
            Public Key Algorithm: rsaEncryption
                RSA Public-Key: (4096 bit)
                Modulus:
                    00:a4:e5:9d:02:bf:de:a9:08:11:dd:12:e8:06:c1:
                    dd:8e:99:d0:3d:8f:67:3c:1a:c8:c9:61:b8:52:01:
                    78:08:7d:4c:6b:93:6e:dd:4c:39:3c:d3:df:05:39:
                    b7:e9:69:84:1f:c3:48:0e:4e:35:24:5c:c6:89:7c:
                    21:9d:b1:37:ca:9d:4f:9a:47:e1:c9:55:c5:61:d5:
                    e0:c1:49:60:53:cf:f2:62:37:f0:17:6a:f8:71:e6:
                    46:98:42:ab:d1:d2:4c:2c:03:95:b8:51:5a:38:b2:
                    0d:32:eb:6e:bc:4b:1a:c5:0d:9b:1c:a3:21:e3:9c:
                    e5:12:9c:e3:43:83:c0:a3:6d:17:c7:36:46:99:20:
                    4e:1c:e3:b5:8c:6f:5c:b0:fc:92:83:a1:f4:a0:7e:
                    ac:58:da:f2:9f:fc:e6:7d:7d:10:7b:22:fb:22:27:
                    ef:1b:28:0f:83:9f:98:2a:7b:bb:d9:da:6d:a1:77:
                    73:88:a7:3a:eb:ff:04:1e:73:5d:c0:18:11:84:73:
                    37:0a:dc:2f:ed:55:8b:bd:a4:d0:13:51:da:fc:c7:
                    7e:79:f7:9d:dc:28:29:f1:2a:73:1e:38:7f:4b:9c:
                    e6:4a:25:ab:2b:73:3d:e3:f9:ce:d7:3a:f2:e2:d6:
                    12:3f:9f:cb:96:00:a4:1c:a5:62:5c:19:69:8b:0a:
                    a7:02:54:8e:46:83:fc:44:89:c9:70:ba:0d:b6:96:
                    10:2c:12:99:94:95:5d:17:71:67:fd:f7:aa:2e:bf:
                    34:c2:90:b6:f8:f2:2d:b6:a0:01:f6:ea:51:a9:5f:
                    07:87:d3:23:d2:1b:cd:3c:48:0d:a3:e6:f6:b1:ce:
                    34:11:ca:8f:51:5c:05:4d:d0:99:55:3a:5b:6a:fe:
                    89:5b:42:27:d1:0e:db:0c:35:72:80:2f:7f:ee:9b:
                    d5:e2:9a:e9:1d:1d:51:ac:bd:bf:86:04:5e:f8:32:
                    54:d8:d8:62:5f:79:4e:cb:67:66:e9:2f:a9:cc:36:
                    05:b7:0a:4c:48:cc:30:f5:88:e1:d0:7d:68:b9:92:
                    21:40:b2:7b:4c:20:ad:ed:9b:f8:90:ea:5d:dd:c2:
                    55:9a:bc:67:79:36:7f:c2:62:40:5c:f3:45:40:da:
                    33:63:c0:24:85:07:2e:0a:d0:c1:dd:c5:63:76:6b:
                    0d:07:63:1f:f6:cc:50:23:06:e8:8f:db:b3:a6:36:
                    c3:f3:de:ff:75:5b:5c:09:b5:4b:f9:d6:c8:9d:87:
                    3d:d1:da:e0:c9:03:99:0e:9c:aa:75:f4:4a:6c:50:
                    75:5f:30:72:48:36:d7:84:d3:37:63:0a:e8:b0:f6:
                    f3:a1:30:e3:87:4e:de:93:16:c5:f1:38:16:3b:66:
                    cb:06:ed
                Exponent: 65537 (0x10001)
        X509v3 extensions:
            X509v3 Key Usage: critical
                Certificate Sign, CRL Sign
            X509v3 Basic Constraints: critical
                CA:TRUE, pathlen:0
            X509v3 Subject Key Identifier: 
                20:BF:F7:C1:E5:9F:2D:61:99:7C:FA:1C:22:0D:11:35:06:9D:C9:5C
            X509v3 Authority Key Identifier: 
                keyid:12:CD:50:35:AC:49:29:E9:98:C1:7A:B5:8D:4D:B2:84:71:CE:10:4C

            Authority Information Access: 
                CA Issuers - URI:http://nitpicksy.no/ca/root-ca.cer

            X509v3 CRL Distribution Points: 

                Full Name:
                  URI:http://nitpicksy.no/ca/root-ca.crl

    Signature Algorithm: sha256WithRSAEncryption
         4d:55:da:94:8f:50:bc:11:bd:63:51:10:0c:60:dd:57:41:97:
         9f:1b:75:e5:95:9b:e0:d9:e9:99:2e:41:1c:66:cd:69:18:ba:
         40:cb:c9:7b:72:03:39:b5:66:95:f2:f7:8c:cd:64:23:45:a5:
         40:41:c0:5e:a8:9a:5e:78:6d:42:7e:a4:0c:06:84:0f:7d:ec:
         0d:fd:44:46:d7:5c:bd:fd:6e:4b:49:75:db:60:34:39:e0:b0:
         05:6c:9c:b9:4f:40:41:cf:ae:8c:95:4f:c3:e4:e0:e6:cb:ae:
         95:a9:35:93:3a:eb:4a:f3:1f:0b:3c:3d:b1:5f:5d:45:e9:4a:
         13:85:bb:3d:56:f8:7a:0f:de:fc:fa:cd:1a:1a:db:52:bd:fa:
         1f:ba:0d:37:a3:9c:b4:a4:38:65:48:a8:24:e6:a3:98:b4:01:
         45:ff:2f:85:98:08:88:61:36:60:57:75:86:fa:dd:61:eb:92:
         3a:17:44:51:2d:cf:21:5d:1c:b3:a0:8d:b7:47:73:2e:3f:e8:
         52:3e:68:b9:de:2e:39:9f:77:d9:62:b5:15:61:84:30:df:33:
         c4:94:9f:6c:35:95:ab:2d:21:34:1e:12:ee:bb:86:f9:3a:69:
         1d:d7:c0:3a:ab:e3:05:e4:c5:29:cb:87:a6:bb:af:60:1f:97:
         73:0d:9a:e6:03:be:43:c6:73:af:cb:b2:3e:55:3e:89:4d:11:
         53:98:9d:7d:fb:47:cd:6d:25:bb:17:a4:ac:e9:dc:3e:e0:e6:
         54:e4:c6:24:73:b0:64:c3:c3:16:c3:10:e9:07:34:79:3e:d4:
         d3:a4:aa:69:3d:9e:f5:30:a6:bd:b1:12:97:01:27:ef:dd:4b:
         87:c2:3a:a4:c9:32:61:bb:f1:ba:40:f6:7b:34:96:e0:e8:2e:
         66:63:4f:0b:f5:ce:10:7c:d3:d3:51:fd:bb:f0:c0:1c:00:90:
         b8:14:7b:0a:93:18:60:cf:73:5e:03:3e:08:d2:f6:48:02:66:
         e2:e0:43:d4:d2:b0:41:1b:5a:c9:86:22:c7:d3:db:71:44:46:
         32:f9:27:50:51:3b:5d:7d:79:42:0b:23:7d:7e:57:91:04:1b:
         cd:79:49:66:44:f6:80:a8:6d:2f:a9:9d:7e:21:0f:a1:5a:f1:
         eb:fd:9b:40:c5:f8:55:3f:d9:32:be:37:ea:c2:86:1b:9c:52:
         1b:f5:58:84:f8:22:7e:18:2a:0d:ec:df:9b:fe:09:4a:8b:d3:
         b9:8f:39:63:a2:1f:44:fc:59:e0:75:d4:ea:9b:02:93:82:68:
         b0:c6:f8:f0:8d:7e:fd:75:11:d9:3d:6e:39:36:7b:a2:b7:f2:
         8d:84:5c:80:68:fe:ed:b2
-----BEGIN CERTIFICATE-----
MIIGODCCBCCgAwIBAgIUVnjqIX/vLnsIGflNNOg7glNKisIwDQYJKoZIhvcNAQEL
BQAwZzELMAkGA1UEBhMCTk8xEjAQBgNVBAoMCU5pdHBpY2tzeTEoMCYGA1UECwwf
Tml0cGlja3N5IENlcnRpZmljYXRlIEF1dGhvcml0eTEaMBgGA1UEAwwRTml0cGlj
a3N5IFJvb3QgQ0EwHhcNMjAxMjA2MjE1MTU2WhcNMzAxMjA2MjE1MTU2WjBmMQsw
CQYDVQQGEwJOTzESMBAGA1UECgwJTml0cGlja3N5MSgwJgYDVQQLDB9OaXRwaWNr
c3kgQ2VydGlmaWNhdGUgQXV0aG9yaXR5MRkwFwYDVQQDDBBOaXRwaWNrc3kgVExT
IENBMIICIjANBgkqhkiG9w0BAQEFAAOCAg8AMIICCgKCAgEApOWdAr/eqQgR3RLo
BsHdjpnQPY9nPBrIyWG4UgF4CH1Ma5Nu3Uw5PNPfBTm36WmEH8NIDk41JFzGiXwh
nbE3yp1PmkfhyVXFYdXgwUlgU8/yYjfwF2r4ceZGmEKr0dJMLAOVuFFaOLINMutu
vEsaxQ2bHKMh45zlEpzjQ4PAo20XxzZGmSBOHOO1jG9csPySg6H0oH6sWNryn/zm
fX0QeyL7IifvGygPg5+YKnu72dptoXdziKc66/8EHnNdwBgRhHM3Ctwv7VWLvaTQ
E1Ha/Md+efed3Cgp8SpzHjh/S5zmSiWrK3M94/nO1zry4tYSP5/LlgCkHKViXBlp
iwqnAlSORoP8RInJcLoNtpYQLBKZlJVdF3Fn/feqLr80wpC2+PIttqAB9upRqV8H
h9Mj0hvNPEgNo+b2sc40EcqPUVwFTdCZVTpbav6JW0In0Q7bDDVygC9/7pvV4prp
HR1RrL2/hgRe+DJU2NhiX3lOy2dm6S+pzDYFtwpMSMww9Yjh0H1ouZIhQLJ7TCCt
7Zv4kOpd3cJVmrxneTZ/wmJAXPNFQNozY8AkhQcuCtDB3cVjdmsNB2Mf9sxQIwbo
j9uzpjbD897/dVtcCbVL+dbInYc90drgyQOZDpyqdfRKbFB1XzBySDbXhNM3Ywro
sPbzoTDjh07ekxbF8TgWO2bLBu0CAwEAAaOB3DCB2TAOBgNVHQ8BAf8EBAMCAQYw
EgYDVR0TAQH/BAgwBgEB/wIBADAdBgNVHQ4EFgQUIL/3weWfLWGZfPocIg0RNQad
yVwwHwYDVR0jBBgwFoAUEs1QNaxJKemYwXq1jU2yhHHOEEwwPgYIKwYBBQUHAQEE
MjAwMC4GCCsGAQUFBzAChiJodHRwOi8vbml0cGlja3N5Lm5vL2NhL3Jvb3QtY2Eu
Y2VyMDMGA1UdHwQsMCowKKAmoCSGImh0dHA6Ly9uaXRwaWNrc3kubm8vY2Evcm9v
dC1jYS5jcmwwDQYJKoZIhvcNAQELBQADggIBAE1V2pSPULwRvWNREAxg3VdBl58b
deWVm+DZ6ZkuQRxmzWkYukDLyXtyAzm1ZpXy94zNZCNFpUBBwF6oml54bUJ+pAwG
hA997A39REbXXL39bktJddtgNDngsAVsnLlPQEHProyVT8Pk4ObLrpWpNZM660rz
Hws8PbFfXUXpShOFuz1W+HoP3vz6zRoa21K9+h+6DTejnLSkOGVIqCTmo5i0AUX/
L4WYCIhhNmBXdYb63WHrkjoXRFEtzyFdHLOgjbdHcy4/6FI+aLneLjmfd9litRVh
hDDfM8SUn2w1lastITQeEu67hvk6aR3XwDqr4wXkxSnLh6a7r2Afl3MNmuYDvkPG
c6/Lsj5VPolNEVOYnX37R81tJbsXpKzp3D7g5lTkxiRzsGTDwxbDEOkHNHk+1NOk
qmk9nvUwpr2xEpcBJ+/dS4fCOqTJMmG78bpA9ns0luDoLmZjTwv1zhB809NR/bvw
wBwAkLgUewqTGGDPc14DPgjS9kgCZuLgQ9TSsEEbWsmGIsfT23FERjL5J1BRO119
eUILI31+V5EEG815SWZE9oCobS+pnX4hD6Fa8ev9m0DF+FU/2TK+N+rChhucUhv1
WIT4In4YKg3s35v+CUqL07mPOWOiH0T8WeB11OqbApOCaLDG+PCNfv11Edk9bjk2
e6K38o2EXIBo/u2y
-----END CERTIFICATE-----
