Certificate:
    Data:
        Version: 3 (0x2)
        Serial Number:
            56:f2:ab:b1:52:65:19:d2:28:19:11:de:0d:01:c0:76:d2:80:04:d8
        Signature Algorithm: sha256WithRSAEncryption
        Issuer: C=NO, O=Nitpicksy, OU=Nitpicksy Certificate Authority, CN=Nitpicksy Root CA
        Validity
            Not Before: Dec  6 22:08:18 2020 GMT
            Not After : Dec  6 22:08:18 2030 GMT
        Subject: C=NO, O=Nitpicksy, OU=Nitpicksy Certificate Authority, CN=Nitpicksy TLS CA
        Subject Public Key Info:
            Public Key Algorithm: rsaEncryption
                RSA Public-Key: (4096 bit)
                Modulus:
                    00:bb:6d:9f:01:35:37:bf:d0:69:2f:0c:b2:e4:28:
                    32:91:57:5d:2d:66:a6:98:22:55:72:9d:eb:e9:39:
                    78:f3:28:5f:53:60:eb:c2:0c:f3:8a:c2:16:f0:13:
                    a4:3a:3e:a5:a3:03:dc:43:98:43:6f:a7:4d:8b:5d:
                    b7:42:90:17:b7:df:c8:50:c3:68:8f:9f:74:01:fa:
                    1d:f6:cd:25:1d:65:9b:1f:cf:67:bf:c2:af:9a:a2:
                    7e:af:d8:e5:78:da:17:cd:8e:2c:12:21:f5:17:65:
                    8c:97:4e:40:33:54:04:a4:55:d0:e5:a1:30:8a:fe:
                    b9:c6:6a:d8:4c:49:0a:06:ab:f4:3b:7b:83:a6:8f:
                    22:16:95:93:68:32:43:9b:ca:ce:e7:4d:19:40:2f:
                    4f:60:1f:83:69:b8:21:bd:3f:02:8a:c8:d5:60:6d:
                    fb:0e:d0:5c:91:4b:d7:86:23:b8:a4:48:44:92:00:
                    85:24:20:71:a0:c1:70:f8:a8:b3:15:a9:b0:ee:64:
                    46:52:2a:0b:33:f6:ce:d7:88:b9:df:70:c0:94:96:
                    7a:93:87:02:2f:0d:f3:3b:5e:6a:0e:4f:f3:03:42:
                    a1:b3:1e:da:5b:7f:b7:e0:3f:34:85:86:fd:ba:db:
                    0c:ff:7d:bc:b9:18:bd:63:b3:ee:3d:ac:ea:33:ca:
                    27:25:4e:f8:0e:5c:71:52:52:0f:72:75:57:54:de:
                    47:c3:88:5e:bc:34:8e:56:9a:29:2d:4d:fc:e9:49:
                    17:ef:3f:62:83:cf:fe:c7:54:92:83:74:24:88:88:
                    67:f8:88:19:4b:a3:fb:f0:27:5c:1b:e9:93:f2:06:
                    3e:62:ee:33:31:c3:98:ec:89:a7:59:12:58:ee:36:
                    b3:32:6b:a8:2e:8d:80:1d:6a:72:d3:a0:99:d5:a2:
                    3b:4f:99:97:1b:d0:5b:18:0f:77:b7:83:c9:4b:13:
                    42:62:cd:0c:91:4d:1d:7f:f6:eb:29:4f:5b:7f:f1:
                    45:7a:cf:38:34:ba:dd:49:99:c2:c6:b1:73:c6:d7:
                    b2:62:da:2b:95:41:55:51:fa:80:81:bb:3a:83:fc:
                    2c:e6:7d:83:64:9b:59:dd:cb:cd:bf:35:c4:e2:81:
                    65:8c:d4:f2:3c:8a:8a:84:88:a6:2b:7b:43:d3:0b:
                    9f:8b:be:13:f7:7a:1f:8f:55:d1:7d:ca:7c:e6:cd:
                    ad:ba:59:d0:50:95:63:c6:2f:f0:fa:4f:0e:e8:ee:
                    42:88:2a:80:2c:5a:35:4f:9a:10:c3:97:e6:7b:59:
                    db:ae:84:0b:75:5a:8c:f2:43:06:d7:17:b7:a5:e9:
                    e6:8e:35:ef:9a:e9:e7:03:c4:d7:a9:0b:54:52:02:
                    01:29:51
                Exponent: 65537 (0x10001)
        X509v3 extensions:
            X509v3 Key Usage: critical
                Certificate Sign, CRL Sign
            X509v3 Basic Constraints: critical
                CA:TRUE, pathlen:0
            X509v3 Subject Key Identifier: 
                46:AE:F3:C6:AD:8C:3E:45:58:86:70:79:96:25:17:E1:6C:F7:16:A8
            X509v3 Authority Key Identifier: 
                keyid:02:02:8F:98:58:A3:D7:F7:51:07:33:DB:15:C2:04:EA:52:38:7E:E4

            Authority Information Access: 
                CA Issuers - URI:http://nitpicksy.no/ca/root-ca.cer

            X509v3 CRL Distribution Points: 

                Full Name:
                  URI:http://nitpicksy.no/ca/root-ca.crl

    Signature Algorithm: sha256WithRSAEncryption
         c6:c6:4f:11:57:6a:f3:1b:ea:3d:73:4b:80:73:67:19:7d:46:
         67:ed:d0:8c:0e:23:9a:62:c9:d7:18:54:4a:e0:63:b1:00:16:
         76:6f:fb:f0:cc:03:4b:0c:01:59:0b:a9:15:91:22:08:ab:51:
         75:00:86:d7:68:d1:68:52:3a:5a:ae:d3:72:53:2c:bf:81:8d:
         ac:de:56:a5:ed:d5:89:1c:49:9b:24:5b:a0:16:f2:a2:6a:e8:
         c8:33:36:81:f0:de:28:fe:f4:c6:7f:a9:f2:a2:cb:e3:12:3e:
         c0:f0:ac:eb:29:0d:1e:99:23:12:52:a4:62:a9:5f:09:42:57:
         32:af:85:01:f6:15:a9:73:f8:f5:c2:58:f4:34:01:99:31:c9:
         00:45:a3:1e:49:7c:ef:77:f7:c1:c7:dc:35:ba:1a:22:e4:01:
         a8:dc:e1:54:f4:d1:cd:4e:29:cb:45:9a:41:02:9b:3c:eb:69:
         b8:e1:bc:d5:b1:b3:d3:50:7e:80:22:bc:34:76:15:22:f2:7a:
         49:3b:a5:4e:7b:89:6d:69:32:74:d5:a6:f4:b6:c5:15:00:a1:
         b0:88:66:56:4f:74:ab:32:10:a6:bd:a5:cc:06:99:8a:be:54:
         45:0d:3f:6c:a7:f5:c6:5b:a1:ce:7a:80:fe:8c:e0:a2:ab:89:
         d3:3c:f7:1d:35:60:ff:75:f1:eb:41:c1:32:d0:64:f5:9a:8c:
         cc:64:ee:4b:c7:a7:ec:cd:39:a7:92:c3:a5:a7:a0:27:40:75:
         03:c6:40:46:d2:bd:96:ed:e4:5e:d5:60:38:75:d6:3f:6c:00:
         89:12:9d:54:61:f1:c9:03:6e:86:9f:26:7b:cd:bf:f1:d1:45:
         02:1c:6b:d9:2b:95:28:56:0c:ad:bc:a8:a2:73:65:03:74:60:
         95:e7:41:b7:9d:8d:4e:5b:54:a0:29:6f:5b:18:9d:24:6c:21:
         5b:6e:e8:34:2b:e0:f7:7f:2b:a0:2b:d7:28:01:fc:f4:9f:7e:
         d4:07:28:94:95:69:2f:21:72:db:51:c1:4b:e8:22:cd:5c:6d:
         74:7a:45:75:97:d9:12:39:e2:95:11:54:77:d6:54:32:25:5e:
         41:4d:1b:87:3e:14:49:c3:ef:5c:41:43:7f:4a:6a:81:8b:c4:
         19:f8:6a:d8:d7:62:cc:53:30:74:c5:dc:01:1d:6d:76:d0:3b:
         52:44:d9:67:df:bb:84:8d:7e:ae:80:5a:42:c9:69:0a:44:ac:
         17:d1:dc:2b:98:e6:35:48:da:85:34:bc:f1:5f:52:ef:90:72:
         5c:62:0f:58:c3:af:ec:21:b5:66:14:ba:3e:2c:50:5a:93:a3:
         74:a4:af:5b:fd:65:8a:de
-----BEGIN CERTIFICATE-----
MIIGODCCBCCgAwIBAgIUVvKrsVJlGdIoGRHeDQHAdtKABNgwDQYJKoZIhvcNAQEL
BQAwZzELMAkGA1UEBhMCTk8xEjAQBgNVBAoMCU5pdHBpY2tzeTEoMCYGA1UECwwf
Tml0cGlja3N5IENlcnRpZmljYXRlIEF1dGhvcml0eTEaMBgGA1UEAwwRTml0cGlj
a3N5IFJvb3QgQ0EwHhcNMjAxMjA2MjIwODE4WhcNMzAxMjA2MjIwODE4WjBmMQsw
CQYDVQQGEwJOTzESMBAGA1UECgwJTml0cGlja3N5MSgwJgYDVQQLDB9OaXRwaWNr
c3kgQ2VydGlmaWNhdGUgQXV0aG9yaXR5MRkwFwYDVQQDDBBOaXRwaWNrc3kgVExT
IENBMIICIjANBgkqhkiG9w0BAQEFAAOCAg8AMIICCgKCAgEAu22fATU3v9BpLwyy
5CgykVddLWammCJVcp3r6Tl48yhfU2DrwgzzisIW8BOkOj6lowPcQ5hDb6dNi123
QpAXt9/IUMNoj590Afod9s0lHWWbH89nv8KvmqJ+r9jleNoXzY4sEiH1F2WMl05A
M1QEpFXQ5aEwiv65xmrYTEkKBqv0O3uDpo8iFpWTaDJDm8rO500ZQC9PYB+Dabgh
vT8CisjVYG37DtBckUvXhiO4pEhEkgCFJCBxoMFw+KizFamw7mRGUioLM/bO14i5
33DAlJZ6k4cCLw3zO15qDk/zA0Khsx7aW3+34D80hYb9utsM/328uRi9Y7PuPazq
M8onJU74DlxxUlIPcnVXVN5Hw4hevDSOVpopLU386UkX7z9ig8/+x1SSg3QkiIhn
+IgZS6P78CdcG+mT8gY+Yu4zMcOY7ImnWRJY7jazMmuoLo2AHWpy06CZ1aI7T5mX
G9BbGA93t4PJSxNCYs0MkU0df/brKU9bf/FFes84NLrdSZnCxrFzxteyYtorlUFV
UfqAgbs6g/ws5n2DZJtZ3cvNvzXE4oFljNTyPIqKhIimK3tD0wufi74T93ofj1XR
fcp85s2tulnQUJVjxi/w+k8O6O5CiCqALFo1T5oQw5fme1nbroQLdVqM8kMG1xe3
penmjjXvmunnA8TXqQtUUgIBKVECAwEAAaOB3DCB2TAOBgNVHQ8BAf8EBAMCAQYw
EgYDVR0TAQH/BAgwBgEB/wIBADAdBgNVHQ4EFgQURq7zxq2MPkVYhnB5liUX4Wz3
FqgwHwYDVR0jBBgwFoAUAgKPmFij1/dRBzPbFcIE6lI4fuQwPgYIKwYBBQUHAQEE
MjAwMC4GCCsGAQUFBzAChiJodHRwOi8vbml0cGlja3N5Lm5vL2NhL3Jvb3QtY2Eu
Y2VyMDMGA1UdHwQsMCowKKAmoCSGImh0dHA6Ly9uaXRwaWNrc3kubm8vY2Evcm9v
dC1jYS5jcmwwDQYJKoZIhvcNAQELBQADggIBAMbGTxFXavMb6j1zS4BzZxl9Rmft
0IwOI5piydcYVErgY7EAFnZv+/DMA0sMAVkLqRWRIgirUXUAhtdo0WhSOlqu03JT
LL+BjazeVqXt1YkcSZskW6AW8qJq6MgzNoHw3ij+9MZ/qfKiy+MSPsDwrOspDR6Z
IxJSpGKpXwlCVzKvhQH2Falz+PXCWPQ0AZkxyQBFox5JfO9398HH3DW6GiLkAajc
4VT00c1OKctFmkECmzzrabjhvNWxs9NQfoAivDR2FSLyekk7pU57iW1pMnTVpvS2
xRUAobCIZlZPdKsyEKa9pcwGmYq+VEUNP2yn9cZboc56gP6M4KKridM89x01YP91
8etBwTLQZPWajMxk7kvHp+zNOaeSw6WnoCdAdQPGQEbSvZbt5F7VYDh11j9sAIkS
nVRh8ckDboafJnvNv/HRRQIca9krlShWDK28qKJzZQN0YJXnQbedjU5bVKApb1sY
nSRsIVtu6DQr4Pd/K6Ar1ygB/PSfftQHKJSVaS8hcttRwUvoIs1cbXR6RXWX2RI5
4pURVHfWVDIlXkFNG4c+FEnD71xBQ39KaoGLxBn4atjXYsxTMHTF3AEdbXbQO1JE
2Wffu4SNfq6AWkLJaQpErBfR3CuY5jVI2oU0vPFfUu+QclxiD1jDr+whtWYUuj4s
UFqTo3Skr1v9ZYre
-----END CERTIFICATE-----
