Certificate:
    Data:
        Version: 3 (0x2)
        Serial Number:
            57:ec:bf:01:98:cf:19:1f:c0:00:c7:f5:f2:cf:bb:59:46:92:10:d8
        Signature Algorithm: sha256WithRSAEncryption
        Issuer: C=NO, O=Nitpicksy, OU=Nitpicksy Certificate Authority, CN=Nitpicksy Root CA
        Validity
            Not Before: Dec  6 21:39:29 2020 GMT
            Not After : Dec  6 21:39:29 2030 GMT
        Subject: C=NO, O=Nitpicksy, OU=Nitpicksy Certificate Authority, CN=Nitpicksy TLS CA
        Subject Public Key Info:
            Public Key Algorithm: rsaEncryption
                RSA Public-Key: (4096 bit)
                Modulus:
                    00:cf:af:f0:f1:6f:66:f2:32:d8:e0:70:bb:10:ba:
                    20:58:0e:f3:5f:6d:fc:be:39:cc:b8:ff:5d:56:60:
                    11:30:ff:5a:5a:65:b1:3f:26:d6:64:3f:9d:3f:a5:
                    eb:5a:f4:2e:1a:5c:6a:6b:b4:a5:9b:46:8a:62:9c:
                    36:a8:08:a4:c4:58:fb:01:24:b2:6f:14:5c:a2:cc:
                    f1:41:76:9a:63:3f:9f:63:2d:c0:84:34:a8:94:ab:
                    67:41:0d:8c:f6:4b:25:59:bb:9c:ac:65:3f:4b:cb:
                    04:56:68:25:c9:f1:89:ba:17:6a:cc:19:27:78:b9:
                    79:45:07:b2:a4:46:c1:0d:51:2e:26:f7:47:25:49:
                    d1:0b:4a:41:16:43:5c:fc:0d:90:0e:4c:6c:a1:77:
                    a8:7b:23:86:b5:b5:3b:21:2b:2b:82:91:b6:30:76:
                    2e:fd:4a:41:ed:05:64:de:99:3b:ea:33:d6:81:74:
                    97:cc:1c:b3:e7:51:eb:eb:bd:23:e7:9a:22:86:1f:
                    8c:5e:45:46:4b:1a:c1:72:e6:92:06:cf:ba:e7:4b:
                    10:74:e4:2a:2b:06:29:d3:4d:d5:f9:a2:19:a6:8d:
                    9b:53:5f:39:b7:ba:a9:15:ba:fd:b6:23:26:fc:55:
                    fb:e3:91:64:6b:fe:3c:bb:29:2c:4d:69:e4:54:a5:
                    24:7b:6e:51:8c:be:25:fc:b6:f6:b6:47:39:ad:43:
                    ff:8c:16:26:5a:b8:75:81:e6:08:68:5b:66:10:9e:
                    be:1f:1f:ef:ee:4f:d0:7b:78:ce:28:9e:66:ac:f1:
                    1d:cf:69:71:90:20:2a:4f:c5:74:c9:7e:d4:a7:9c:
                    ec:4d:09:f5:23:54:1a:dd:ed:f7:4d:bb:c2:05:9e:
                    33:d5:e9:db:37:9c:5a:94:b9:51:8d:52:f0:55:57:
                    75:0b:f0:45:85:c0:1d:2f:a6:b2:69:42:bb:cf:af:
                    2d:e0:af:b5:80:26:3f:45:a0:68:a0:b8:56:d5:73:
                    46:e2:86:6d:69:5c:95:f0:a2:99:67:b2:4d:ff:78:
                    f8:e9:69:eb:18:53:66:67:aa:55:26:77:f7:87:8c:
                    d4:41:ea:2b:80:12:f7:8a:a1:2a:f7:13:6d:69:97:
                    ea:bf:c8:f9:7b:ae:a3:d7:81:45:59:f3:dc:f8:01:
                    fe:a9:69:ed:cb:86:c0:09:33:db:17:b1:2a:a2:1a:
                    9a:44:2f:f8:c3:da:58:a3:2f:79:7b:1f:0f:7a:1f:
                    ab:5a:d4:04:92:ab:56:59:62:ae:76:54:12:b2:d7:
                    20:29:c0:a8:a0:56:0b:db:c7:69:09:b0:3d:4c:9a:
                    17:dd:ad:61:bd:be:c9:67:8b:c8:e8:f0:50:8e:65:
                    40:96:3f
                Exponent: 65537 (0x10001)
        X509v3 extensions:
            X509v3 Key Usage: critical
                Certificate Sign, CRL Sign
            X509v3 Basic Constraints: critical
                CA:TRUE, pathlen:0
            X509v3 Subject Key Identifier: 
                73:22:F9:68:31:83:E6:3A:55:0D:D5:B0:7B:20:10:F1:2E:0B:77:9F
            X509v3 Authority Key Identifier: 
                keyid:35:AF:79:CB:EB:B7:C3:8D:30:21:AC:5B:00:CD:E0:33:08:CB:11:E1

            Authority Information Access: 
                CA Issuers - URI:http://nitpicksy.no/ca/root-ca.cer

            X509v3 CRL Distribution Points: 

                Full Name:
                  URI:http://nitpicksy.no/ca/root-ca.crl

    Signature Algorithm: sha256WithRSAEncryption
         8c:dd:96:30:f6:32:3c:55:a1:b2:fe:40:dd:37:67:26:f7:02:
         d5:c4:06:12:64:98:84:11:a4:6b:d4:8e:95:fb:90:81:92:a3:
         4a:60:85:11:eb:50:e1:30:dc:17:a3:af:b5:8b:6e:3e:7b:4b:
         23:fe:2e:4e:76:3e:ee:53:56:16:35:11:2f:bf:6b:c3:5a:30:
         36:76:59:f6:fc:f7:90:f5:0f:1a:23:ca:de:8c:10:d0:d2:0d:
         5f:c6:0e:4f:25:25:3f:98:7a:39:81:cd:54:64:7b:d0:6f:d8:
         01:72:d5:e8:c9:12:2b:58:20:2d:8e:b1:53:7f:da:3d:f3:17:
         d5:1f:79:86:c3:d1:6f:ef:ad:48:f3:a6:14:cb:57:eb:f3:fc:
         57:9e:36:a7:e5:ed:ff:21:6a:b9:73:25:d5:ef:6c:0a:c1:d0:
         c2:0b:e9:bf:31:23:f6:17:2c:8d:78:39:d3:b5:3c:6a:0f:1b:
         d1:e0:25:5f:14:37:4d:61:5c:17:07:60:6c:f6:1f:61:58:01:
         a6:fe:bf:18:d8:97:45:c7:c1:e6:b0:7f:1b:d6:f7:1f:82:95:
         26:df:7c:f9:52:11:4e:06:50:cb:fe:e0:5e:f6:05:84:a8:d9:
         aa:58:67:06:2b:6b:e9:c8:8d:0c:45:d5:0e:82:53:2f:97:e8:
         22:4d:76:ca:d1:50:cc:f1:6b:74:38:22:6c:70:f2:78:ec:16:
         38:73:0b:03:67:f2:98:8c:11:49:e5:05:d1:a9:88:43:dc:ff:
         9f:03:a8:b5:e5:6f:28:6d:b4:fe:9c:bd:39:a7:16:de:d9:52:
         34:4a:ac:28:6d:26:c1:e4:bf:57:a9:d5:95:8d:cf:2a:b2:73:
         35:28:51:34:fe:64:50:8c:6c:5b:b7:4b:ec:22:a8:bd:7b:3e:
         f4:f8:2b:fd:c6:bf:9a:63:df:67:27:46:88:78:0b:7e:b9:39:
         03:9d:1e:9c:6e:69:a6:65:0f:c0:83:14:d1:c3:45:b9:6c:11:
         10:00:d5:7a:cc:09:c0:eb:81:9c:9e:20:de:53:bd:de:13:a4:
         b4:8d:be:07:be:e8:ea:b7:2a:63:1b:0a:bf:47:10:52:73:97:
         a8:39:75:94:e0:5d:63:45:88:1e:d8:4f:ca:cb:90:59:46:4a:
         ff:5e:57:10:5a:bb:45:eb:68:bc:28:30:5f:31:01:85:27:1f:
         f8:1c:8f:89:63:4f:d4:31:de:3a:83:95:23:da:a2:ca:7e:34:
         71:6d:2a:90:2c:b5:a5:6b:be:12:48:85:c8:ff:46:a1:00:a6:
         f1:a0:26:77:16:88:af:55:7a:1f:9c:c3:e5:bd:c9:7a:3c:79:
         fb:6c:f6:df:3c:6b:e2:4a
-----BEGIN CERTIFICATE-----
MIIGODCCBCCgAwIBAgIUV+y/AZjPGR/AAMf18s+7WUaSENgwDQYJKoZIhvcNAQEL
BQAwZzELMAkGA1UEBhMCTk8xEjAQBgNVBAoMCU5pdHBpY2tzeTEoMCYGA1UECwwf
Tml0cGlja3N5IENlcnRpZmljYXRlIEF1dGhvcml0eTEaMBgGA1UEAwwRTml0cGlj
a3N5IFJvb3QgQ0EwHhcNMjAxMjA2MjEzOTI5WhcNMzAxMjA2MjEzOTI5WjBmMQsw
CQYDVQQGEwJOTzESMBAGA1UECgwJTml0cGlja3N5MSgwJgYDVQQLDB9OaXRwaWNr
c3kgQ2VydGlmaWNhdGUgQXV0aG9yaXR5MRkwFwYDVQQDDBBOaXRwaWNrc3kgVExT
IENBMIICIjANBgkqhkiG9w0BAQEFAAOCAg8AMIICCgKCAgEAz6/w8W9m8jLY4HC7
ELogWA7zX238vjnMuP9dVmARMP9aWmWxPybWZD+dP6XrWvQuGlxqa7Slm0aKYpw2
qAikxFj7ASSybxRcoszxQXaaYz+fYy3AhDSolKtnQQ2M9kslWbucrGU/S8sEVmgl
yfGJuhdqzBkneLl5RQeypEbBDVEuJvdHJUnRC0pBFkNc/A2QDkxsoXeoeyOGtbU7
ISsrgpG2MHYu/UpB7QVk3pk76jPWgXSXzByz51Hr670j55oihh+MXkVGSxrBcuaS
Bs+650sQdOQqKwYp003V+aIZpo2bU185t7qpFbr9tiMm/FX745Fka/48uyksTWnk
VKUke25RjL4l/Lb2tkc5rUP/jBYmWrh1geYIaFtmEJ6+Hx/v7k/Qe3jOKJ5mrPEd
z2lxkCAqT8V0yX7Up5zsTQn1I1Qa3e33TbvCBZ4z1enbN5xalLlRjVLwVVd1C/BF
hcAdL6ayaUK7z68t4K+1gCY/RaBooLhW1XNG4oZtaVyV8KKZZ7JN/3j46WnrGFNm
Z6pVJnf3h4zUQeorgBL3iqEq9xNtaZfqv8j5e66j14FFWfPc+AH+qWnty4bACTPb
F7EqohqaRC/4w9pYoy95ex8Peh+rWtQEkqtWWWKudlQSstcgKcCooFYL28dpCbA9
TJoX3a1hvb7JZ4vI6PBQjmVAlj8CAwEAAaOB3DCB2TAOBgNVHQ8BAf8EBAMCAQYw
EgYDVR0TAQH/BAgwBgEB/wIBADAdBgNVHQ4EFgQUcyL5aDGD5jpVDdWweyAQ8S4L
d58wHwYDVR0jBBgwFoAUNa95y+u3w40wIaxbAM3gMwjLEeEwPgYIKwYBBQUHAQEE
MjAwMC4GCCsGAQUFBzAChiJodHRwOi8vbml0cGlja3N5Lm5vL2NhL3Jvb3QtY2Eu
Y2VyMDMGA1UdHwQsMCowKKAmoCSGImh0dHA6Ly9uaXRwaWNrc3kubm8vY2Evcm9v
dC1jYS5jcmwwDQYJKoZIhvcNAQELBQADggIBAIzdljD2MjxVobL+QN03Zyb3AtXE
BhJkmIQRpGvUjpX7kIGSo0pghRHrUOEw3Bejr7WLbj57SyP+Lk52Pu5TVhY1ES+/
a8NaMDZ2Wfb895D1Dxojyt6MENDSDV/GDk8lJT+YejmBzVRke9Bv2AFy1ejJEitY
IC2OsVN/2j3zF9UfeYbD0W/vrUjzphTLV+vz/FeeNqfl7f8harlzJdXvbArB0MIL
6b8xI/YXLI14OdO1PGoPG9HgJV8UN01hXBcHYGz2H2FYAab+vxjYl0XHweawfxvW
9x+ClSbffPlSEU4GUMv+4F72BYSo2apYZwYra+nIjQxF1Q6CUy+X6CJNdsrRUMzx
a3Q4Imxw8njsFjhzCwNn8piMEUnlBdGpiEPc/58DqLXlbyhttP6cvTmnFt7ZUjRK
rChtJsHkv1ep1ZWNzyqyczUoUTT+ZFCMbFu3S+wiqL17PvT4K/3Gv5pj32cnRoh4
C365OQOdHpxuaaZlD8CDFNHDRblsERAA1XrMCcDrgZyeIN5Tvd4TpLSNvge+6Oq3
KmMbCr9HEFJzl6g5dZTgXWNFiB7YT8rLkFlGSv9eVxBau0XraLwoMF8xAYUnH/gc
j4ljT9Qx3jqDlSPaosp+NHFtKpAstaVrvhJIhcj/RqEApvGgJncWiK9Veh+cw+W9
yXo8efts9t88a+JK
-----END CERTIFICATE-----
