Certificate:
    Data:
        Version: 3 (0x2)
        Serial Number:
            5a:b5:3b:18:0d:90:e6:e7:aa:2f:1d:56:c3:88:7f:41:e9:16:76:a0
        Signature Algorithm: sha256WithRSAEncryption
        Issuer: C=NO, O=Nitpicksy, OU=Nitpicksy Certificate Authority, CN=Nitpicksy Root CA
        Validity
            Not Before: Dec 11 23:35:51 2020 GMT
            Not After : Dec 11 23:35:51 2030 GMT
        Subject: C=NO, O=Nitpicksy, OU=Nitpicksy Certificate Authority, CN=Nitpicksy TLS CA
        Subject Public Key Info:
            Public Key Algorithm: rsaEncryption
                RSA Public-Key: (4096 bit)
                Modulus:
                    00:e1:e6:5e:6f:6d:6a:0d:59:2f:dc:d1:51:5e:3a:
                    f8:e0:f1:d7:68:ef:1b:fa:95:48:b4:ef:e2:41:7b:
                    06:73:dc:70:d4:b3:97:b0:8c:e3:39:7a:2d:c2:51:
                    1b:75:43:75:eb:26:4a:a9:9c:39:5f:c8:73:95:37:
                    6a:0c:2c:3a:89:98:89:93:15:66:59:e0:0f:f5:fe:
                    4d:ea:be:08:9c:81:3c:fc:04:e7:26:12:5a:cc:ee:
                    65:9d:5d:4a:7c:0b:6c:89:6f:3e:a5:9a:43:62:b1:
                    6c:a0:f3:18:c9:9a:2d:46:ad:68:63:d9:4e:95:bf:
                    d7:7b:39:56:9f:f4:35:29:11:c9:8e:d5:c3:fd:79:
                    7c:4b:a7:76:b1:ef:68:1b:cf:7e:c0:e9:45:42:f4:
                    83:5e:d7:5f:01:99:34:b5:39:b3:5c:cd:35:41:d9:
                    36:d2:29:37:ae:a1:3b:0f:be:c8:ca:24:e1:f4:4b:
                    e8:e6:fb:3b:f8:0c:13:81:ff:2f:9c:c9:02:50:00:
                    be:16:ba:20:58:9e:81:ed:96:a6:ae:6c:0a:a9:fc:
                    f6:92:ec:53:9a:84:1c:0c:bf:e8:e1:a7:7c:4f:4c:
                    35:fe:7d:65:06:1f:1b:b2:98:b3:02:42:af:90:48:
                    06:b9:b3:45:7e:b8:ad:e9:e9:06:c7:c6:56:bb:83:
                    02:4b:18:13:58:9c:ee:91:ac:d5:b3:5d:78:d8:49:
                    ed:89:74:8c:52:15:ca:35:3a:39:23:fc:a1:28:b7:
                    fd:2b:81:7f:f2:f0:f7:6a:57:2b:28:f1:db:a9:ed:
                    d3:a5:82:cd:38:49:5a:ad:37:c5:01:d2:40:62:74:
                    6a:05:c7:31:56:fc:16:d4:e0:85:9b:c7:7b:10:43:
                    53:c3:eb:a0:5b:ee:79:e7:97:66:18:03:d0:49:9d:
                    8e:a1:68:10:bf:10:57:11:ee:e0:f3:45:b3:cf:55:
                    a8:17:5c:d2:f3:b8:72:de:22:dc:cf:5a:e0:84:fe:
                    9a:89:3a:50:e0:f6:34:1b:a7:09:71:f1:87:d0:e3:
                    95:d8:e5:aa:20:45:f0:cd:bd:61:dc:eb:f2:51:14:
                    5f:4b:b4:23:59:9b:12:88:c7:12:07:c1:2c:78:ba:
                    5d:4d:fe:15:1b:d4:6d:78:fc:b3:a1:b4:3d:97:2a:
                    47:1b:f1:1f:ce:a0:d6:0d:4d:93:84:ca:a9:a0:89:
                    27:ee:31:55:56:d4:c9:9a:77:6f:cb:c2:74:dd:aa:
                    fc:2a:72:11:bd:c3:0c:96:99:68:d8:90:f9:c8:36:
                    47:df:41:9e:3e:5f:4e:76:43:bf:2e:a4:63:db:48:
                    7a:2d:76:ab:e2:e8:08:b4:47:7c:1e:c8:de:dc:cf:
                    51:38:03
                Exponent: 65537 (0x10001)
        X509v3 extensions:
            X509v3 Key Usage: critical
                Certificate Sign, CRL Sign
            X509v3 Basic Constraints: critical
                CA:TRUE, pathlen:0
            X509v3 Subject Key Identifier: 
                99:B8:0A:C6:F9:8F:63:32:21:3F:40:58:30:B1:09:38:21:F0:EA:62
            X509v3 Authority Key Identifier: 
                keyid:96:98:C0:68:03:47:4C:DD:7D:77:E8:C3:34:5E:58:E2:9E:B6:36:9D

            Authority Information Access: 
                CA Issuers - URI:http://nitpicksy.no/ca/root-ca.cer

            X509v3 CRL Distribution Points: 

                Full Name:
                  URI:http://nitpicksy.no/ca/root-ca.crl

    Signature Algorithm: sha256WithRSAEncryption
         02:20:55:67:a6:8b:ad:8a:b0:a3:cd:ef:60:3e:97:04:e8:9e:
         c0:3f:c2:74:59:82:56:e7:94:c0:0b:84:cc:93:d1:fd:ff:53:
         29:ee:85:4c:d6:30:5b:c2:7f:c3:ee:e4:f8:f6:99:f9:f2:3f:
         8f:df:f6:e9:c1:c2:cb:7f:8b:c4:34:b6:03:af:c1:74:b2:11:
         32:f5:e8:58:04:8f:39:a9:7a:98:77:22:78:cb:c6:d7:4d:ea:
         96:d1:42:24:a1:4a:fd:8d:99:06:75:4e:ed:6b:e4:36:88:13:
         77:8c:78:b6:fd:4b:4f:47:80:f6:a1:4f:ba:e7:53:9d:77:7c:
         7e:94:dc:6f:c5:ea:35:39:6d:45:49:48:63:a5:3a:54:f2:d1:
         ed:08:50:b5:03:ec:0b:5a:ea:01:51:ee:4d:2e:98:16:d3:d3:
         a5:29:ca:c4:d2:ba:e1:9d:b7:8d:13:ef:6b:f7:ff:82:e4:b1:
         a9:2c:1d:ca:65:d0:b5:d3:27:25:b5:71:63:50:35:5f:f9:f8:
         06:9e:27:7d:12:7b:03:ea:c9:5b:dc:0d:52:86:ad:37:64:f2:
         ae:4e:f8:55:0a:33:45:7c:43:87:41:db:bc:01:ec:03:84:ae:
         6f:6b:47:6d:aa:38:b4:e9:22:f9:c2:0d:da:c4:c6:ed:75:3c:
         9d:af:24:7b:d9:0b:ad:87:25:45:ab:45:dc:9d:6f:ac:a3:8f:
         c7:9b:d7:32:fe:50:a9:92:5c:a5:b0:56:c4:61:ea:7e:a2:82:
         72:ce:13:32:5f:cb:23:bf:e9:68:5b:cf:b3:bb:8a:c2:98:43:
         f4:76:ee:e1:4a:c2:68:74:94:64:98:2c:dc:89:c3:72:d6:87:
         0d:4d:0b:68:88:79:23:29:33:86:c8:14:d2:7d:63:3e:6a:9d:
         b8:53:92:04:ff:44:61:e9:9a:19:39:27:f5:74:69:a6:04:4f:
         b8:09:2f:68:9b:53:6d:63:20:79:11:3b:c3:1b:20:56:ce:c4:
         2e:a8:18:a4:78:02:28:9c:06:ba:13:31:b6:20:fe:d4:85:7f:
         f8:3b:f3:1a:76:cf:eb:35:ed:53:36:9f:4e:81:d2:0b:d9:83:
         71:31:c5:fc:ac:2f:95:ea:f1:fb:9c:d5:8f:86:26:12:e9:c9:
         0a:ec:7d:ff:29:fc:0c:5d:4f:72:f9:a4:be:0e:30:43:77:7e:
         92:87:ed:72:a9:91:e8:ea:f4:6a:2a:0b:c3:69:7d:a3:ce:38:
         22:85:0d:aa:83:70:49:ee:ce:36:2b:62:d5:db:40:0e:63:f3:
         dd:f9:4d:95:1c:5d:c1:ef:e8:d4:ce:e9:fd:fd:24:0d:86:fe:
         7d:f0:f2:4a:7a:e0:68:60
-----BEGIN CERTIFICATE-----
MIIGODCCBCCgAwIBAgIUWrU7GA2Q5ueqLx1Ww4h/QekWdqAwDQYJKoZIhvcNAQEL
BQAwZzELMAkGA1UEBhMCTk8xEjAQBgNVBAoMCU5pdHBpY2tzeTEoMCYGA1UECwwf
Tml0cGlja3N5IENlcnRpZmljYXRlIEF1dGhvcml0eTEaMBgGA1UEAwwRTml0cGlj
a3N5IFJvb3QgQ0EwHhcNMjAxMjExMjMzNTUxWhcNMzAxMjExMjMzNTUxWjBmMQsw
CQYDVQQGEwJOTzESMBAGA1UECgwJTml0cGlja3N5MSgwJgYDVQQLDB9OaXRwaWNr
c3kgQ2VydGlmaWNhdGUgQXV0aG9yaXR5MRkwFwYDVQQDDBBOaXRwaWNrc3kgVExT
IENBMIICIjANBgkqhkiG9w0BAQEFAAOCAg8AMIICCgKCAgEA4eZeb21qDVkv3NFR
Xjr44PHXaO8b+pVItO/iQXsGc9xw1LOXsIzjOXotwlEbdUN16yZKqZw5X8hzlTdq
DCw6iZiJkxVmWeAP9f5N6r4InIE8/ATnJhJazO5lnV1KfAtsiW8+pZpDYrFsoPMY
yZotRq1oY9lOlb/XezlWn/Q1KRHJjtXD/Xl8S6d2se9oG89+wOlFQvSDXtdfAZk0
tTmzXM01Qdk20ik3rqE7D77IyiTh9Evo5vs7+AwTgf8vnMkCUAC+FrogWJ6B7Zam
rmwKqfz2kuxTmoQcDL/o4ad8T0w1/n1lBh8bspizAkKvkEgGubNFfrit6ekGx8ZW
u4MCSxgTWJzukazVs1142EntiXSMUhXKNTo5I/yhKLf9K4F/8vD3alcrKPHbqe3T
pYLNOElarTfFAdJAYnRqBccxVvwW1OCFm8d7EENTw+ugW+5555dmGAPQSZ2OoWgQ
vxBXEe7g80Wzz1WoF1zS87hy3iLcz1rghP6aiTpQ4PY0G6cJcfGH0OOV2OWqIEXw
zb1h3OvyURRfS7QjWZsSiMcSB8EseLpdTf4VG9RtePyzobQ9lypHG/EfzqDWDU2T
hMqpoIkn7jFVVtTJmndvy8J03ar8KnIRvcMMlplo2JD5yDZH30GePl9OdkO/LqRj
20h6LXar4ugItEd8Hsje3M9ROAMCAwEAAaOB3DCB2TAOBgNVHQ8BAf8EBAMCAQYw
EgYDVR0TAQH/BAgwBgEB/wIBADAdBgNVHQ4EFgQUmbgKxvmPYzIhP0BYMLEJOCHw
6mIwHwYDVR0jBBgwFoAUlpjAaANHTN19d+jDNF5Y4p62Np0wPgYIKwYBBQUHAQEE
MjAwMC4GCCsGAQUFBzAChiJodHRwOi8vbml0cGlja3N5Lm5vL2NhL3Jvb3QtY2Eu
Y2VyMDMGA1UdHwQsMCowKKAmoCSGImh0dHA6Ly9uaXRwaWNrc3kubm8vY2Evcm9v
dC1jYS5jcmwwDQYJKoZIhvcNAQELBQADggIBAAIgVWemi62KsKPN72A+lwTonsA/
wnRZglbnlMALhMyT0f3/UynuhUzWMFvCf8Pu5Pj2mfnyP4/f9unBwst/i8Q0tgOv
wXSyETL16FgEjzmpeph3InjLxtdN6pbRQiShSv2NmQZ1Tu1r5DaIE3eMeLb9S09H
gPahT7rnU513fH6U3G/F6jU5bUVJSGOlOlTy0e0IULUD7Ata6gFR7k0umBbT06Up
ysTSuuGdt40T72v3/4LksaksHcpl0LXTJyW1cWNQNV/5+AaeJ30SewPqyVvcDVKG
rTdk8q5O+FUKM0V8Q4dB27wB7AOErm9rR22qOLTpIvnCDdrExu11PJ2vJHvZC62H
JUWrRdydb6yjj8eb1zL+UKmSXKWwVsRh6n6ignLOEzJfyyO/6Whbz7O7isKYQ/R2
7uFKwmh0lGSYLNyJw3LWhw1NC2iIeSMpM4bIFNJ9Yz5qnbhTkgT/RGHpmhk5J/V0
aaYET7gJL2ibU21jIHkRO8MbIFbOxC6oGKR4AiicBroTMbYg/tSFf/g78xp2z+s1
7VM2n06B0gvZg3ExxfysL5Xq8fuc1Y+GJhLpyQrsff8p/AxdT3L5pL4OMEN3fpKH
7XKpkejq9GoqC8NpfaPOOCKFDaqDcEnuzjYrYtXbQA5j8935TZUcXcHv6NTO6f39
JA2G/n3w8kp64Ghg
-----END CERTIFICATE-----
