Certificate:
    Data:
        Version: 3 (0x2)
        Serial Number:
            62:cc:62:9e:3f:a7:6d:82:9f:38:92:54:0f:1b:f2:e8:d2:94:e7:be
        Signature Algorithm: sha256WithRSAEncryption
        Issuer: C=NO, O=Nitpicksy, OU=Nitpicksy Certificate Authority, CN=Nitpicksy Root CA
        Validity
            Not Before: Dec  6 21:39:28 2020 GMT
            Not After : Dec  6 21:39:28 2030 GMT
        Subject: C=NO, O=Nitpicksy, OU=Nitpicksy Certificate Authority, CN=Nitpicksy Root CA
        Subject Public Key Info:
            Public Key Algorithm: rsaEncryption
                RSA Public-Key: (4096 bit)
                Modulus:
                    00:ad:6e:f8:0f:6e:df:11:91:c1:e4:a7:69:02:3b:
                    62:2b:1a:7d:38:01:3e:fd:0b:84:02:b3:3b:4c:84:
                    15:21:d2:1e:cc:34:25:d4:bf:47:7c:f3:a0:7e:17:
                    ad:b8:9c:a8:e8:41:37:37:a4:b3:7f:9e:70:43:b1:
                    19:47:ad:23:85:0e:1b:bd:af:82:94:b7:6a:42:14:
                    6f:a5:f9:26:87:4d:40:8e:20:66:d3:c1:99:35:b4:
                    7f:6f:83:53:0b:f8:18:05:4b:ce:52:f7:bc:58:ac:
                    fe:e4:86:44:2e:e5:32:84:0a:50:85:c2:d4:c8:05:
                    86:80:8c:d1:4c:41:a5:55:b1:f7:20:81:df:8a:54:
                    59:71:a2:12:93:f3:14:d9:a7:d6:4d:3e:2a:b9:62:
                    be:7d:69:47:c0:b5:fe:4c:cd:34:e4:15:77:e8:f3:
                    35:d0:f5:1f:4e:ea:88:fb:bf:2e:f3:44:86:b2:20:
                    7e:b7:1e:ee:61:cc:e0:0c:8c:c9:06:95:1e:cb:d3:
                    7a:ee:1d:8a:8b:31:59:18:75:63:27:dc:89:e9:19:
                    cb:98:05:d0:f0:52:e7:a7:5e:f7:89:3a:33:49:33:
                    6c:df:dd:77:b4:79:f9:6a:db:b0:d3:05:a0:8c:fe:
                    e7:49:22:57:25:28:1a:4d:8f:fd:a7:c0:dc:37:fc:
                    3f:cf:2f:ae:09:c2:69:77:74:d3:6d:fb:5c:e5:f8:
                    1b:4d:d9:3c:0a:c5:06:0d:fd:d0:88:40:3f:40:80:
                    71:1c:aa:88:f0:2f:ff:22:48:2e:93:08:32:5d:a1:
                    f4:c6:5a:92:cb:a7:5f:89:c2:ab:78:05:46:54:dc:
                    93:3b:52:17:20:47:d0:7a:3d:cb:43:df:d8:7d:a2:
                    78:ad:26:04:08:5b:6a:81:2e:3d:8d:79:05:c3:3e:
                    0d:d9:c8:68:7d:a5:70:0a:82:4f:5d:8a:38:9c:eb:
                    58:ab:1b:51:fd:d8:95:7c:57:79:c3:5b:d1:ac:fb:
                    88:e8:41:b0:f9:ce:78:70:66:8b:aa:39:36:57:31:
                    67:f9:58:16:0e:2e:1e:13:b2:7a:60:5f:4a:02:df:
                    29:c8:1c:8c:ad:7d:f6:ab:ef:d5:52:19:dc:77:96:
                    74:9f:93:7c:24:ec:be:1c:b2:68:23:24:0b:dc:3c:
                    ff:a1:d8:3d:70:2f:5b:be:0f:18:b7:a4:63:e8:69:
                    f2:78:1d:85:88:b1:77:7e:00:2d:a4:f5:77:54:62:
                    bf:bf:61:b4:ba:28:d0:8b:39:8b:bb:13:c2:4a:1b:
                    f7:3a:b6:fb:9e:e8:ac:2a:6b:8c:ee:78:b4:01:64:
                    16:74:d0:b6:4c:f9:b6:50:91:b3:06:a5:14:08:9d:
                    f4:f3:9f
                Exponent: 65537 (0x10001)
        X509v3 extensions:
            X509v3 Key Usage: critical
                Certificate Sign, CRL Sign
            X509v3 Basic Constraints: critical
                CA:TRUE
            X509v3 Subject Key Identifier: 
                35:AF:79:CB:EB:B7:C3:8D:30:21:AC:5B:00:CD:E0:33:08:CB:11:E1
            X509v3 Authority Key Identifier: 
                keyid:35:AF:79:CB:EB:B7:C3:8D:30:21:AC:5B:00:CD:E0:33:08:CB:11:E1

    Signature Algorithm: sha256WithRSAEncryption
         8d:97:75:42:7f:6f:ba:76:86:83:fa:aa:3e:38:89:8c:ec:6a:
         0e:05:35:4a:f5:6e:51:3b:95:b4:15:b8:8d:65:66:8c:0b:f2:
         a5:7e:2c:7f:65:ae:27:88:e5:a3:a3:a5:ec:89:23:a1:93:0c:
         0e:21:9d:96:f8:fb:b4:c9:58:da:b0:83:b2:ea:8f:9a:ab:b0:
         ae:4b:47:49:cb:76:23:ac:e2:06:c1:54:95:ac:a7:c6:1a:50:
         60:86:ef:4b:07:ad:00:eb:2b:03:5b:fe:5e:e7:64:f3:ee:52:
         71:e8:cb:d6:a8:83:e1:73:a7:2f:59:83:8f:aa:a8:41:4b:28:
         2f:1c:d8:fe:be:c9:74:b6:c1:6f:f2:39:4b:af:89:1c:cc:c3:
         68:32:1e:c2:a0:58:f3:38:64:82:4b:a4:2a:65:69:05:64:57:
         b1:a4:8b:46:ff:15:11:f0:bc:c2:d1:b2:ff:db:9a:3b:2e:4e:
         01:4f:d3:98:83:e4:ae:03:f0:c6:17:fc:ea:a0:9c:0a:eb:fb:
         5a:6a:0c:54:30:22:c7:ff:12:cc:97:73:c3:01:e5:68:ef:7c:
         28:e6:be:e3:ca:99:af:e3:18:57:78:59:ef:1f:ce:5e:b0:d3:
         d0:98:56:81:bb:86:65:60:b6:93:30:b2:9f:15:ed:4c:72:83:
         e5:4a:71:4f:a7:75:4d:de:33:8f:d1:ea:6f:23:00:76:ae:51:
         68:1d:68:2e:fa:15:51:ef:69:f9:3b:ae:c0:10:36:cd:23:e4:
         1c:88:ef:47:53:12:20:0f:cf:b5:ad:96:80:f9:4b:d9:8f:17:
         cf:f3:16:35:b4:94:ad:24:75:f6:33:75:54:33:79:f9:cc:3e:
         e1:c1:67:61:3b:85:6a:32:ac:7c:d4:b5:16:b5:9e:b7:89:ab:
         f8:bf:a4:0b:4d:f4:0b:42:57:b2:b0:bf:9f:dd:1d:42:67:33:
         6e:8b:22:19:47:c6:e9:17:d9:aa:a1:ae:20:4d:2f:c3:20:8a:
         74:a6:8a:48:e9:4c:0f:77:1f:34:77:e2:02:f8:aa:46:b8:a0:
         64:44:9e:37:b0:82:3d:29:cf:56:8d:fe:db:dd:6e:17:41:e0:
         25:42:6c:e4:0a:75:6a:5d:a5:43:f4:e7:f5:b8:61:58:3c:60:
         16:6e:8c:f6:60:20:31:88:53:f5:58:94:85:2b:a5:d5:c5:f9:
         3c:89:8e:21:ec:d0:ec:53:2b:37:22:26:76:a0:96:c4:38:82:
         d0:c4:ec:53:7e:93:7d:1e:7a:3f:32:db:3d:83:7c:c6:63:bc:
         45:15:b7:50:33:ea:60:c8:e8:ff:aa:6f:51:e4:d3:f0:11:bd:
         60:15:d2:0f:c6:23:99:b8
-----BEGIN CERTIFICATE-----
MIIFvzCCA6egAwIBAgIUYsxinj+nbYKfOJJUDxvy6NKU574wDQYJKoZIhvcNAQEL
BQAwZzELMAkGA1UEBhMCTk8xEjAQBgNVBAoMCU5pdHBpY2tzeTEoMCYGA1UECwwf
Tml0cGlja3N5IENlcnRpZmljYXRlIEF1dGhvcml0eTEaMBgGA1UEAwwRTml0cGlj
a3N5IFJvb3QgQ0EwHhcNMjAxMjA2MjEzOTI4WhcNMzAxMjA2MjEzOTI4WjBnMQsw
CQYDVQQGEwJOTzESMBAGA1UECgwJTml0cGlja3N5MSgwJgYDVQQLDB9OaXRwaWNr
c3kgQ2VydGlmaWNhdGUgQXV0aG9yaXR5MRowGAYDVQQDDBFOaXRwaWNrc3kgUm9v
dCBDQTCCAiIwDQYJKoZIhvcNAQEBBQADggIPADCCAgoCggIBAK1u+A9u3xGRweSn
aQI7YisafTgBPv0LhAKzO0yEFSHSHsw0JdS/R3zzoH4XrbicqOhBNzeks3+ecEOx
GUetI4UOG72vgpS3akIUb6X5JodNQI4gZtPBmTW0f2+DUwv4GAVLzlL3vFis/uSG
RC7lMoQKUIXC1MgFhoCM0UxBpVWx9yCB34pUWXGiEpPzFNmn1k0+Krlivn1pR8C1
/kzNNOQVd+jzNdD1H07qiPu/LvNEhrIgfrce7mHM4AyMyQaVHsvTeu4diosxWRh1
YyfciekZy5gF0PBS56de94k6M0kzbN/dd7R5+WrbsNMFoIz+50kiVyUoGk2P/afA
3Df8P88vrgnCaXd00237XOX4G03ZPArFBg390IhAP0CAcRyqiPAv/yJILpMIMl2h
9MZaksunX4nCq3gFRlTckztSFyBH0Ho9y0Pf2H2ieK0mBAhbaoEuPY15BcM+DdnI
aH2lcAqCT12KOJzrWKsbUf3YlXxXecNb0az7iOhBsPnOeHBmi6o5NlcxZ/lYFg4u
HhOyemBfSgLfKcgcjK199qvv1VIZ3HeWdJ+TfCTsvhyyaCMkC9w8/6HYPXAvW74P
GLekY+hp8ngdhYixd34ALaT1d1Riv79htLoo0Is5i7sTwkob9zq2+57orCprjO54
tAFkFnTQtkz5tlCRswalFAid9POfAgMBAAGjYzBhMA4GA1UdDwEB/wQEAwIBBjAP
BgNVHRMBAf8EBTADAQH/MB0GA1UdDgQWBBQ1r3nL67fDjTAhrFsAzeAzCMsR4TAf
BgNVHSMEGDAWgBQ1r3nL67fDjTAhrFsAzeAzCMsR4TANBgkqhkiG9w0BAQsFAAOC
AgEAjZd1Qn9vunaGg/qqPjiJjOxqDgU1SvVuUTuVtBW4jWVmjAvypX4sf2WuJ4jl
o6Ol7IkjoZMMDiGdlvj7tMlY2rCDsuqPmquwrktHSct2I6ziBsFUlaynxhpQYIbv
SwetAOsrA1v+Xudk8+5ScejL1qiD4XOnL1mDj6qoQUsoLxzY/r7JdLbBb/I5S6+J
HMzDaDIewqBY8zhkgkukKmVpBWRXsaSLRv8VEfC8wtGy/9uaOy5OAU/TmIPkrgPw
xhf86qCcCuv7WmoMVDAix/8SzJdzwwHlaO98KOa+48qZr+MYV3hZ7x/OXrDT0JhW
gbuGZWC2kzCynxXtTHKD5UpxT6d1Td4zj9HqbyMAdq5RaB1oLvoVUe9p+TuuwBA2
zSPkHIjvR1MSIA/Pta2WgPlL2Y8Xz/MWNbSUrSR19jN1VDN5+cw+4cFnYTuFajKs
fNS1FrWet4mr+L+kC030C0JXsrC/n90dQmczbosiGUfG6RfZqqGuIE0vwyCKdKaK
SOlMD3cfNHfiAviqRrigZESeN7CCPSnPVo3+291uF0HgJUJs5Ap1al2lQ/Tn9bhh
WDxgFm6M9mAgMYhT9ViUhSul1cX5PImOIezQ7FMrNyImdqCWxDiC0MTsU36TfR56
PzLbPYN8xmO8RRW3UDPqYMjo/6pvUeTT8BG9YBXSD8Yjmbg=
-----END CERTIFICATE-----
