Certificate:
    Data:
        Version: 3 (0x2)
        Serial Number:
            63:7d:67:08:10:94:1e:fe:b9:20:5f:e9:e8:eb:7a:db:2f:5e:f5:66
        Signature Algorithm: sha256WithRSAEncryption
        Issuer: C=NO, O=Nitpicksy, OU=Nitpicksy Certificate Authority, CN=Nitpicksy Root CA
        Validity
            Not Before: Dec  6 22:08:18 2020 GMT
            Not After : Dec  6 22:08:18 2030 GMT
        Subject: C=NO, O=Nitpicksy, OU=Nitpicksy Certificate Authority, CN=Nitpicksy Root CA
        Subject Public Key Info:
            Public Key Algorithm: rsaEncryption
                RSA Public-Key: (4096 bit)
                Modulus:
                    00:c9:8d:8f:fd:fd:23:d6:ac:1a:4a:90:e4:f3:2b:
                    f9:33:79:27:e2:b2:a5:e6:3d:5b:d5:77:26:a5:3c:
                    0c:cc:27:94:c6:ad:47:1f:49:ad:13:3f:ad:84:d4:
                    33:88:b9:67:2e:6e:6a:ed:d3:ec:8c:f9:84:32:16:
                    ab:9a:a4:d6:6b:45:19:c7:69:ab:85:58:80:31:59:
                    44:6a:19:42:f5:53:49:7b:b7:59:1e:c6:e4:cd:06:
                    c0:21:5b:84:a9:26:97:b3:65:59:ca:f9:74:1d:21:
                    9b:8b:59:8d:ee:9e:e0:b7:38:d7:fb:6a:4b:f6:c3:
                    24:9b:da:a0:b3:76:68:f5:60:8f:89:14:18:89:78:
                    55:d3:7a:0b:87:a0:0d:e5:c1:13:49:08:a3:77:60:
                    8a:0b:1a:c6:8f:55:9b:17:46:cd:67:67:3a:6b:8d:
                    84:4e:c7:71:ef:ba:da:d8:73:c1:37:62:28:2c:16:
                    1b:d8:bd:7f:f7:47:be:35:8b:9c:4f:34:65:a8:3d:
                    4d:50:7e:90:6e:73:01:01:cf:ec:9c:9c:1f:74:f4:
                    70:38:b0:f9:80:4b:8b:16:88:71:cd:ad:1d:c7:7e:
                    77:88:49:7c:47:6c:3c:3f:07:bd:8b:41:25:3c:2f:
                    fa:ce:6c:74:db:5d:b6:0d:01:dc:fe:fa:ac:93:ca:
                    0f:66:6b:b2:8d:97:35:7e:be:2f:20:42:6b:84:49:
                    ea:b6:75:77:b9:2c:c6:c8:5b:a8:97:b0:85:41:ac:
                    bf:d7:57:ee:47:37:d2:99:1b:43:00:35:09:0a:1a:
                    6b:74:78:dc:90:4d:b0:16:79:21:41:94:cc:32:1b:
                    8b:ac:dd:8e:e9:f2:db:de:a3:c6:f8:b5:1f:81:de:
                    4c:c9:ad:48:c2:10:f1:36:15:9a:19:3a:b0:a6:1e:
                    dc:99:4f:e5:32:96:5a:35:9c:b2:80:1a:95:04:85:
                    d0:9c:f2:d5:93:39:0f:ad:19:e8:f2:9d:1b:9e:3a:
                    d0:6c:eb:8c:38:ad:54:12:87:f0:e5:2c:c5:cb:8b:
                    7c:c0:22:1c:65:56:e3:a1:ab:23:5e:6e:e5:10:d4:
                    df:bf:ff:dd:8f:37:c2:62:49:49:92:a7:f8:47:90:
                    05:d2:11:6d:da:fb:c8:54:15:8e:0b:3b:3c:d6:d4:
                    d8:f4:0c:69:be:1d:ab:3d:12:0d:98:cc:13:3f:b8:
                    ab:ca:d7:63:52:12:aa:53:4c:58:70:11:68:31:83:
                    d1:15:99:46:9d:5c:94:21:20:90:a3:b1:78:e2:ff:
                    80:58:87:ac:8f:67:0f:91:38:05:a4:1b:fb:25:04:
                    f7:b4:35:1f:3a:53:43:ea:ad:0c:72:24:79:91:0b:
                    d6:41:67
                Exponent: 65537 (0x10001)
        X509v3 extensions:
            X509v3 Key Usage: critical
                Certificate Sign, CRL Sign
            X509v3 Basic Constraints: critical
                CA:TRUE
            X509v3 Subject Key Identifier: 
                02:02:8F:98:58:A3:D7:F7:51:07:33:DB:15:C2:04:EA:52:38:7E:E4
            X509v3 Authority Key Identifier: 
                keyid:02:02:8F:98:58:A3:D7:F7:51:07:33:DB:15:C2:04:EA:52:38:7E:E4

    Signature Algorithm: sha256WithRSAEncryption
         8c:bd:c0:92:5c:6a:e0:5c:17:b2:90:57:d9:b4:61:7e:a4:b2:
         1c:86:c6:bf:a2:6c:87:89:9c:19:30:7d:f5:15:dd:63:2a:17:
         83:81:e1:61:14:af:a2:05:3a:3d:57:a3:de:1a:7b:e1:c5:99:
         af:af:fb:d1:83:05:96:24:e8:a8:f3:47:d9:34:2a:0f:6e:26:
         42:96:2f:f5:ad:36:83:f5:90:f9:f2:9e:17:9c:ae:33:0e:be:
         b6:68:b7:5e:a4:53:7c:2d:9d:62:01:4f:b4:ea:ee:7e:b8:d2:
         37:64:c2:20:13:9a:bf:61:c2:e3:42:5d:3b:a2:09:19:f3:94:
         5a:a7:eb:f0:56:99:27:43:68:0a:ea:10:2a:2d:6f:29:df:50:
         1d:b8:0f:ca:b8:fa:d7:c1:6d:9f:d6:1b:1e:06:73:bd:83:c4:
         53:7f:c3:20:58:7b:70:b8:b9:3a:a9:2a:25:e1:1f:14:58:4a:
         a3:14:4b:e9:35:38:bc:c4:60:c0:7e:c2:a1:d0:c8:41:e1:0c:
         bf:be:95:9a:23:db:a5:00:cd:ac:52:6f:ef:c2:c3:84:9a:e3:
         d4:66:b7:01:d6:fb:01:86:71:12:26:4c:aa:36:6e:e9:fb:63:
         18:d3:04:09:ca:30:be:31:1b:e2:fe:3e:ad:73:df:35:89:0d:
         d3:01:78:a4:24:96:12:ab:f2:56:d4:0f:9c:0f:91:6a:2a:e8:
         64:f2:08:b4:d7:af:80:a4:7a:ab:b8:cf:97:c7:34:0d:45:d4:
         56:e4:e7:43:b3:76:38:df:25:8b:ec:47:cd:4f:23:5e:71:03:
         ca:fe:db:65:5c:22:0b:6f:1d:ef:cc:d3:60:ac:cc:65:9d:cf:
         ea:44:4f:76:80:c3:95:dd:c4:e9:ae:53:15:59:f5:ba:39:50:
         ec:e2:a1:c5:fa:94:30:96:3a:4e:6d:05:64:7f:55:14:95:85:
         46:be:17:91:fa:30:88:7a:48:d6:f4:f0:47:4c:d5:87:f0:4c:
         24:72:51:e7:9a:9f:2f:de:05:58:2f:a4:4c:a1:97:42:12:4d:
         5e:56:ae:a5:57:6c:90:87:d5:f7:a9:44:41:ba:66:2d:ea:e6:
         a4:77:51:e5:a1:8a:36:1a:51:88:f0:c3:f3:fb:1c:82:43:6e:
         cc:25:ee:35:cd:b1:b4:82:f3:a2:29:61:f6:37:21:1b:b6:de:
         ea:47:f0:0a:ab:42:e3:47:81:66:31:69:a0:0a:ef:35:4f:ed:
         23:69:1a:04:a5:4a:d9:37:0d:2b:31:be:a1:1b:20:99:95:4f:
         45:10:92:52:3c:f7:0e:bc:09:a3:f7:07:87:f5:c6:b9:13:c3:
         e5:2d:a9:92:e7:b6:6d:fd
-----BEGIN CERTIFICATE-----
MIIFvzCCA6egAwIBAgIUY31nCBCUHv65IF/p6Ot62y9e9WYwDQYJKoZIhvcNAQEL
BQAwZzELMAkGA1UEBhMCTk8xEjAQBgNVBAoMCU5pdHBpY2tzeTEoMCYGA1UECwwf
Tml0cGlja3N5IENlcnRpZmljYXRlIEF1dGhvcml0eTEaMBgGA1UEAwwRTml0cGlj
a3N5IFJvb3QgQ0EwHhcNMjAxMjA2MjIwODE4WhcNMzAxMjA2MjIwODE4WjBnMQsw
CQYDVQQGEwJOTzESMBAGA1UECgwJTml0cGlja3N5MSgwJgYDVQQLDB9OaXRwaWNr
c3kgQ2VydGlmaWNhdGUgQXV0aG9yaXR5MRowGAYDVQQDDBFOaXRwaWNrc3kgUm9v
dCBDQTCCAiIwDQYJKoZIhvcNAQEBBQADggIPADCCAgoCggIBAMmNj/39I9asGkqQ
5PMr+TN5J+KypeY9W9V3JqU8DMwnlMatRx9JrRM/rYTUM4i5Zy5uau3T7Iz5hDIW
q5qk1mtFGcdpq4VYgDFZRGoZQvVTSXu3WR7G5M0GwCFbhKkml7NlWcr5dB0hm4tZ
je6e4Lc41/tqS/bDJJvaoLN2aPVgj4kUGIl4VdN6C4egDeXBE0kIo3dgigsaxo9V
mxdGzWdnOmuNhE7Hce+62thzwTdiKCwWG9i9f/dHvjWLnE80Zag9TVB+kG5zAQHP
7JycH3T0cDiw+YBLixaIcc2tHcd+d4hJfEdsPD8HvYtBJTwv+s5sdNtdtg0B3P76
rJPKD2Zrso2XNX6+LyBCa4RJ6rZ1d7ksxshbqJewhUGsv9dX7kc30pkbQwA1CQoa
a3R43JBNsBZ5IUGUzDIbi6zdjuny296jxvi1H4HeTMmtSMIQ8TYVmhk6sKYe3JlP
5TKWWjWcsoAalQSF0Jzy1ZM5D60Z6PKdG5460GzrjDitVBKH8OUsxcuLfMAiHGVW
46GrI15u5RDU37//3Y83wmJJSZKn+EeQBdIRbdr7yFQVjgs7PNbU2PQMab4dqz0S
DZjMEz+4q8rXY1ISqlNMWHARaDGD0RWZRp1clCEgkKOxeOL/gFiHrI9nD5E4BaQb
+yUE97Q1HzpTQ+qtDHIkeZEL1kFnAgMBAAGjYzBhMA4GA1UdDwEB/wQEAwIBBjAP
BgNVHRMBAf8EBTADAQH/MB0GA1UdDgQWBBQCAo+YWKPX91EHM9sVwgTqUjh+5DAf
BgNVHSMEGDAWgBQCAo+YWKPX91EHM9sVwgTqUjh+5DANBgkqhkiG9w0BAQsFAAOC
AgEAjL3Aklxq4FwXspBX2bRhfqSyHIbGv6Jsh4mcGTB99RXdYyoXg4HhYRSvogU6
PVej3hp74cWZr6/70YMFliToqPNH2TQqD24mQpYv9a02g/WQ+fKeF5yuMw6+tmi3
XqRTfC2dYgFPtOrufrjSN2TCIBOav2HC40JdO6IJGfOUWqfr8FaZJ0NoCuoQKi1v
Kd9QHbgPyrj618Ftn9YbHgZzvYPEU3/DIFh7cLi5OqkqJeEfFFhKoxRL6TU4vMRg
wH7CodDIQeEMv76VmiPbpQDNrFJv78LDhJrj1Ga3Adb7AYZxEiZMqjZu6ftjGNME
CcowvjEb4v4+rXPfNYkN0wF4pCSWEqvyVtQPnA+RairoZPIItNevgKR6q7jPl8c0
DUXUVuTnQ7N2ON8li+xHzU8jXnEDyv7bZVwiC28d78zTYKzMZZ3P6kRPdoDDld3E
6a5TFVn1ujlQ7OKhxfqUMJY6Tm0FZH9VFJWFRr4XkfowiHpI1vTwR0zVh/BMJHJR
55qfL94FWC+kTKGXQhJNXlaupVdskIfV96lEQbpmLermpHdR5aGKNhpRiPDD8/sc
gkNuzCXuNc2xtILzoilh9jchG7be6kfwCqtC40eBZjFpoArvNU/tI2kaBKVK2TcN
KzG+oRsgmZVPRRCSUjz3DrwJo/cHh/XGuRPD5S2pkue2bf0=
-----END CERTIFICATE-----
