Certificate:
    Data:
        Version: 3 (0x2)
        Serial Number:
            64:90:6e:ac:19:d4:e2:83:1b:87:06:8e:3b:e0:96:8d:b0:29:93:51
        Signature Algorithm: sha256WithRSAEncryption
        Issuer: C=NO, O=Nitpicksy, OU=Nitpicksy Certificate Authority, CN=Nitpicksy Root CA
        Validity
            Not Before: Dec  4 12:02:34 2020 GMT
            Not After : Dec  4 12:02:34 2030 GMT
        Subject: C=NO, O=Nitpicksy, OU=Nitpicksy Certificate Authority, CN=Nitpicksy Root CA
        Subject Public Key Info:
            Public Key Algorithm: rsaEncryption
                RSA Public-Key: (4096 bit)
                Modulus:
                    00:c8:e4:ac:3f:1b:26:86:9f:8a:bf:a5:d4:7a:29:
                    21:3c:4a:ba:d6:b2:18:8a:8b:c7:35:fa:c9:d9:42:
                    8c:97:83:47:b8:c5:b9:0e:51:95:ba:b5:66:2d:a9:
                    b7:74:4f:a1:fb:69:f8:98:4b:b6:a1:b9:dc:29:ea:
                    73:c7:d3:8e:27:40:52:8d:ee:6e:71:ba:a7:d5:11:
                    0a:a4:4c:d0:ca:7f:e6:05:d0:f6:dc:9f:56:fc:eb:
                    28:b2:18:38:a5:72:3e:f9:e2:b3:e1:e4:33:af:bb:
                    60:f6:b3:15:ba:f5:a3:11:02:7c:de:bd:a1:dd:a1:
                    d3:b2:d0:a1:7f:34:07:01:ec:2f:75:81:2a:e9:4e:
                    17:42:ca:b9:3e:53:44:b4:82:3c:59:5e:46:19:7a:
                    ac:c8:1d:10:6b:1a:f4:3a:0e:f9:a4:60:e8:ff:b6:
                    8a:c2:1f:e7:7f:b9:d3:e8:ed:e9:2b:b5:32:96:d3:
                    36:32:cb:4c:24:5a:c3:1a:f9:68:da:09:15:2f:af:
                    07:35:13:2a:15:50:2d:50:b2:24:25:0d:08:64:79:
                    5d:51:55:df:d2:e9:b9:80:23:69:8b:0a:71:52:43:
                    2e:52:80:87:01:d8:48:ab:f3:92:8e:1e:f8:2f:fa:
                    af:06:88:f3:1b:cf:47:80:63:77:3a:7e:7f:4f:4a:
                    1e:db:c8:c0:5d:98:a7:52:c6:74:15:2f:5a:bc:65:
                    27:35:06:de:6d:ba:17:55:68:79:e7:ba:c6:58:55:
                    8d:f8:8e:d1:5d:6b:bb:a0:56:d3:ec:fc:06:95:1f:
                    df:a7:11:eb:f1:c2:38:75:ef:07:45:b5:47:b9:dc:
                    a8:6d:21:e5:02:29:71:26:35:f3:98:21:53:9d:a7:
                    a5:c0:e3:e2:d8:5f:6c:46:74:2e:04:16:02:d1:5b:
                    c0:81:2f:a4:ec:fd:19:88:18:7f:9d:6b:70:15:21:
                    33:43:4f:6f:1d:44:4c:28:81:54:86:eb:b0:f4:a5:
                    dc:11:d1:7d:3e:8a:de:ce:24:55:e1:68:f7:61:ff:
                    c2:32:e2:0e:d0:77:ac:65:1d:f6:17:3c:c8:89:ae:
                    da:a2:6d:a3:8e:fe:b6:3c:be:28:c3:8b:f0:20:09:
                    10:d0:c0:33:51:48:8b:14:e8:7e:eb:f6:9c:fb:9e:
                    e3:c6:74:1f:31:ab:0a:9d:83:ab:de:7f:97:d4:43:
                    eb:27:2e:85:a0:8a:fc:0c:60:d7:4f:47:3d:64:53:
                    bb:99:73:76:3a:3a:2b:2f:60:ed:54:7c:18:a7:db:
                    0b:20:a6:59:d4:a7:1a:4e:93:4e:56:33:2c:80:3e:
                    b7:4e:bb:33:44:fe:29:46:16:6d:25:75:fd:12:ab:
                    de:76:45
                Exponent: 65537 (0x10001)
        X509v3 extensions:
            X509v3 Key Usage: critical
                Certificate Sign, CRL Sign
            X509v3 Basic Constraints: critical
                CA:TRUE
            X509v3 Subject Key Identifier: 
                AB:77:8E:51:19:F4:98:63:BB:D9:1C:95:F7:4A:76:12:63:59:9E:91
            X509v3 Authority Key Identifier: 
                keyid:AB:77:8E:51:19:F4:98:63:BB:D9:1C:95:F7:4A:76:12:63:59:9E:91

    Signature Algorithm: sha256WithRSAEncryption
         44:06:27:db:6c:ae:35:89:de:0d:68:df:98:12:5c:3c:79:c0:
         9e:a0:e0:9c:a1:30:04:3c:90:11:aa:3c:ad:06:68:ab:0c:97:
         f2:64:79:ee:2c:2d:19:74:88:d7:2f:2f:00:f4:80:d1:80:21:
         ac:48:ee:11:6a:f1:75:0c:c8:6e:b3:4f:c9:3e:c4:ff:7d:97:
         3f:66:ee:92:d6:f0:63:e4:27:44:2f:a0:71:9d:c0:60:ac:87:
         e3:1d:a0:80:85:1f:88:f7:2d:32:0e:05:a9:36:f6:52:0f:de:
         33:ac:82:0b:2f:eb:4e:bd:86:9d:12:59:ef:c4:d5:5f:c8:e2:
         ef:bc:e5:eb:92:6e:77:28:dd:05:64:e1:39:c3:02:54:b9:b2:
         c9:b6:10:6c:64:c0:45:85:37:da:9a:59:c7:78:76:7c:d5:74:
         6b:8d:3c:6a:3b:52:99:bd:4d:72:1e:9b:80:72:a8:86:27:f1:
         b3:a2:48:c2:3f:0f:bb:7d:b5:05:fc:36:b7:2a:b8:43:6e:bc:
         cb:4e:16:30:3f:41:61:9f:fa:f2:6a:80:11:57:33:9b:94:00:
         a0:0d:bd:ff:50:fc:8d:fc:69:22:87:a6:21:04:42:22:d2:8d:
         c8:84:7a:c4:69:dd:5e:c3:bc:87:10:7b:85:1b:97:bc:4c:d2:
         a7:cc:71:15:1f:49:b9:d9:df:9b:ce:9e:c4:9b:bc:ad:ae:61:
         96:cd:ce:79:07:91:8b:30:50:61:a7:8a:22:e4:26:3b:68:00:
         43:86:89:36:da:34:d8:86:8e:11:45:ee:bc:fc:55:53:54:f0:
         12:cd:74:85:87:19:ed:c3:ec:4e:79:f1:b7:08:cd:90:63:3d:
         d5:10:a4:17:34:e0:8e:25:04:00:79:94:d9:b2:b3:31:63:39:
         c3:2f:f8:6b:50:28:49:e6:80:82:19:c8:c7:2d:ec:0c:96:d5:
         7a:45:bb:26:0f:5c:00:39:43:f3:86:39:08:00:9e:58:ff:ec:
         95:bd:56:b1:e2:16:a9:1f:24:a7:b3:05:8d:4d:13:fb:f7:cb:
         27:cf:a5:d9:e9:d4:e2:fa:05:06:97:6c:3d:c4:fa:e8:b5:88:
         b3:16:03:cd:48:01:a5:e5:a2:0f:e5:d9:48:05:d1:e5:4a:2b:
         2d:31:ac:5d:7b:90:1a:1d:ac:60:93:92:5e:d1:b1:20:f5:f1:
         48:02:e3:6d:d0:a6:d8:da:0a:df:8c:65:75:f8:9a:ed:6f:f7:
         c2:dd:2b:01:47:df:f7:d1:eb:ed:82:f1:e0:6a:5a:08:8a:cd:
         e0:f3:17:88:0d:52:b1:72:41:4a:cc:a6:48:50:31:6b:5d:f8:
         05:0a:9a:de:73:2c:7c:2d
-----BEGIN CERTIFICATE-----
MIIFvzCCA6egAwIBAgIUZJBurBnU4oMbhwaOO+CWjbApk1EwDQYJKoZIhvcNAQEL
BQAwZzELMAkGA1UEBhMCTk8xEjAQBgNVBAoMCU5pdHBpY2tzeTEoMCYGA1UECwwf
Tml0cGlja3N5IENlcnRpZmljYXRlIEF1dGhvcml0eTEaMBgGA1UEAwwRTml0cGlj
a3N5IFJvb3QgQ0EwHhcNMjAxMjA0MTIwMjM0WhcNMzAxMjA0MTIwMjM0WjBnMQsw
CQYDVQQGEwJOTzESMBAGA1UECgwJTml0cGlja3N5MSgwJgYDVQQLDB9OaXRwaWNr
c3kgQ2VydGlmaWNhdGUgQXV0aG9yaXR5MRowGAYDVQQDDBFOaXRwaWNrc3kgUm9v
dCBDQTCCAiIwDQYJKoZIhvcNAQEBBQADggIPADCCAgoCggIBAMjkrD8bJoafir+l
1HopITxKutayGIqLxzX6ydlCjJeDR7jFuQ5Rlbq1Zi2pt3RPoftp+JhLtqG53Cnq
c8fTjidAUo3ubnG6p9URCqRM0Mp/5gXQ9tyfVvzrKLIYOKVyPvnis+HkM6+7YPaz
Fbr1oxECfN69od2h07LQoX80BwHsL3WBKulOF0LKuT5TRLSCPFleRhl6rMgdEGsa
9DoO+aRg6P+2isIf53+50+jt6Su1MpbTNjLLTCRawxr5aNoJFS+vBzUTKhVQLVCy
JCUNCGR5XVFV39LpuYAjaYsKcVJDLlKAhwHYSKvzko4e+C/6rwaI8xvPR4Bjdzp+
f09KHtvIwF2Yp1LGdBUvWrxlJzUG3m26F1Voeee6xlhVjfiO0V1ru6BW0+z8BpUf
36cR6/HCOHXvB0W1R7ncqG0h5QIpcSY185ghU52npcDj4thfbEZ0LgQWAtFbwIEv
pOz9GYgYf51rcBUhM0NPbx1ETCiBVIbrsPSl3BHRfT6K3s4kVeFo92H/wjLiDtB3
rGUd9hc8yImu2qJto47+tjy+KMOL8CAJENDAM1FIixTofuv2nPue48Z0HzGrCp2D
q95/l9RD6ycuhaCK/Axg109HPWRTu5lzdjo6Ky9g7VR8GKfbCyCmWdSnGk6TTlYz
LIA+t067M0T+KUYWbSV1/RKr3nZFAgMBAAGjYzBhMA4GA1UdDwEB/wQEAwIBBjAP
BgNVHRMBAf8EBTADAQH/MB0GA1UdDgQWBBSrd45RGfSYY7vZHJX3SnYSY1mekTAf
BgNVHSMEGDAWgBSrd45RGfSYY7vZHJX3SnYSY1mekTANBgkqhkiG9w0BAQsFAAOC
AgEARAYn22yuNYneDWjfmBJcPHnAnqDgnKEwBDyQEao8rQZoqwyX8mR57iwtGXSI
1y8vAPSA0YAhrEjuEWrxdQzIbrNPyT7E/32XP2buktbwY+QnRC+gcZ3AYKyH4x2g
gIUfiPctMg4FqTb2Ug/eM6yCCy/rTr2GnRJZ78TVX8ji77zl65JudyjdBWThOcMC
VLmyybYQbGTARYU32ppZx3h2fNV0a408ajtSmb1Nch6bgHKohifxs6JIwj8Pu321
Bfw2tyq4Q268y04WMD9BYZ/68mqAEVczm5QAoA29/1D8jfxpIoemIQRCItKNyIR6
xGndXsO8hxB7hRuXvEzSp8xxFR9Judnfm86exJu8ra5hls3OeQeRizBQYaeKIuQm
O2gAQ4aJNto02IaOEUXuvPxVU1TwEs10hYcZ7cPsTnnxtwjNkGM91RCkFzTgjiUE
AHmU2bKzMWM5wy/4a1AoSeaAghnIxy3sDJbVekW7Jg9cADlD84Y5CACeWP/slb1W
seIWqR8kp7MFjU0T+/fLJ8+l2enU4voFBpdsPcT66LWIsxYDzUgBpeWiD+XZSAXR
5UorLTGsXXuQGh2sYJOSXtGxIPXxSALjbdCm2NoK34xldfia7W/3wt0rAUff99Hr
7YLx4GpaCIrN4PMXiA1SsXJBSsymSFAxa134BQqa3nMsfC0=
-----END CERTIFICATE-----
