Certificate:
    Data:
        Version: 3 (0x2)
        Serial Number:
            70:53:e3:3d:d3:5d:c4:65:07:e3:86:23:1c:fb:ca:c8:1f:40:71:3b
        Signature Algorithm: sha256WithRSAEncryption
        Issuer: C=NO, O=Nitpicksy, OU=Nitpicksy Certificate Authority, CN=Nitpicksy Root CA
        Validity
            Not Before: Dec  6 21:37:45 2020 GMT
            Not After : Dec  6 21:37:45 2030 GMT
        Subject: C=NO, O=Nitpicksy, OU=Nitpicksy Certificate Authority, CN=Nitpicksy Root CA
        Subject Public Key Info:
            Public Key Algorithm: rsaEncryption
                RSA Public-Key: (4096 bit)
                Modulus:
                    00:ae:37:7b:5c:b1:c4:98:c8:05:fc:10:c2:8d:2f:
                    60:f3:3f:03:94:e9:75:5c:f7:7d:39:ac:83:1b:d1:
                    a4:a5:5f:22:dc:cf:b8:67:67:69:de:48:bf:c6:09:
                    56:3d:11:2e:33:4d:99:cb:6a:2a:44:49:48:89:40:
                    01:b8:7b:0b:bf:3c:60:97:80:01:86:b8:3b:63:1c:
                    09:21:54:4b:aa:2f:94:35:16:0a:32:a7:90:68:4f:
                    32:a3:0d:af:fd:24:9d:e7:30:de:28:bf:64:62:8b:
                    bd:8d:e4:15:4d:64:1e:15:07:b3:bf:37:96:34:3c:
                    02:ba:d9:d3:a6:0c:da:1d:84:b3:9e:1d:99:97:b0:
                    29:40:cc:f1:db:2f:a0:f3:3c:69:23:e9:a6:07:50:
                    84:40:02:fd:08:25:94:b0:1e:71:54:a1:fa:16:16:
                    9a:c6:1c:eb:80:51:a0:a0:fb:0c:c7:bb:e2:ae:dc:
                    9f:ab:f0:e2:31:70:ca:b3:5e:e5:32:e0:a3:ad:0c:
                    fd:9e:36:6a:7e:11:57:e5:d7:ce:3b:dd:e6:a1:72:
                    7c:0c:06:d6:64:df:82:d2:18:1d:17:af:1d:83:dd:
                    11:29:20:44:c5:09:3e:7f:90:cf:ea:7b:a3:8e:ef:
                    ab:3a:be:a8:fb:1d:e6:77:cc:2e:c8:15:e0:af:c9:
                    eb:e7:55:64:69:95:05:ea:2c:0a:41:8a:fd:50:61:
                    36:70:da:69:7c:2a:49:57:9c:2a:a7:a4:ea:34:7d:
                    56:7b:fe:6b:2b:15:e7:b1:26:ce:33:df:58:4e:1f:
                    08:58:83:8d:d4:a1:80:13:94:a0:e4:e4:03:81:a9:
                    c7:f3:2c:2d:98:8f:37:c1:dd:09:1a:8f:3a:52:ff:
                    0a:15:f5:ec:82:8b:e3:00:38:86:69:e2:84:f5:60:
                    ac:9d:54:ab:05:e6:09:1e:21:6c:5e:c9:ee:2c:27:
                    1b:1b:f4:b7:8d:94:65:fd:5e:d6:8b:e8:88:71:b7:
                    b8:3f:d6:b5:58:0e:ae:57:6b:e5:6d:c0:a0:b3:2e:
                    0f:36:b8:ad:fb:f1:88:cb:bd:7a:29:aa:1c:88:99:
                    bc:a3:8f:3d:31:8f:c8:42:4f:57:da:d4:ff:66:52:
                    26:68:6b:61:d1:04:b7:ab:01:26:f3:48:b7:62:db:
                    9b:ca:dc:82:fd:ab:ee:ef:df:96:79:1a:71:3f:d5:
                    89:3f:37:89:66:65:dd:b6:3c:e0:30:e0:d9:1b:a1:
                    ab:47:6e:6d:16:83:c5:08:bb:78:a8:dc:98:b7:81:
                    98:f0:5e:63:cc:10:47:34:e9:c8:bc:6c:f4:9f:39:
                    09:ed:e5:0c:cc:b8:85:85:7a:8a:7e:2a:42:16:a1:
                    24:3a:35
                Exponent: 65537 (0x10001)
        X509v3 extensions:
            X509v3 Key Usage: critical
                Certificate Sign, CRL Sign
            X509v3 Basic Constraints: critical
                CA:TRUE
            X509v3 Subject Key Identifier: 
                4D:85:54:8E:73:03:66:8D:0E:08:28:B9:6C:0F:0D:47:FA:26:E3:99
            X509v3 Authority Key Identifier: 
                keyid:4D:85:54:8E:73:03:66:8D:0E:08:28:B9:6C:0F:0D:47:FA:26:E3:99

    Signature Algorithm: sha256WithRSAEncryption
         21:4c:d9:3b:69:cc:b1:20:a6:59:1c:bf:ac:4d:7f:79:ef:f4:
         46:ac:13:21:51:69:14:05:90:89:68:d8:0c:c2:17:9c:55:db:
         68:57:3c:a6:0e:ae:1b:5b:33:95:73:73:43:14:d0:1a:9a:33:
         1b:26:e7:8c:ed:a3:f7:89:21:77:c4:2c:b6:d4:17:b6:bd:b3:
         3d:5c:2d:cb:a4:38:cc:2d:91:d7:7c:79:2d:c4:28:ca:6b:a1:
         2b:3b:e3:1e:0c:d1:b5:90:e1:6c:f8:02:e5:7a:33:36:be:a8:
         ba:ff:ae:2e:6c:23:15:a9:10:57:23:ec:a2:72:72:c0:4c:87:
         df:b2:9c:99:df:b7:90:cb:08:cf:ff:93:c0:1a:87:1a:0d:df:
         ab:db:36:64:14:96:b1:21:2a:9e:95:c5:6a:e1:83:68:01:e8:
         a3:dc:52:74:84:17:b1:a8:a4:ae:31:72:11:a9:9b:67:cc:88:
         39:ce:0d:dc:6c:69:df:7a:07:22:71:81:81:93:1b:4b:d7:cf:
         dd:40:6f:52:5c:63:08:9a:01:07:10:6a:c9:d5:42:98:c4:16:
         84:cb:42:68:2d:43:03:a1:66:5d:73:84:ce:a8:03:52:ba:31:
         66:6b:93:04:fe:51:a2:93:3a:c4:0b:4d:cf:24:6d:b4:e1:8d:
         aa:14:25:26:e9:0d:51:56:64:a4:a5:68:46:30:e1:12:60:8b:
         55:f6:be:b8:e5:c3:d9:10:a3:23:e6:3a:8a:88:0b:cf:28:f5:
         4b:44:8d:fd:d5:80:da:84:72:19:1e:0e:1d:fd:f2:94:e9:e6:
         7b:b2:83:df:89:5a:f5:45:42:17:fb:39:ec:7d:26:d4:a8:55:
         d9:3c:e7:7f:0c:4a:36:4e:b5:cf:74:c0:7c:48:61:e6:79:2b:
         77:17:06:4a:a4:cf:e3:93:c1:6b:2e:e7:a8:4f:bd:7f:9f:78:
         59:2d:d4:03:8f:c4:2c:fb:97:a3:4a:24:79:b4:bc:7f:f9:bc:
         e0:90:de:23:f1:b8:46:ff:14:09:87:66:df:df:79:15:d6:af:
         6d:ce:09:15:0f:9a:04:1b:c3:1a:09:aa:5b:7e:d7:2b:7a:2f:
         b4:8a:e4:18:dd:59:fb:1c:b4:c7:e7:cc:7a:65:89:9b:8c:19:
         9e:46:06:a1:c1:1a:dc:82:69:32:0f:25:e9:80:d7:80:79:36:
         e4:a9:17:64:ea:b6:9d:75:10:7b:e4:bb:8a:8c:86:51:c6:dc:
         0d:e7:f7:d2:4c:7a:b2:53:36:cc:d1:19:7f:21:34:00:1a:19:
         3f:5a:ef:fb:b8:e1:e5:5e:d5:ce:c2:e7:dc:c9:66:bd:8f:91:
         70:eb:3f:03:81:03:01:0a
-----BEGIN CERTIFICATE-----
MIIFvzCCA6egAwIBAgIUcFPjPdNdxGUH44YjHPvKyB9AcTswDQYJKoZIhvcNAQEL
BQAwZzELMAkGA1UEBhMCTk8xEjAQBgNVBAoMCU5pdHBpY2tzeTEoMCYGA1UECwwf
Tml0cGlja3N5IENlcnRpZmljYXRlIEF1dGhvcml0eTEaMBgGA1UEAwwRTml0cGlj
a3N5IFJvb3QgQ0EwHhcNMjAxMjA2MjEzNzQ1WhcNMzAxMjA2MjEzNzQ1WjBnMQsw
CQYDVQQGEwJOTzESMBAGA1UECgwJTml0cGlja3N5MSgwJgYDVQQLDB9OaXRwaWNr
c3kgQ2VydGlmaWNhdGUgQXV0aG9yaXR5MRowGAYDVQQDDBFOaXRwaWNrc3kgUm9v
dCBDQTCCAiIwDQYJKoZIhvcNAQEBBQADggIPADCCAgoCggIBAK43e1yxxJjIBfwQ
wo0vYPM/A5TpdVz3fTmsgxvRpKVfItzPuGdnad5Iv8YJVj0RLjNNmctqKkRJSIlA
Abh7C788YJeAAYa4O2McCSFUS6ovlDUWCjKnkGhPMqMNr/0knecw3ii/ZGKLvY3k
FU1kHhUHs783ljQ8ArrZ06YM2h2Es54dmZewKUDM8dsvoPM8aSPppgdQhEAC/Qgl
lLAecVSh+hYWmsYc64BRoKD7DMe74q7cn6vw4jFwyrNe5TLgo60M/Z42an4RV+XX
zjvd5qFyfAwG1mTfgtIYHRevHYPdESkgRMUJPn+Qz+p7o47vqzq+qPsd5nfMLsgV
4K/J6+dVZGmVBeosCkGK/VBhNnDaaXwqSVecKqek6jR9Vnv+aysV57EmzjPfWE4f
CFiDjdShgBOUoOTkA4Gpx/MsLZiPN8HdCRqPOlL/ChX17IKL4wA4hmnihPVgrJ1U
qwXmCR4hbF7J7iwnGxv0t42UZf1e1ovoiHG3uD/WtVgOrldr5W3AoLMuDza4rfvx
iMu9eimqHIiZvKOPPTGPyEJPV9rU/2ZSJmhrYdEEt6sBJvNIt2Lbm8rcgv2r7u/f
lnkacT/ViT83iWZl3bY84DDg2Ruhq0dubRaDxQi7eKjcmLeBmPBeY8wQRzTpyLxs
9J85Ce3lDMy4hYV6in4qQhahJDo1AgMBAAGjYzBhMA4GA1UdDwEB/wQEAwIBBjAP
BgNVHRMBAf8EBTADAQH/MB0GA1UdDgQWBBRNhVSOcwNmjQ4IKLlsDw1H+ibjmTAf
BgNVHSMEGDAWgBRNhVSOcwNmjQ4IKLlsDw1H+ibjmTANBgkqhkiG9w0BAQsFAAOC
AgEAIUzZO2nMsSCmWRy/rE1/ee/0RqwTIVFpFAWQiWjYDMIXnFXbaFc8pg6uG1sz
lXNzQxTQGpozGybnjO2j94khd8QsttQXtr2zPVwty6Q4zC2R13x5LcQoymuhKzvj
HgzRtZDhbPgC5XozNr6ouv+uLmwjFakQVyPsonJywEyH37Kcmd+3kMsIz/+TwBqH
Gg3fq9s2ZBSWsSEqnpXFauGDaAHoo9xSdIQXsaikrjFyEambZ8yIOc4N3Gxp33oH
InGBgZMbS9fP3UBvUlxjCJoBBxBqydVCmMQWhMtCaC1DA6FmXXOEzqgDUroxZmuT
BP5RopM6xAtNzyRttOGNqhQlJukNUVZkpKVoRjDhEmCLVfa+uOXD2RCjI+Y6iogL
zyj1S0SN/dWA2oRyGR4OHf3ylOnme7KD34la9UVCF/s57H0m1KhV2TznfwxKNk61
z3TAfEhh5nkrdxcGSqTP45PBay7nqE+9f594WS3UA4/ELPuXo0okebS8f/m84JDe
I/G4Rv8UCYdm3995Fdavbc4JFQ+aBBvDGgmqW37XK3ovtIrkGN1Z+xy0x+fMemWJ
m4wZnkYGocEa3IJpMg8l6YDXgHk25KkXZOq2nXUQe+S7ioyGUcbcDef30kx6slM2
zNEZfyE0ABoZP1rv+7jh5V7VzsLn3MlmvY+RcOs/A4EDAQo=
-----END CERTIFICATE-----
