Certificate:
    Data:
        Version: 3 (0x2)
        Serial Number:
            33:63:b4:db:25:09:ed:82:f9:70:4b:46:0d:08:8b:14:37:2b:41:b5
        Signature Algorithm: sha256WithRSAEncryption
        Issuer: C=NO, O=Nitpicksy, OU=Nitpicksy Certificate Authority, CN=Nitpicksy TLS CA
        Validity
            Not Before: Dec 11 12:46:29 2020 GMT
            Not After : Dec 11 12:46:29 2022 GMT
        Subject: C=NO, O=Nitpicksy, OU=Nitpicksy Certificate Authority, CN=Literary Society
        Subject Public Key Info:
            Public Key Algorithm: rsaEncryption
                RSA Public-Key: (4096 bit)
                Modulus:
                    00:f4:41:07:30:c6:15:a0:61:a7:cd:74:0c:f0:bf:
                    b9:a9:61:86:49:d9:31:21:b2:ec:2a:0a:3c:7e:5e:
                    1b:6e:f9:69:3b:eb:fd:cd:b4:2f:65:19:88:ca:30:
                    6e:65:0c:c1:46:13:32:74:8a:06:f8:f8:52:35:eb:
                    ac:a1:af:20:03:db:8e:ef:47:a4:4f:ad:47:fe:a1:
                    b8:62:bc:fd:c6:dc:d0:ae:5d:2f:9f:31:27:ae:fa:
                    34:d1:2a:bc:7d:53:2f:54:cb:4b:04:2c:d2:4e:55:
                    80:fd:25:dc:88:8c:5c:26:cf:ea:b9:2d:e3:4f:23:
                    2d:91:5c:cd:8f:97:85:75:26:83:8d:3d:19:9e:c2:
                    80:2c:38:91:e7:4a:4d:8a:f8:58:c2:55:00:75:55:
                    0b:5b:2f:bb:c6:09:32:d8:c6:f9:fd:e3:ad:60:93:
                    9a:cf:8b:87:44:fe:65:81:14:1f:b0:b3:4f:ba:72:
                    31:a1:04:fb:5d:75:ac:7f:15:6f:20:09:36:37:49:
                    d3:f5:06:fc:b0:32:cc:c1:cd:ed:b5:19:97:96:98:
                    89:b1:15:48:eb:60:9b:84:69:1f:94:43:e1:2d:c4:
                    c9:4b:56:47:d7:79:91:24:7a:c9:60:5a:b4:25:37:
                    9d:47:29:c9:8a:9a:e7:ae:14:3d:d0:58:fe:da:62:
                    10:e1:ab:39:41:f1:76:dc:f4:e6:62:39:83:2c:ff:
                    af:8e:da:9e:72:49:7a:c5:78:88:6c:47:ba:c3:e7:
                    8e:cf:e9:47:58:ca:20:84:83:17:7c:36:d1:a3:e6:
                    3f:7c:92:c8:9c:9b:e9:d6:ce:b8:62:b7:d3:8f:3d:
                    24:09:08:07:34:fe:78:7d:03:30:4a:da:06:ea:94:
                    1c:48:6c:c7:12:f3:f1:75:50:85:05:17:b0:d0:f2:
                    20:83:9c:43:35:75:0c:b8:96:ed:16:13:52:5f:46:
                    4f:0d:5b:f9:0e:fb:bb:f7:e4:eb:3b:23:84:7c:b0:
                    96:c8:87:bc:46:33:41:06:7d:e2:ff:f9:85:05:b3:
                    51:b6:1c:a4:8d:63:bf:a2:c9:d4:6a:0a:32:67:8b:
                    e5:43:fc:67:36:4d:41:0b:cd:cd:d7:6a:b7:2b:f0:
                    59:18:53:c2:8c:ee:67:d8:90:ff:1a:fa:d2:48:0c:
                    e2:b1:2a:61:7a:62:c6:43:22:a3:dd:dd:f3:80:05:
                    71:d0:e9:50:14:33:63:d6:37:70:c3:d7:b8:de:02:
                    71:d4:65:ef:79:f3:81:60:dc:a3:84:15:22:7b:27:
                    2d:57:e5:91:63:b5:01:c1:c8:50:8c:32:5c:50:14:
                    6f:11:46:d2:cb:44:3d:a2:ca:24:f3:be:a5:f1:ff:
                    37:3d:0b
                Exponent: 65537 (0x10001)
        X509v3 extensions:
            X509v3 Key Usage: critical
                Digital Signature, Key Encipherment
            X509v3 Basic Constraints: 
                CA:FALSE
            X509v3 Extended Key Usage: 
                TLS Web Server Authentication, TLS Web Client Authentication
            X509v3 Subject Key Identifier: 
                C7:95:5B:B8:39:BF:12:2A:B9:F2:C3:E8:97:7A:15:CB:DD:C5:19:97
            X509v3 Authority Key Identifier: 
                keyid:24:68:40:4E:50:44:54:B5:B5:5E:0D:17:4E:96:BB:DA:DB:15:E4:B6

            Authority Information Access: 
                CA Issuers - URI:http://nitpicksy.no/ca/tls-ca.cer

            X509v3 CRL Distribution Points: 

                Full Name:
                  URI:http://nitpicksy.no/ca/tls-ca.crl

            X509v3 Subject Alternative Name: 
                DNS:nitpicksy.no, DNS:www.nitpicksy.no, DNS:localhost, IP Address:127.0.0.1, IP Address:192.168.64.169
    Signature Algorithm: sha256WithRSAEncryption
         45:60:55:aa:92:80:ec:7a:ea:7f:4d:bd:d2:fb:e0:a0:6d:b9:
         5e:f8:1e:b5:3b:fe:28:fe:d3:ee:82:33:f8:b8:b3:b0:6d:41:
         40:8e:7b:f9:f7:c2:0b:99:05:b6:eb:a6:b2:83:35:c8:d4:30:
         74:3f:c5:03:71:58:53:e4:28:38:10:f3:0e:c0:b4:8a:95:dd:
         dd:00:f5:ff:be:9d:9e:ef:13:fd:6d:62:c3:0e:b7:08:f9:e0:
         23:b7:3f:a3:cc:7c:0c:b3:26:5d:85:b9:76:80:b3:f6:c2:3d:
         25:b8:4c:8b:a0:07:6e:1b:c0:a6:39:d0:92:d1:87:9c:82:2e:
         a1:5d:12:2c:aa:8a:63:62:18:1b:d8:87:d7:2a:55:46:93:73:
         42:40:90:3c:d8:3f:7a:f2:83:40:84:43:ba:b8:8c:83:68:64:
         2f:37:5c:19:f1:e8:2e:0a:1f:88:83:af:92:04:c3:bd:ef:59:
         3b:00:ed:4a:15:19:67:24:74:9e:e1:af:fb:85:9e:22:1d:0d:
         14:9f:37:ab:80:f7:d5:8d:c5:29:1c:21:1e:fe:2b:4a:1d:6e:
         11:cb:6f:bd:e5:2c:1e:71:b2:b9:16:d7:4e:cb:52:a6:ac:8b:
         e4:74:1a:47:e9:53:3e:7d:05:a7:90:b4:f6:4d:57:fd:fa:d3:
         e1:8a:05:76:fc:67:df:78:0e:f1:3d:ab:7c:c3:d7:50:b6:5e:
         6e:38:50:13:f1:3c:fb:20:f2:ec:71:9c:2f:c7:ae:74:0f:8b:
         bf:b8:a9:a0:77:a1:0e:71:d3:ab:35:dd:c2:1a:e2:d3:9e:6a:
         25:db:70:1c:d8:b3:fc:d2:64:78:1c:18:7c:30:33:38:33:a2:
         20:76:0d:54:76:a8:01:66:70:9a:f3:5c:30:04:eb:39:02:b2:
         c3:42:fa:c3:09:dd:07:0f:88:14:43:30:32:b5:00:cf:5e:c9:
         23:12:a3:3d:0e:72:c1:cc:7f:cb:4e:9d:02:05:42:15:38:ce:
         78:ed:ca:c3:7e:78:21:4e:69:98:f7:86:c7:03:0b:54:86:3b:
         ae:ee:3a:bf:10:d9:f3:72:a1:16:d8:03:44:05:9f:83:3a:61:
         5f:c0:66:26:27:f3:7a:da:6f:b7:6e:fe:8c:65:4c:6d:a9:e9:
         f2:f7:92:2b:20:3c:58:04:eb:6d:9f:32:a5:a5:88:0a:52:32:
         ac:b2:d3:97:fb:77:06:a2:40:79:32:77:86:a7:5e:1d:86:ad:
         ff:1d:7a:99:b0:74:11:1b:c6:75:f9:1d:fb:64:fb:cd:b8:40:
         40:d1:45:b7:c7:6d:28:ff:30:69:e1:5d:c5:d4:c5:a1:1f:c3:
         c2:f8:f2:de:b4:fb:77:11
-----BEGIN CERTIFICATE-----
MIIGjzCCBHegAwIBAgIUM2O02yUJ7YL5cEtGDQiLFDcrQbUwDQYJKoZIhvcNAQEL
BQAwZjELMAkGA1UEBhMCTk8xEjAQBgNVBAoMCU5pdHBpY2tzeTEoMCYGA1UECwwf
Tml0cGlja3N5IENlcnRpZmljYXRlIEF1dGhvcml0eTEZMBcGA1UEAwwQTml0cGlj
a3N5IFRMUyBDQTAeFw0yMDEyMTExMjQ2MjlaFw0yMjEyMTExMjQ2MjlaMGYxCzAJ
BgNVBAYTAk5PMRIwEAYDVQQKDAlOaXRwaWNrc3kxKDAmBgNVBAsMH05pdHBpY2tz
eSBDZXJ0aWZpY2F0ZSBBdXRob3JpdHkxGTAXBgNVBAMMEExpdGVyYXJ5IFNvY2ll
dHkwggIiMA0GCSqGSIb3DQEBAQUAA4ICDwAwggIKAoICAQD0QQcwxhWgYafNdAzw
v7mpYYZJ2TEhsuwqCjx+Xhtu+Wk76/3NtC9lGYjKMG5lDMFGEzJ0igb4+FI166yh
ryAD247vR6RPrUf+obhivP3G3NCuXS+fMSeu+jTRKrx9Uy9Uy0sELNJOVYD9JdyI
jFwmz+q5LeNPIy2RXM2Pl4V1JoONPRmewoAsOJHnSk2K+FjCVQB1VQtbL7vGCTLY
xvn9461gk5rPi4dE/mWBFB+ws0+6cjGhBPtddax/FW8gCTY3SdP1BvywMszBze21
GZeWmImxFUjrYJuEaR+UQ+EtxMlLVkfXeZEkeslgWrQlN51HKcmKmueuFD3QWP7a
YhDhqzlB8Xbc9OZiOYMs/6+O2p5ySXrFeIhsR7rD547P6UdYyiCEgxd8NtGj5j98
ksicm+nWzrhit9OPPSQJCAc0/nh9AzBK2gbqlBxIbMcS8/F1UIUFF7DQ8iCDnEM1
dQy4lu0WE1JfRk8NW/kO+7v35Os7I4R8sJbIh7xGM0EGfeL/+YUFs1G2HKSNY7+i
ydRqCjJni+VD/Gc2TUELzc3Xarcr8FkYU8KM7mfYkP8a+tJIDOKxKmF6YsZDIqPd
3fOABXHQ6VAUM2PWN3DD17jeAnHUZe9584Fg3KOEFSJ7Jy1X5ZFjtQHByFCMMlxQ
FG8RRtLLRD2iyiTzvqXx/zc9CwIDAQABo4IBMzCCAS8wDgYDVR0PAQH/BAQDAgWg
MAkGA1UdEwQCMAAwHQYDVR0lBBYwFAYIKwYBBQUHAwEGCCsGAQUFBwMCMB0GA1Ud
DgQWBBTHlVu4Ob8SKrnyw+iXehXL3cUZlzAfBgNVHSMEGDAWgBQkaEBOUERUtbVe
DRdOlrva2xXktjA9BggrBgEFBQcBAQQxMC8wLQYIKwYBBQUHMAKGIWh0dHA6Ly9u
aXRwaWNrc3kubm8vY2EvdGxzLWNhLmNlcjAyBgNVHR8EKzApMCegJaAjhiFodHRw
Oi8vbml0cGlja3N5Lm5vL2NhL3Rscy1jYS5jcmwwQAYDVR0RBDkwN4IMbml0cGlj
a3N5Lm5vghB3d3cubml0cGlja3N5Lm5vgglsb2NhbGhvc3SHBH8AAAGHBMCoQKkw
DQYJKoZIhvcNAQELBQADggIBAEVgVaqSgOx66n9NvdL74KBtuV74HrU7/ij+0+6C
M/i4s7BtQUCOe/n3wguZBbbrprKDNcjUMHQ/xQNxWFPkKDgQ8w7AtIqV3d0A9f++
nZ7vE/1tYsMOtwj54CO3P6PMfAyzJl2FuXaAs/bCPSW4TIugB24bwKY50JLRh5yC
LqFdEiyqimNiGBvYh9cqVUaTc0JAkDzYP3ryg0CEQ7q4jINoZC83XBnx6C4KH4iD
r5IEw73vWTsA7UoVGWckdJ7hr/uFniIdDRSfN6uA99WNxSkcIR7+K0odbhHLb73l
LB5xsrkW107LUqasi+R0GkfpUz59BaeQtPZNV/360+GKBXb8Z994DvE9q3zD11C2
Xm44UBPxPPsg8uxxnC/HrnQPi7+4qaB3oQ5x06s13cIa4tOeaiXbcBzYs/zSZHgc
GHwwMzgzoiB2DVR2qAFmcJrzXDAE6zkCssNC+sMJ3QcPiBRDMDK1AM9eySMSoz0O
csHMf8tOnQIFQhU4znjtysN+eCFOaZj3hscDC1SGO67uOr8Q2fNyoRbYA0QFn4M6
YV/AZiYn83rab7du/oxlTG2p6fL3kisgPFgE622fMqWliApSMqyy05f7dwaiQHky
d4anXh2Grf8depmwdBEbxnX5Hftk+824QEDRRbfHbSj/MGnhXcXUxaEfw8L48t60
+3cR
-----END CERTIFICATE-----
