Certificate:
    Data:
        Version: 3 (0x2)
        Serial Number:
            19:ee:16:aa:c3:62:41:6b:9c:ff:a3:36:36:cf:ac:45:91:72:6a:f4
        Signature Algorithm: sha256WithRSAEncryption
        Issuer: C=NO, O=Nitpicksy, OU=Nitpicksy Certificate Authority, CN=Nitpicksy TLS CA
        Validity
            Not Before: Dec  6 22:39:36 2020 GMT
            Not After : Dec  6 22:39:36 2022 GMT
        Subject: C=NO, O=Nitpicksy, OU=Nitpicksy Certificate Authority, CN=Payment Gateway
        Subject Public Key Info:
            Public Key Algorithm: rsaEncryption
                RSA Public-Key: (4096 bit)
                Modulus:
                    00:f5:2c:ff:e1:5d:68:ac:c1:60:0d:19:bb:e0:1e:
                    52:57:84:32:e8:e6:0c:60:10:de:58:09:0e:6a:10:
                    b8:bb:39:db:95:58:3e:7d:4a:ce:f6:a7:38:84:b0:
                    f5:3a:95:d3:8c:7a:c2:71:12:59:ed:c5:c5:05:aa:
                    35:d1:f8:2b:da:f3:65:5c:c3:c2:56:85:7b:71:59:
                    1c:29:71:b9:ad:87:c9:2d:4e:be:c7:5d:e7:7d:7d:
                    a8:7d:0c:93:3e:ab:0a:f1:c8:92:44:9e:e7:97:df:
                    7b:2e:9e:40:98:6d:af:88:d0:bc:78:cf:48:fe:93:
                    e7:4a:06:d0:c5:6f:b9:52:85:f9:a1:fe:7a:98:0f:
                    8f:80:57:1f:35:c6:39:66:e7:f2:b0:f7:57:f2:bd:
                    ba:a8:84:4e:09:0f:68:92:97:c8:96:ad:45:2f:2d:
                    19:4c:22:1f:2b:99:91:71:6a:8a:29:92:f5:30:ef:
                    c8:d3:04:71:19:f8:33:bf:6f:b4:b6:d8:ee:c7:a2:
                    13:0c:05:84:6a:45:2f:3d:f4:66:b2:7f:d6:e4:91:
                    3e:b3:8d:77:0f:3c:11:b0:65:16:22:00:93:c5:e6:
                    c9:a7:9f:d4:a8:13:cf:17:9f:9b:a3:f4:4d:5f:0c:
                    48:8e:8b:ad:f8:27:d8:1a:15:df:15:03:87:8e:5b:
                    94:48:2b:8d:8a:63:59:8c:be:17:a0:55:dc:9c:42:
                    66:de:57:cb:f9:dc:4a:17:21:bb:4a:1b:4a:28:2e:
                    93:5c:47:82:b3:d5:81:33:14:8c:f3:20:d4:37:2f:
                    f1:35:be:51:6e:01:e1:b4:90:95:c9:3b:e6:55:c7:
                    cc:e0:d6:05:16:41:d7:ac:ec:42:e4:80:31:94:f3:
                    ca:a8:53:51:46:93:f6:7b:1c:b3:ce:bc:95:27:78:
                    74:43:a0:c7:f6:2b:c7:ec:b2:3f:57:63:f3:8c:26:
                    ca:36:c8:d6:99:32:d8:7d:2f:1b:19:0c:ef:0e:f8:
                    97:3e:4c:2f:e9:6f:aa:8b:bd:66:f8:d5:7e:31:7f:
                    7a:eb:8f:a5:e6:35:31:16:31:92:43:84:6d:35:b9:
                    06:1c:59:66:be:8d:9a:90:1b:3f:62:eb:83:7a:e6:
                    fc:63:2f:c2:d0:45:c1:af:77:12:b7:9d:ef:6a:4a:
                    64:b3:5d:b3:ff:63:44:c2:61:9e:ec:b4:0d:91:82:
                    f9:dc:1b:57:62:03:40:81:2b:7c:a9:12:39:71:67:
                    dc:55:9d:7d:2a:fd:67:c4:88:ad:21:09:7c:2d:a9:
                    82:de:a0:6f:00:ab:96:e7:1a:2f:00:a6:c5:2b:10:
                    84:89:9d:89:ac:0e:96:01:57:e5:fc:13:b1:99:d0:
                    35:4f:93
                Exponent: 65537 (0x10001)
        X509v3 extensions:
            X509v3 Key Usage: critical
                Digital Signature, Key Encipherment
            X509v3 Basic Constraints: 
                CA:FALSE
            X509v3 Extended Key Usage: 
                TLS Web Server Authentication, TLS Web Client Authentication
            X509v3 Subject Key Identifier: 
                BC:B2:CE:68:B7:FB:57:08:6D:E3:88:7D:A0:08:BB:E4:B0:30:BB:CC
            X509v3 Authority Key Identifier: 
                keyid:83:CC:02:D6:E0:31:A6:2D:8E:F8:85:43:99:55:48:F6:21:22:90:49

            Authority Information Access: 
                CA Issuers - URI:http://nitpicksy.no/ca/tls-ca.cer

            X509v3 CRL Distribution Points: 

                Full Name:
                  URI:http://nitpicksy.no/ca/tls-ca.crl

            X509v3 Subject Alternative Name: 
                DNS:nitpicksy.no, DNS:www.nitpicksy.no, DNS:localhost
    Signature Algorithm: sha256WithRSAEncryption
         4a:c5:c7:b4:ee:9b:a7:b1:d0:ca:f0:4b:ef:f8:24:54:80:d0:
         0c:40:38:65:c4:71:78:7a:c2:07:dd:11:43:39:31:97:d1:a6:
         16:ed:fe:3d:5d:9e:c5:fa:43:eb:08:03:7a:f0:84:23:f0:4c:
         d3:74:ae:2f:1a:e3:dc:dc:cb:71:c8:fc:b6:ad:98:9b:fc:e7:
         2e:0d:3f:2b:82:1d:38:c2:1f:a4:3b:1f:6d:3d:dc:a7:12:16:
         21:f1:df:b2:fd:f0:7a:03:0e:06:44:44:4a:a7:1f:a5:02:53:
         00:f7:b4:70:22:f0:e7:d6:b9:60:5d:76:47:77:59:7f:47:75:
         f2:c2:25:16:be:2a:ec:bc:96:d5:3a:35:a3:d8:3f:7f:7d:24:
         f5:fc:4a:4e:40:dd:97:31:f4:83:8f:e1:4d:68:78:74:6a:a0:
         3b:98:c9:06:1a:8d:3d:9d:13:f6:9a:f6:cd:94:aa:b1:2d:25:
         78:89:6b:5c:11:bf:bb:a4:aa:28:cf:58:a5:fa:d2:1d:f9:00:
         79:ef:93:c1:74:99:d9:d8:6b:e0:73:ae:3b:e7:9d:6a:38:b3:
         bd:6d:bd:da:89:0b:01:c8:8f:94:dd:ee:dd:75:dc:ae:d4:72:
         a1:36:8c:22:b8:0a:28:45:43:fe:3e:2a:d7:39:0e:b7:7a:a4:
         56:b6:86:d0:b5:3d:83:fb:40:3b:0d:ee:eb:91:05:65:b3:76:
         99:d9:3f:e8:3b:98:43:4a:bb:c2:73:2d:f2:dc:c9:00:d2:22:
         25:d1:ca:1c:5a:b6:a2:48:7c:67:83:56:40:a6:2c:ee:42:63:
         37:00:8d:07:51:5f:33:38:71:32:ab:d0:c5:52:d6:3e:4f:ca:
         70:fc:fc:9d:b0:f2:12:f2:bc:28:11:e6:33:53:fe:17:50:6e:
         da:7e:3e:10:14:e9:e9:d6:33:44:0b:ba:81:45:06:a2:8d:56:
         9e:36:51:d0:18:a9:00:66:7f:ae:04:50:e7:97:f1:ca:6e:6c:
         03:cd:9f:a4:ab:20:1b:c8:47:6d:89:9f:de:f8:a0:b0:fd:c7:
         e8:b6:34:87:68:91:c1:cc:e2:4a:f4:7d:f4:f5:5f:fc:c3:90:
         4d:5d:ed:3f:7e:68:e9:87:b6:19:4b:1a:37:c6:59:95:df:23:
         8d:a7:16:0f:9e:1a:cf:ed:4d:75:49:72:d8:69:df:ee:68:65:
         8f:f6:b9:45:1f:86:2a:07:bb:85:9e:c6:73:7b:1f:bd:47:9a:
         92:4a:9c:46:17:1a:5e:53:ca:16:e8:35:6c:53:7b:12:7a:af:
         8a:c3:01:d2:31:9e:8d:3d:e8:1f:83:fe:ce:e3:47:dc:23:4e:
         05:90:4a:55:85:28:0e:d3
-----BEGIN CERTIFICATE-----
MIIGgjCCBGqgAwIBAgIUGe4WqsNiQWuc/6M2Ns+sRZFyavQwDQYJKoZIhvcNAQEL
BQAwZjELMAkGA1UEBhMCTk8xEjAQBgNVBAoMCU5pdHBpY2tzeTEoMCYGA1UECwwf
Tml0cGlja3N5IENlcnRpZmljYXRlIEF1dGhvcml0eTEZMBcGA1UEAwwQTml0cGlj
a3N5IFRMUyBDQTAeFw0yMDEyMDYyMjM5MzZaFw0yMjEyMDYyMjM5MzZaMGUxCzAJ
BgNVBAYTAk5PMRIwEAYDVQQKDAlOaXRwaWNrc3kxKDAmBgNVBAsMH05pdHBpY2tz
eSBDZXJ0aWZpY2F0ZSBBdXRob3JpdHkxGDAWBgNVBAMMD1BheW1lbnQgR2F0ZXdh
eTCCAiIwDQYJKoZIhvcNAQEBBQADggIPADCCAgoCggIBAPUs/+FdaKzBYA0Zu+Ae
UleEMujmDGAQ3lgJDmoQuLs525VYPn1KzvanOISw9TqV04x6wnESWe3FxQWqNdH4
K9rzZVzDwlaFe3FZHClxua2HyS1Ovsdd5319qH0Mkz6rCvHIkkSe55ffey6eQJht
r4jQvHjPSP6T50oG0MVvuVKF+aH+epgPj4BXHzXGOWbn8rD3V/K9uqiETgkPaJKX
yJatRS8tGUwiHyuZkXFqiimS9TDvyNMEcRn4M79vtLbY7seiEwwFhGpFLz30ZrJ/
1uSRPrONdw88EbBlFiIAk8Xmyaef1KgTzxefm6P0TV8MSI6Lrfgn2BoV3xUDh45b
lEgrjYpjWYy+F6BV3JxCZt5Xy/ncShchu0obSiguk1xHgrPVgTMUjPMg1Dcv8TW+
UW4B4bSQlck75lXHzODWBRZB16zsQuSAMZTzyqhTUUaT9nscs868lSd4dEOgx/Yr
x+yyP1dj84wmyjbI1pky2H0vGxkM7w74lz5ML+lvqou9ZvjVfjF/euuPpeY1MRYx
kkOEbTW5BhxZZr6NmpAbP2Lrg3rm/GMvwtBFwa93Ered72pKZLNds/9jRMJhnuy0
DZGC+dwbV2IDQIErfKkSOXFn3FWdfSr9Z8SIrSEJfC2pgt6gbwCrlucaLwCmxSsQ
hImdiawOlgFX5fwTsZnQNU+TAgMBAAGjggEnMIIBIzAOBgNVHQ8BAf8EBAMCBaAw
CQYDVR0TBAIwADAdBgNVHSUEFjAUBggrBgEFBQcDAQYIKwYBBQUHAwIwHQYDVR0O
BBYEFLyyzmi3+1cIbeOIfaAIu+SwMLvMMB8GA1UdIwQYMBaAFIPMAtbgMaYtjviF
Q5lVSPYhIpBJMD0GCCsGAQUFBwEBBDEwLzAtBggrBgEFBQcwAoYhaHR0cDovL25p
dHBpY2tzeS5uby9jYS90bHMtY2EuY2VyMDIGA1UdHwQrMCkwJ6AloCOGIWh0dHA6
Ly9uaXRwaWNrc3kubm8vY2EvdGxzLWNhLmNybDA0BgNVHREELTArggxuaXRwaWNr
c3kubm+CEHd3dy5uaXRwaWNrc3kubm+CCWxvY2FsaG9zdDANBgkqhkiG9w0BAQsF
AAOCAgEASsXHtO6bp7HQyvBL7/gkVIDQDEA4ZcRxeHrCB90RQzkxl9GmFu3+PV2e
xfpD6wgDevCEI/BM03SuLxrj3NzLccj8tq2Ym/znLg0/K4IdOMIfpDsfbT3cpxIW
IfHfsv3wegMOBkRESqcfpQJTAPe0cCLw59a5YF12R3dZf0d18sIlFr4q7LyW1To1
o9g/f30k9fxKTkDdlzH0g4/hTWh4dGqgO5jJBhqNPZ0T9pr2zZSqsS0leIlrXBG/
u6SqKM9YpfrSHfkAee+TwXSZ2dhr4HOuO+edajizvW292okLAciPlN3u3XXcrtRy
oTaMIrgKKEVD/j4q1zkOt3qkVraG0LU9g/tAOw3u65EFZbN2mdk/6DuYQ0q7wnMt
8tzJANIiJdHKHFq2okh8Z4NWQKYs7kJjNwCNB1FfMzhxMqvQxVLWPk/KcPz8nbDy
EvK8KBHmM1P+F1Bu2n4+EBTp6dYzRAu6gUUGoo1WnjZR0BipAGZ/rgRQ55fxym5s
A82fpKsgG8hHbYmf3vigsP3H6LY0h2iRwcziSvR99PVf/MOQTV3tP35o6Ye2GUsa
N8ZZld8jjacWD54az+1NdUly2Gnf7mhlj/a5RR+GKge7hZ7Gc3sfvUeakkqcRhca
XlPKFug1bFN7EnqvisMB0jGejT3oH4P+zuNH3CNOBZBKVYUoDtM=
-----END CERTIFICATE-----
