Certificate:
    Data:
        Version: 3 (0x2)
        Serial Number:
            72:ab:21:2e:89:77:df:f1:b6:01:d5:be:85:62:74:0d:b3:a3:c5:d5
        Signature Algorithm: sha256WithRSAEncryption
        Issuer: C=NO, O=Nitpicksy, OU=Nitpicksy Certificate Authority, CN=Nitpicksy TLS CA
        Validity
            Not Before: Dec 11 12:46:30 2020 GMT
            Not After : Dec 11 12:46:30 2022 GMT
        Subject: C=NO, O=Nitpicksy, OU=Nitpicksy Certificate Authority, CN=Payment Gateway
        Subject Public Key Info:
            Public Key Algorithm: rsaEncryption
                RSA Public-Key: (4096 bit)
                Modulus:
                    00:d4:8a:33:ff:d8:f1:18:68:c0:bd:44:78:c6:26:
                    d2:32:b6:d1:69:c6:97:8e:fe:b2:5c:3a:b3:0f:dd:
                    a4:78:70:a2:bb:9d:54:82:56:5c:33:4a:59:52:ba:
                    0d:c8:ce:e2:4f:a0:79:47:e2:eb:34:26:42:ec:31:
                    e2:86:ff:9e:b5:ef:38:02:ff:19:9b:10:44:1a:ce:
                    81:49:c0:01:7f:c9:6a:76:0b:58:3d:b6:9e:82:53:
                    af:fc:31:ea:54:51:c0:9b:dc:cc:9c:a0:11:e6:8f:
                    ce:9b:f6:07:1d:73:eb:ed:df:3a:a6:0c:dd:60:c7:
                    f6:5b:c6:52:4c:e6:8c:64:ff:fb:81:50:03:9d:e3:
                    92:eb:b6:34:0d:0d:fc:74:94:9a:6b:60:e4:11:da:
                    a6:b5:b5:30:94:38:71:e3:52:91:9d:06:c7:c8:97:
                    2e:f3:78:e3:3e:a5:7f:a8:a1:79:2b:66:2b:01:d3:
                    58:aa:27:9a:c4:32:f0:d4:e6:af:2a:fd:63:ef:f9:
                    51:27:6e:e1:6e:96:b2:9a:89:3f:29:76:bc:26:64:
                    99:50:17:6f:7b:f0:e7:7d:d9:e8:18:af:a9:83:b6:
                    71:bd:ec:0f:09:2b:51:8d:5f:9e:58:3e:8d:1e:fd:
                    50:16:c6:5b:3b:83:71:8a:1c:6b:d6:98:3b:e3:e5:
                    85:d2:1d:69:ee:2e:5d:3d:e0:70:9c:85:4b:90:1b:
                    ef:6c:46:8d:f9:91:3b:10:78:6c:6a:6f:41:e9:7b:
                    9e:49:b4:02:e6:98:25:7c:da:c9:fe:d1:97:3b:29:
                    ff:9a:1c:40:c0:27:a9:d8:12:eb:20:eb:d3:59:e4:
                    a3:03:b7:d1:0d:a5:55:9a:6f:8a:f8:2c:57:3f:39:
                    61:5a:32:08:bf:e6:a6:6a:b3:5f:45:b0:36:10:9d:
                    a2:88:9a:86:00:cb:97:05:7d:a9:ed:d4:74:38:8a:
                    51:c0:20:44:a5:6e:d4:9f:99:69:fc:59:61:05:c3:
                    9c:58:4e:87:d4:11:04:15:94:ce:53:cc:cd:e3:0f:
                    68:b8:07:97:b5:11:48:ff:5c:db:48:39:e8:a7:7f:
                    e8:10:f9:a2:d4:40:52:3c:09:33:81:c9:50:87:46:
                    7a:8a:36:49:b5:0d:ec:04:91:96:19:17:8d:03:f0:
                    f2:45:d0:e6:64:fc:b3:83:98:42:2b:9b:16:73:bd:
                    c8:48:4f:20:7b:b5:b6:82:a7:aa:00:be:2b:49:d8:
                    52:54:7a:f2:43:c7:3f:7c:87:7d:bc:3b:34:84:78:
                    67:89:54:13:d2:5c:91:f9:07:83:e6:23:fe:67:32:
                    ad:49:50:7d:e8:22:93:68:c4:fe:a0:0d:44:92:de:
                    ec:ff:87
                Exponent: 65537 (0x10001)
        X509v3 extensions:
            X509v3 Key Usage: critical
                Digital Signature, Key Encipherment
            X509v3 Basic Constraints: 
                CA:FALSE
            X509v3 Extended Key Usage: 
                TLS Web Server Authentication, TLS Web Client Authentication
            X509v3 Subject Key Identifier: 
                F8:C5:CA:44:A9:FC:C1:F7:4B:49:8F:A1:78:34:51:D5:4F:5E:B0:E6
            X509v3 Authority Key Identifier: 
                keyid:24:68:40:4E:50:44:54:B5:B5:5E:0D:17:4E:96:BB:DA:DB:15:E4:B6

            Authority Information Access: 
                CA Issuers - URI:http://nitpicksy.no/ca/tls-ca.cer

            X509v3 CRL Distribution Points: 

                Full Name:
                  URI:http://nitpicksy.no/ca/tls-ca.crl

            X509v3 Subject Alternative Name: 
                DNS:nitpicksy.no, DNS:www.nitpicksy.no, DNS:localhost, IP Address:127.0.0.1, IP Address:192.168.64.169
    Signature Algorithm: sha256WithRSAEncryption
         97:c2:ab:1b:ab:26:2c:e3:fc:ca:5d:9b:60:31:39:2d:29:78:
         f6:46:a0:12:bb:b4:d7:7b:f2:bb:cc:18:5a:ee:ee:c7:f2:39:
         c5:36:e9:01:d5:a1:ca:e5:93:5f:81:90:3d:db:75:58:57:89:
         4a:29:e6:6c:3c:94:c9:cb:e6:48:c5:49:7a:f1:a0:cc:a4:f3:
         c6:1e:f3:2c:96:7d:22:d1:57:d0:69:70:6e:d6:87:c6:ef:fb:
         a1:1e:fc:49:df:06:5c:8f:1a:45:74:93:56:44:4f:10:74:62:
         22:cc:99:6a:d4:75:2d:b1:4b:8b:9c:0a:00:87:93:23:6c:0c:
         d5:63:0f:80:8c:c7:c1:f1:4e:9d:ce:1d:03:fd:9c:27:8e:f3:
         14:da:0f:f0:e6:13:82:de:f1:db:4c:ef:1d:9d:e2:94:a1:91:
         e0:1f:50:8d:01:07:08:86:39:06:b3:be:cc:e9:16:fb:11:cf:
         4f:7a:c6:75:ac:a3:03:ea:b9:e5:ba:76:75:8b:84:8e:1e:4c:
         fd:d2:99:be:a2:f4:43:be:7a:b7:85:d0:f1:4c:ce:b5:a4:45:
         2a:69:e3:06:75:f6:b0:16:9b:54:de:aa:c6:0b:dd:c5:63:4f:
         30:7a:08:a5:d1:8a:ea:8f:22:b2:27:21:99:71:55:f0:b1:a5:
         61:cb:78:5e:d1:dd:96:14:4f:44:f3:80:2c:f7:e1:98:66:64:
         6f:08:09:29:5a:20:94:70:07:fe:06:b9:fb:c3:8f:0c:fa:06:
         50:2c:a7:b1:67:66:79:fd:2e:6b:11:ab:69:b2:b8:59:9e:97:
         06:fc:07:f6:6f:80:6d:76:07:d5:93:fa:7b:0f:7a:28:aa:8c:
         0b:49:76:51:1c:cf:f1:ec:9a:78:2a:df:d9:8d:6f:d3:fa:d2:
         7e:cd:f8:37:59:2a:12:38:0a:b6:6f:48:c2:8d:93:37:19:80:
         b1:e6:6d:66:ac:31:b7:64:b8:a7:61:35:31:c2:e9:f6:3d:e9:
         75:70:40:74:0d:ae:b8:d5:c5:06:c4:f3:2c:18:b0:f6:a2:25:
         5c:b7:ff:f2:7d:39:37:1c:7c:93:e0:1f:2d:38:cf:71:37:7b:
         60:19:dd:e5:43:34:20:93:ca:03:3c:12:76:53:42:a2:60:bb:
         98:d5:8d:0f:3f:05:3e:e7:5e:9f:fc:e6:68:26:ce:28:f8:a2:
         62:bb:95:6b:ab:ba:7e:8d:8d:5e:40:22:86:37:73:75:8b:1a:
         f1:e6:f5:e7:33:4b:2f:6f:18:78:57:9b:fe:a7:86:98:86:60:
         55:bf:aa:27:df:ec:30:3a:8f:b8:bb:e9:0b:82:c7:37:7d:05:
         39:7c:c6:26:6b:cd:e8:32
-----BEGIN CERTIFICATE-----
MIIGjjCCBHagAwIBAgIUcqshLol33/G2AdW+hWJ0DbOjxdUwDQYJKoZIhvcNAQEL
BQAwZjELMAkGA1UEBhMCTk8xEjAQBgNVBAoMCU5pdHBpY2tzeTEoMCYGA1UECwwf
Tml0cGlja3N5IENlcnRpZmljYXRlIEF1dGhvcml0eTEZMBcGA1UEAwwQTml0cGlj
a3N5IFRMUyBDQTAeFw0yMDEyMTExMjQ2MzBaFw0yMjEyMTExMjQ2MzBaMGUxCzAJ
BgNVBAYTAk5PMRIwEAYDVQQKDAlOaXRwaWNrc3kxKDAmBgNVBAsMH05pdHBpY2tz
eSBDZXJ0aWZpY2F0ZSBBdXRob3JpdHkxGDAWBgNVBAMMD1BheW1lbnQgR2F0ZXdh
eTCCAiIwDQYJKoZIhvcNAQEBBQADggIPADCCAgoCggIBANSKM//Y8RhowL1EeMYm
0jK20WnGl47+slw6sw/dpHhworudVIJWXDNKWVK6DcjO4k+geUfi6zQmQuwx4ob/
nrXvOAL/GZsQRBrOgUnAAX/JanYLWD22noJTr/wx6lRRwJvczJygEeaPzpv2Bx1z
6+3fOqYM3WDH9lvGUkzmjGT/+4FQA53jkuu2NA0N/HSUmmtg5BHaprW1MJQ4ceNS
kZ0Gx8iXLvN44z6lf6iheStmKwHTWKonmsQy8NTmryr9Y+/5USdu4W6WspqJPyl2
vCZkmVAXb3vw533Z6BivqYO2cb3sDwkrUY1fnlg+jR79UBbGWzuDcYoca9aYO+Pl
hdIdae4uXT3gcJyFS5Ab72xGjfmROxB4bGpvQel7nkm0AuaYJXzayf7Rlzsp/5oc
QMAnqdgS6yDr01nkowO30Q2lVZpvivgsVz85YVoyCL/mpmqzX0WwNhCdooiahgDL
lwV9qe3UdDiKUcAgRKVu1J+ZafxZYQXDnFhOh9QRBBWUzlPMzeMPaLgHl7URSP9c
20g56Kd/6BD5otRAUjwJM4HJUIdGeoo2SbUN7ASRlhkXjQPw8kXQ5mT8s4OYQiub
FnO9yEhPIHu1toKnqgC+K0nYUlR68kPHP3yHfbw7NIR4Z4lUE9JckfkHg+Yj/mcy
rUlQfegik2jE/qANRJLe7P+HAgMBAAGjggEzMIIBLzAOBgNVHQ8BAf8EBAMCBaAw
CQYDVR0TBAIwADAdBgNVHSUEFjAUBggrBgEFBQcDAQYIKwYBBQUHAwIwHQYDVR0O
BBYEFPjFykSp/MH3S0mPoXg0UdVPXrDmMB8GA1UdIwQYMBaAFCRoQE5QRFS1tV4N
F06Wu9rbFeS2MD0GCCsGAQUFBwEBBDEwLzAtBggrBgEFBQcwAoYhaHR0cDovL25p
dHBpY2tzeS5uby9jYS90bHMtY2EuY2VyMDIGA1UdHwQrMCkwJ6AloCOGIWh0dHA6
Ly9uaXRwaWNrc3kubm8vY2EvdGxzLWNhLmNybDBABgNVHREEOTA3ggxuaXRwaWNr
c3kubm+CEHd3dy5uaXRwaWNrc3kubm+CCWxvY2FsaG9zdIcEfwAAAYcEwKhAqTAN
BgkqhkiG9w0BAQsFAAOCAgEAl8KrG6smLOP8yl2bYDE5LSl49kagEru013vyu8wY
Wu7ux/I5xTbpAdWhyuWTX4GQPdt1WFeJSinmbDyUycvmSMVJevGgzKTzxh7zLJZ9
ItFX0GlwbtaHxu/7oR78Sd8GXI8aRXSTVkRPEHRiIsyZatR1LbFLi5wKAIeTI2wM
1WMPgIzHwfFOnc4dA/2cJ47zFNoP8OYTgt7x20zvHZ3ilKGR4B9QjQEHCIY5BrO+
zOkW+xHPT3rGdayjA+q55bp2dYuEjh5M/dKZvqL0Q756t4XQ8UzOtaRFKmnjBnX2
sBabVN6qxgvdxWNPMHoIpdGK6o8isichmXFV8LGlYct4XtHdlhRPRPOALPfhmGZk
bwgJKVoglHAH/ga5+8OPDPoGUCynsWdmef0uaxGrabK4WZ6XBvwH9m+AbXYH1ZP6
ew96KKqMC0l2URzP8eyaeCrf2Y1v0/rSfs34N1kqEjgKtm9Iwo2TNxmAseZtZqwx
t2S4p2E1McLp9j3pdXBAdA2uuNXFBsTzLBiw9qIlXLf/8n05Nxx8k+AfLTjPcTd7
YBnd5UM0IJPKAzwSdlNComC7mNWNDz8FPuden/zmaCbOKPiiYruVa6u6fo2NXkAi
hjdzdYsa8eb15zNLL28YeFeb/qeGmIZgVb+qJ9/sMDqPuLvpC4LHN30FOXzGJmvN
6DI=
-----END CERTIFICATE-----
