Certificate:
    Data:
        Version: 3 (0x2)
        Serial Number:
            75:9c:6b:3a:f7:b3:7e:ab:74:e0:91:da:42:5d:e6:d4:41:66:7c:47
        Signature Algorithm: sha256WithRSAEncryption
        Issuer: C=NO, O=Nitpicksy, OU=Nitpicksy Certificate Authority, CN=Nitpicksy TLS CA
        Validity
            Not Before: Dec 11 12:46:28 2020 GMT
            Not After : Dec 11 12:46:28 2022 GMT
        Subject: C=NO, O=Nitpicksy, OU=Nitpicksy Certificate Authority, CN=Eureka
        Subject Public Key Info:
            Public Key Algorithm: rsaEncryption
                RSA Public-Key: (4096 bit)
                Modulus:
                    00:99:3e:83:ef:39:45:39:9d:3d:0f:8e:99:5e:d1:
                    88:0b:0b:2d:fe:cd:7e:d7:dd:77:84:bf:3a:9b:80:
                    3c:07:ae:39:9c:c2:8f:90:27:0a:76:f2:cd:c8:22:
                    ae:3a:d4:8d:fd:a1:7c:93:ed:94:da:87:20:b2:02:
                    2c:eb:68:dc:07:50:73:61:20:4b:13:76:98:f6:94:
                    5d:af:e8:f4:82:1a:40:cc:a3:14:fa:e3:a3:02:0c:
                    13:80:5e:c5:b8:8e:ed:f6:31:49:27:ca:ea:a3:cc:
                    68:f6:b6:5c:ee:a8:aa:fe:6a:73:b6:8f:8b:d9:c6:
                    76:cb:6b:e5:09:02:54:39:e7:c1:af:4b:d2:ae:97:
                    07:2e:94:83:42:45:9e:1d:e4:23:98:35:72:02:db:
                    38:36:d5:cc:db:a9:be:09:31:70:50:2c:a3:50:82:
                    3d:91:78:2c:77:9a:69:6a:6f:84:65:e5:b6:b9:f2:
                    7d:b4:16:1b:90:5c:e9:21:bc:ba:f2:10:91:2d:d0:
                    48:cd:01:5d:da:60:df:c6:97:5e:82:8f:3a:aa:8f:
                    5c:cb:e7:75:d1:11:ca:08:fe:20:ed:57:c5:6a:d7:
                    cf:9a:01:a1:70:1e:e1:f4:d4:ee:25:21:93:b1:f3:
                    72:15:47:04:5c:7f:47:16:7f:23:03:38:fb:75:75:
                    20:c7:fd:f6:80:5c:08:06:1e:eb:f5:e5:94:3e:58:
                    f8:7b:43:b3:6f:97:68:25:99:7a:29:a8:5d:69:0a:
                    52:61:d4:17:f3:9a:37:20:ec:41:03:74:11:db:72:
                    df:33:c6:4d:65:ca:6b:90:ae:98:49:a6:ce:fa:5e:
                    18:7c:92:ad:10:56:f2:ac:5b:68:4b:93:19:e0:29:
                    e0:03:1f:0e:1c:e0:46:f8:da:cb:24:bc:4e:60:92:
                    fe:e0:8a:8c:dd:70:cb:27:94:88:c6:4d:47:c6:26:
                    ff:8a:27:f6:88:6d:3e:fb:df:19:8c:9c:1e:35:bc:
                    53:84:29:f4:e5:cf:38:94:d4:0d:41:33:fa:f2:4e:
                    ce:f8:36:3b:94:f3:fe:52:5e:52:bb:30:4a:fc:bd:
                    82:ed:fe:6a:16:b9:bf:86:ed:7e:d1:90:c5:44:7a:
                    cb:c0:b3:ca:32:f7:2a:4d:af:93:84:51:06:37:ed:
                    86:69:ca:24:da:bb:16:f6:10:71:cd:ed:c4:31:03:
                    c5:f7:93:65:f2:22:d5:5d:fc:d3:a3:e2:1c:89:8b:
                    1e:47:aa:98:8e:db:60:77:30:7f:2d:19:38:6b:9e:
                    21:ca:07:48:02:f5:fe:0e:a6:ce:c6:5a:d9:a4:51:
                    9f:6f:f1:31:00:4c:6b:8d:1f:23:7f:85:68:d2:c0:
                    34:55:9d
                Exponent: 65537 (0x10001)
        X509v3 extensions:
            X509v3 Key Usage: critical
                Digital Signature, Key Encipherment
            X509v3 Basic Constraints: 
                CA:FALSE
            X509v3 Extended Key Usage: 
                TLS Web Server Authentication, TLS Web Client Authentication
            X509v3 Subject Key Identifier: 
                1F:79:BA:61:37:E5:3A:6E:FB:6F:BC:31:72:0D:74:6C:6C:C8:6F:8B
            X509v3 Authority Key Identifier: 
                keyid:24:68:40:4E:50:44:54:B5:B5:5E:0D:17:4E:96:BB:DA:DB:15:E4:B6

            Authority Information Access: 
                CA Issuers - URI:http://nitpicksy.no/ca/tls-ca.cer

            X509v3 CRL Distribution Points: 

                Full Name:
                  URI:http://nitpicksy.no/ca/tls-ca.crl

            X509v3 Subject Alternative Name: 
                DNS:nitpicksy.no, DNS:www.nitpicksy.no, DNS:localhost, IP Address:127.0.0.1, IP Address:192.168.64.169
    Signature Algorithm: sha256WithRSAEncryption
         66:49:e9:2f:00:04:5d:19:0f:d8:af:8b:10:d8:c6:b9:05:1d:
         80:6a:5d:3e:7f:e7:03:08:cc:f1:31:a9:96:d9:ed:6b:82:31:
         cc:3c:eb:c2:a1:2b:f7:12:cb:4f:72:9e:8b:dc:4e:e5:07:44:
         dd:39:44:55:87:02:19:66:0f:69:6b:82:a6:9b:dd:4e:a8:dc:
         71:da:a5:e5:ce:90:16:ec:d4:2e:62:a8:68:15:09:7f:16:d4:
         31:9e:64:bf:58:fd:bc:74:43:0b:59:76:25:c3:9f:fe:f9:3e:
         cb:39:83:61:56:8e:29:ef:2d:38:dd:64:61:3d:ff:09:76:f6:
         b1:ed:4a:04:0d:cb:37:28:b0:e8:da:86:1d:32:ac:bb:fd:9b:
         ec:a2:8b:ed:dc:3e:38:86:d5:f9:d7:23:1f:97:94:d1:18:1f:
         c7:f5:01:3f:e5:91:98:73:31:c3:c1:95:69:3f:1a:e9:40:b3:
         4c:82:c5:68:13:1f:38:b3:39:04:eb:b9:2b:61:bb:37:39:22:
         1d:ae:bb:b9:f6:0b:31:d0:fe:7d:07:11:d8:f6:51:d4:87:1b:
         04:f9:eb:d2:32:4d:f0:09:65:14:a5:e1:79:d0:57:67:e2:dd:
         17:43:a5:00:86:e1:54:80:a9:a4:12:c2:fe:77:76:68:5d:90:
         9d:12:a4:da:d0:23:d6:f1:13:19:05:90:06:4c:f0:31:0e:b7:
         1f:89:24:7c:81:5e:d0:ef:1a:17:bb:a3:28:7f:8e:73:a2:08:
         f2:78:ba:89:4c:92:88:f6:22:c2:e4:16:51:2c:db:3a:c9:79:
         7a:f1:eb:77:78:69:60:76:ca:9c:4a:2a:ff:b9:56:6d:4e:89:
         ce:47:3c:a9:0a:fa:f1:d2:ad:49:96:2c:be:94:7a:10:f8:3e:
         dc:45:c8:38:2a:6d:1a:7d:48:c8:e1:ee:38:95:f3:4f:05:e9:
         8c:63:dd:df:a1:e7:24:45:dd:c8:0d:75:d3:0c:a8:f9:33:fc:
         b2:68:d1:b3:3d:75:93:22:dd:89:13:94:b3:3a:a9:08:4b:53:
         e5:90:26:52:79:a8:a5:06:7f:e9:38:fb:a6:a4:ba:23:24:a7:
         b2:73:ff:5f:67:7c:f6:0d:71:98:b1:f7:23:29:17:0d:21:76:
         10:fb:dd:57:66:9b:e3:86:95:8d:67:9e:ee:be:66:69:6f:71:
         d2:82:c4:f9:4d:89:02:e2:11:c3:f3:bd:95:5b:b9:87:59:0a:
         81:d5:b0:6b:f6:08:36:18:5f:c3:fe:27:ab:a1:15:68:b3:5e:
         6d:6a:a4:60:88:f4:47:3e:ca:33:10:cd:cc:63:28:ee:f1:2b:
         09:7b:14:8e:72:92:ba:6d
-----BEGIN CERTIFICATE-----
MIIGhTCCBG2gAwIBAgIUdZxrOvezfqt04JHaQl3m1EFmfEcwDQYJKoZIhvcNAQEL
BQAwZjELMAkGA1UEBhMCTk8xEjAQBgNVBAoMCU5pdHBpY2tzeTEoMCYGA1UECwwf
Tml0cGlja3N5IENlcnRpZmljYXRlIEF1dGhvcml0eTEZMBcGA1UEAwwQTml0cGlj
a3N5IFRMUyBDQTAeFw0yMDEyMTExMjQ2MjhaFw0yMjEyMTExMjQ2MjhaMFwxCzAJ
BgNVBAYTAk5PMRIwEAYDVQQKDAlOaXRwaWNrc3kxKDAmBgNVBAsMH05pdHBpY2tz
eSBDZXJ0aWZpY2F0ZSBBdXRob3JpdHkxDzANBgNVBAMMBkV1cmVrYTCCAiIwDQYJ
KoZIhvcNAQEBBQADggIPADCCAgoCggIBAJk+g+85RTmdPQ+OmV7RiAsLLf7Nftfd
d4S/OpuAPAeuOZzCj5AnCnbyzcgirjrUjf2hfJPtlNqHILICLOto3AdQc2EgSxN2
mPaUXa/o9IIaQMyjFPrjowIME4BexbiO7fYxSSfK6qPMaPa2XO6oqv5qc7aPi9nG
dstr5QkCVDnnwa9L0q6XBy6Ug0JFnh3kI5g1cgLbODbVzNupvgkxcFAso1CCPZF4
LHeaaWpvhGXltrnyfbQWG5Bc6SG8uvIQkS3QSM0BXdpg38aXXoKPOqqPXMvnddER
ygj+IO1XxWrXz5oBoXAe4fTU7iUhk7HzchVHBFx/RxZ/IwM4+3V1IMf99oBcCAYe
6/XllD5Y+HtDs2+XaCWZeimoXWkKUmHUF/OaNyDsQQN0Edty3zPGTWXKa5CumEmm
zvpeGHySrRBW8qxbaEuTGeAp4AMfDhzgRvjayyS8TmCS/uCKjN1wyyeUiMZNR8Ym
/4on9ohtPvvfGYycHjW8U4Qp9OXPOJTUDUEz+vJOzvg2O5Tz/lJeUrswSvy9gu3+
aha5v4btftGQxUR6y8CzyjL3Kk2vk4RRBjfthmnKJNq7FvYQcc3txDEDxfeTZfIi
1V3806PiHImLHkeqmI7bYHcwfy0ZOGueIcoHSAL1/g6mzsZa2aRRn2/xMQBMa40f
I3+FaNLANFWdAgMBAAGjggEzMIIBLzAOBgNVHQ8BAf8EBAMCBaAwCQYDVR0TBAIw
ADAdBgNVHSUEFjAUBggrBgEFBQcDAQYIKwYBBQUHAwIwHQYDVR0OBBYEFB95umE3
5Tpu+2+8MXINdGxsyG+LMB8GA1UdIwQYMBaAFCRoQE5QRFS1tV4NF06Wu9rbFeS2
MD0GCCsGAQUFBwEBBDEwLzAtBggrBgEFBQcwAoYhaHR0cDovL25pdHBpY2tzeS5u
by9jYS90bHMtY2EuY2VyMDIGA1UdHwQrMCkwJ6AloCOGIWh0dHA6Ly9uaXRwaWNr
c3kubm8vY2EvdGxzLWNhLmNybDBABgNVHREEOTA3ggxuaXRwaWNrc3kubm+CEHd3
dy5uaXRwaWNrc3kubm+CCWxvY2FsaG9zdIcEfwAAAYcEwKhAqTANBgkqhkiG9w0B
AQsFAAOCAgEAZknpLwAEXRkP2K+LENjGuQUdgGpdPn/nAwjM8TGpltnta4IxzDzr
wqEr9xLLT3Kei9xO5QdE3TlEVYcCGWYPaWuCppvdTqjccdql5c6QFuzULmKoaBUJ
fxbUMZ5kv1j9vHRDC1l2JcOf/vk+yzmDYVaOKe8tON1kYT3/CXb2se1KBA3LNyiw
6NqGHTKsu/2b7KKL7dw+OIbV+dcjH5eU0Rgfx/UBP+WRmHMxw8GVaT8a6UCzTILF
aBMfOLM5BOu5K2G7NzkiHa67ufYLMdD+fQcR2PZR1IcbBPnr0jJN8AllFKXhedBX
Z+LdF0OlAIbhVICppBLC/nd2aF2QnRKk2tAj1vETGQWQBkzwMQ63H4kkfIFe0O8a
F7ujKH+Oc6II8ni6iUySiPYiwuQWUSzbOsl5evHrd3hpYHbKnEoq/7lWbU6Jzkc8
qQr68dKtSZYsvpR6EPg+3EXIOCptGn1IyOHuOJXzTwXpjGPd36HnJEXdyA110wyo
+TP8smjRsz11kyLdiROUszqpCEtT5ZAmUnmopQZ/6Tj7pqS6IySnsnP/X2d89g1x
mLH3IykXDSF2EPvdV2ab44aVjWee7r5maW9x0oLE+U2JAuIRw/O9lVu5h1kKgdWw
a/YINhhfw/4nq6EVaLNebWqkYIj0Rz7KMxDNzGMo7vErCXsUjnKSum0=
-----END CERTIFICATE-----
