Certificate:
    Data:
        Version: 3 (0x2)
        Serial Number:
            38:ce:ad:5a:e2:3d:78:5a:70:50:e8:73:d8:96:63:66:dd:63:8e:7a
        Signature Algorithm: sha256WithRSAEncryption
        Issuer: C=NO, O=Nitpicksy, OU=Nitpicksy Certificate Authority, CN=Nitpicksy TLS CA
        Validity
            Not Before: Dec  6 22:39:37 2020 GMT
            Not After : Dec  6 22:39:37 2022 GMT
        Subject: C=NO, O=Nitpicksy, OU=Nitpicksy Certificate Authority, CN=Bank
        Subject Public Key Info:
            Public Key Algorithm: rsaEncryption
                RSA Public-Key: (4096 bit)
                Modulus:
                    00:ba:70:e4:88:c5:8a:c5:6b:e0:94:f5:7b:75:20:
                    34:4e:33:63:d5:dc:c1:8b:83:5d:14:c7:ec:9b:d0:
                    fb:09:8e:58:a9:f0:43:a0:0f:53:d8:de:7e:04:8b:
                    eb:e2:d0:29:c9:86:09:4d:de:e6:da:44:35:23:5d:
                    b6:8e:c8:77:ee:42:dc:bc:44:1f:11:ce:9b:d1:40:
                    54:d3:f6:d3:ea:a5:aa:0b:9d:70:15:36:fe:0d:fe:
                    56:c8:bb:cc:f1:38:22:24:4e:5b:c8:80:48:7f:b3:
                    e8:54:11:44:2c:c2:43:b4:bf:92:43:dc:73:6a:4a:
                    57:7e:12:18:db:a9:1a:1c:52:12:ec:bf:64:c1:2e:
                    16:e1:a5:09:51:06:fd:95:7c:b1:cf:5d:1b:0f:dd:
                    0e:7f:d9:a0:8e:62:6e:ab:9e:b0:1c:a0:c0:86:ec:
                    b7:f4:2c:37:ba:4d:7b:54:b4:28:45:d2:b2:fe:d5:
                    69:61:c6:12:16:21:bf:1d:ed:0f:a5:8b:ab:f6:d5:
                    58:83:ba:a5:8c:44:6d:23:da:bb:91:91:76:bb:be:
                    47:7e:19:e0:63:73:9e:08:d6:7f:3c:9d:c7:0b:a6:
                    c2:99:10:e7:4e:6a:6d:73:62:26:a9:a1:6f:ed:28:
                    68:9c:a0:a3:8b:99:4a:4e:75:c3:a7:a3:67:d6:b9:
                    32:44:26:00:89:b2:02:8c:16:f3:99:c5:f6:57:8e:
                    8b:77:e7:cf:d8:6a:b0:09:11:f8:9c:5b:de:d8:69:
                    84:f2:43:4e:0b:42:67:88:c4:11:c3:96:ae:a4:9a:
                    1a:ca:73:d9:50:14:eb:34:cc:e3:26:0e:92:82:9f:
                    49:f0:f8:54:95:da:34:07:c9:26:8e:83:5a:65:78:
                    4c:75:c4:34:1c:9f:ab:71:0e:92:b0:db:a7:90:91:
                    55:c1:fd:f0:22:3c:a8:76:97:00:bf:01:f6:81:8f:
                    85:56:c5:81:8f:f6:f9:28:52:10:fa:17:a7:87:02:
                    38:cd:44:16:dd:36:c4:9e:15:f5:43:78:84:f9:d3:
                    e1:3b:e9:b0:5c:4f:bc:02:b1:6f:a8:fe:6a:cc:49:
                    17:c9:b8:7a:73:31:3b:14:15:ae:8a:36:10:f9:f8:
                    b9:d9:2c:d2:82:5e:6b:91:58:d2:db:65:38:69:5b:
                    b0:60:c2:b5:c5:5a:71:4c:bb:5c:5c:f8:9e:a9:54:
                    79:71:ba:2a:56:5a:43:83:51:56:ec:0c:c3:e0:cb:
                    cb:fb:6f:3a:76:30:6a:e3:5a:18:78:67:ca:e5:88:
                    8b:03:7e:79:ae:90:71:4b:c1:3d:7d:11:d1:21:39:
                    05:9f:42:e2:a4:51:17:c6:51:be:a3:82:1f:e0:c9:
                    6f:ec:05
                Exponent: 65537 (0x10001)
        X509v3 extensions:
            X509v3 Key Usage: critical
                Digital Signature, Key Encipherment
            X509v3 Basic Constraints: 
                CA:FALSE
            X509v3 Extended Key Usage: 
                TLS Web Server Authentication, TLS Web Client Authentication
            X509v3 Subject Key Identifier: 
                CC:9E:1D:BF:67:20:D2:4A:B4:88:8E:0D:59:92:77:F1:7A:A2:37:5A
            X509v3 Authority Key Identifier: 
                keyid:83:CC:02:D6:E0:31:A6:2D:8E:F8:85:43:99:55:48:F6:21:22:90:49

            Authority Information Access: 
                CA Issuers - URI:http://nitpicksy.no/ca/tls-ca.cer

            X509v3 CRL Distribution Points: 

                Full Name:
                  URI:http://nitpicksy.no/ca/tls-ca.crl

            X509v3 Subject Alternative Name: 
                DNS:nitpicksy.no, DNS:www.nitpicksy.no, DNS:localhost
    Signature Algorithm: sha256WithRSAEncryption
         84:b7:98:28:f6:f5:1d:53:d5:52:e2:a9:93:fd:52:48:cc:3b:
         ba:a0:46:6f:80:8b:1c:fa:e8:ba:56:b1:fd:56:95:ac:0e:44:
         18:49:a3:c2:8a:61:99:7b:cd:f0:cc:4e:bc:d8:46:a5:dc:27:
         e9:f5:04:d4:45:b6:22:8a:ac:a8:21:ee:af:81:45:b6:19:c1:
         d4:c6:5b:25:a6:6d:b1:0f:70:7e:fb:e8:c2:8c:34:61:2e:ed:
         54:8d:29:3d:b7:ed:8a:72:56:c2:ab:92:ef:62:d8:4f:da:16:
         dc:3a:fd:0a:26:d2:1f:5b:80:dc:52:d2:4f:5d:7f:03:1d:db:
         f7:b5:ad:26:53:c1:02:2a:0e:e7:e7:2a:32:e8:60:12:0a:4a:
         ac:94:8b:f4:89:ae:49:51:04:0e:78:de:af:4b:f4:29:68:c6:
         2b:c2:71:70:4b:14:d6:9f:b0:2b:dc:bd:8f:7d:37:91:0d:e6:
         59:c0:7c:86:e7:36:02:2e:e5:81:6f:25:de:2a:db:5a:30:26:
         b4:b9:dc:b1:39:a9:03:4d:d0:6a:6d:35:9e:f3:a0:eb:bc:d3:
         b2:f4:db:2d:2c:90:6f:fd:d8:b8:78:ae:f0:61:17:f5:d9:97:
         da:e4:6a:d6:da:74:fc:b5:37:7f:3d:74:c5:82:72:28:c2:62:
         ab:0f:66:4c:9d:f3:d2:8d:a5:4a:2b:83:c9:c3:cc:09:5e:10:
         4c:44:4a:a9:42:e9:f6:a8:3c:8e:20:cd:1f:76:b6:6b:df:98:
         38:19:75:dd:ac:50:dd:4c:30:df:8b:5c:f0:58:7f:2a:12:d5:
         11:4d:59:a5:45:ef:b7:ac:c1:3e:ad:98:44:c0:b9:e8:73:1c:
         c6:e7:14:84:cd:6b:bb:5a:0d:62:fe:2f:15:ff:16:14:4d:71:
         a0:09:81:66:b7:30:8a:ba:37:62:81:b0:bc:c5:72:20:4b:d3:
         20:7a:0a:62:28:e4:2f:fe:69:58:27:4e:06:b5:ed:25:3e:09:
         47:94:ce:e5:6a:4e:3e:ec:f8:e4:71:ac:22:89:99:42:cb:98:
         e5:65:95:47:d0:c2:90:37:72:d5:c3:12:33:8b:a5:47:ad:3a:
         7d:3b:b7:88:25:d4:4d:35:ff:a9:c9:f8:a9:15:9f:7e:96:cf:
         5a:ef:10:96:31:34:1e:90:3d:22:40:7c:8d:a5:a6:0d:47:36:
         91:9f:48:b0:93:61:1e:c8:4b:ec:68:02:51:11:99:22:ed:08:
         07:c1:81:80:08:07:e6:29:ae:d2:a5:f0:06:4e:fb:f3:56:a3:
         fe:4d:e9:d3:9e:41:37:0b:f6:dc:05:6b:eb:07:ab:6e:ff:b4:
         47:4f:ad:38:5b:6f:85:fd
-----BEGIN CERTIFICATE-----
MIIGdzCCBF+gAwIBAgIUOM6tWuI9eFpwUOhz2JZjZt1jjnowDQYJKoZIhvcNAQEL
BQAwZjELMAkGA1UEBhMCTk8xEjAQBgNVBAoMCU5pdHBpY2tzeTEoMCYGA1UECwwf
Tml0cGlja3N5IENlcnRpZmljYXRlIEF1dGhvcml0eTEZMBcGA1UEAwwQTml0cGlj
a3N5IFRMUyBDQTAeFw0yMDEyMDYyMjM5MzdaFw0yMjEyMDYyMjM5MzdaMFoxCzAJ
BgNVBAYTAk5PMRIwEAYDVQQKDAlOaXRwaWNrc3kxKDAmBgNVBAsMH05pdHBpY2tz
eSBDZXJ0aWZpY2F0ZSBBdXRob3JpdHkxDTALBgNVBAMMBEJhbmswggIiMA0GCSqG
SIb3DQEBAQUAA4ICDwAwggIKAoICAQC6cOSIxYrFa+CU9Xt1IDROM2PV3MGLg10U
x+yb0PsJjlip8EOgD1PY3n4Ei+vi0CnJhglN3ubaRDUjXbaOyHfuQty8RB8RzpvR
QFTT9tPqpaoLnXAVNv4N/lbIu8zxOCIkTlvIgEh/s+hUEUQswkO0v5JD3HNqSld+
EhjbqRocUhLsv2TBLhbhpQlRBv2VfLHPXRsP3Q5/2aCOYm6rnrAcoMCG7Lf0LDe6
TXtUtChF0rL+1WlhxhIWIb8d7Q+li6v21ViDuqWMRG0j2ruRkXa7vkd+GeBjc54I
1n88nccLpsKZEOdOam1zYiapoW/tKGicoKOLmUpOdcOno2fWuTJEJgCJsgKMFvOZ
xfZXjot358/YarAJEficW97YaYTyQ04LQmeIxBHDlq6kmhrKc9lQFOs0zOMmDpKC
n0nw+FSV2jQHySaOg1pleEx1xDQcn6txDpKw26eQkVXB/fAiPKh2lwC/AfaBj4VW
xYGP9vkoUhD6F6eHAjjNRBbdNsSeFfVDeIT50+E76bBcT7wCsW+o/mrMSRfJuHpz
MTsUFa6KNhD5+LnZLNKCXmuRWNLbZThpW7BgwrXFWnFMu1xc+J6pVHlxuipWWkOD
UVbsDMPgy8v7bzp2MGrjWhh4Z8rliIsDfnmukHFLwT19EdEhOQWfQuKkURfGUb6j
gh/gyW/sBQIDAQABo4IBJzCCASMwDgYDVR0PAQH/BAQDAgWgMAkGA1UdEwQCMAAw
HQYDVR0lBBYwFAYIKwYBBQUHAwEGCCsGAQUFBwMCMB0GA1UdDgQWBBTMnh2/ZyDS
SrSIjg1ZknfxeqI3WjAfBgNVHSMEGDAWgBSDzALW4DGmLY74hUOZVUj2ISKQSTA9
BggrBgEFBQcBAQQxMC8wLQYIKwYBBQUHMAKGIWh0dHA6Ly9uaXRwaWNrc3kubm8v
Y2EvdGxzLWNhLmNlcjAyBgNVHR8EKzApMCegJaAjhiFodHRwOi8vbml0cGlja3N5
Lm5vL2NhL3Rscy1jYS5jcmwwNAYDVR0RBC0wK4IMbml0cGlja3N5Lm5vghB3d3cu
bml0cGlja3N5Lm5vgglsb2NhbGhvc3QwDQYJKoZIhvcNAQELBQADggIBAIS3mCj2
9R1T1VLiqZP9UkjMO7qgRm+Aixz66LpWsf1WlawORBhJo8KKYZl7zfDMTrzYRqXc
J+n1BNRFtiKKrKgh7q+BRbYZwdTGWyWmbbEPcH776MKMNGEu7VSNKT237YpyVsKr
ku9i2E/aFtw6/Qom0h9bgNxS0k9dfwMd2/e1rSZTwQIqDufnKjLoYBIKSqyUi/SJ
rklRBA543q9L9CloxivCcXBLFNafsCvcvY99N5EN5lnAfIbnNgIu5YFvJd4q21ow
JrS53LE5qQNN0GptNZ7zoOu807L02y0skG/92Lh4rvBhF/XZl9rkatbadPy1N389
dMWCcijCYqsPZkyd89KNpUorg8nDzAleEExESqlC6faoPI4gzR92tmvfmDgZdd2s
UN1MMN+LXPBYfyoS1RFNWaVF77eswT6tmETAuehzHMbnFITNa7taDWL+LxX/FhRN
caAJgWa3MIq6N2KBsLzFciBL0yB6CmIo5C/+aVgnTga17SU+CUeUzuVqTj7s+ORx
rCKJmULLmOVllUfQwpA3ctXDEjOLpUetOn07t4gl1E01/6nJ+KkVn36Wz1rvEJYx
NB6QPSJAfI2lpg1HNpGfSLCTYR7IS+xoAlERmSLtCAfBgYAIB+YprtKl8AZO+/NW
o/5N6dOeQTcL9twFa+sHq27/tEdPrThbb4X9
-----END CERTIFICATE-----
