Certificate:
    Data:
        Version: 3 (0x2)
        Serial Number:
            5e:36:63:0b:34:cb:da:db:63:48:ac:a9:62:f8:9f:68:ff:16:8a:ea
        Signature Algorithm: sha256WithRSAEncryption
        Issuer: C=NO, O=Nitpicksy, OU=Nitpicksy Certificate Authority, CN=Nitpicksy TLS CA
        Validity
            Not Before: Dec 11 12:46:32 2020 GMT
            Not After : Dec 11 12:46:32 2022 GMT
        Subject: C=NO, O=Nitpicksy, OU=Nitpicksy Certificate Authority, CN=Bank
        Subject Public Key Info:
            Public Key Algorithm: rsaEncryption
                RSA Public-Key: (4096 bit)
                Modulus:
                    00:b2:58:60:4f:74:37:5c:e4:ce:ef:28:e2:1e:5c:
                    63:cc:20:16:64:fe:c9:f8:77:a1:d2:c3:e6:8b:d6:
                    9c:55:d0:4f:a9:b0:9c:89:21:bf:e2:98:3f:44:ac:
                    f8:21:e2:32:71:82:a9:2b:8d:7c:e9:25:f8:26:bf:
                    f9:b2:ce:02:5b:6e:0f:8d:fa:af:25:0f:32:08:b9:
                    2c:d0:62:90:76:35:b6:e6:94:c8:2c:c1:70:60:e0:
                    4c:6a:e5:60:bd:0c:09:a8:f4:3e:ea:60:f9:5f:e3:
                    ca:f3:33:21:64:18:a5:08:4c:2e:18:20:93:35:77:
                    15:3c:1a:bc:55:47:23:71:51:37:ca:f9:be:b2:df:
                    a5:de:e9:9b:12:02:3b:9e:01:0d:5d:88:22:09:af:
                    84:68:d0:cb:81:8b:89:f7:c0:dd:de:c8:7e:c2:37:
                    b8:d2:19:47:b8:16:7d:f9:2c:ac:ad:e2:84:e8:12:
                    12:a8:65:1b:03:d6:db:b4:15:ee:a3:91:83:48:4c:
                    9c:b9:ec:44:6d:0d:14:97:6d:21:74:7d:64:0b:81:
                    f7:ae:50:95:d6:4e:03:a1:fc:7d:07:68:d3:f9:af:
                    b1:13:a8:54:4d:45:8f:71:97:d7:98:2e:de:c6:72:
                    2a:5e:6b:fb:03:21:da:a3:ad:11:ac:ba:4c:f9:3d:
                    73:84:97:ce:a2:8c:12:e8:19:3f:fe:1d:44:6f:21:
                    6a:ac:f0:87:e2:42:13:8a:ad:c1:08:a3:ca:72:f1:
                    03:8b:c4:13:57:b3:37:2f:55:8a:ff:af:17:64:14:
                    11:78:97:9d:3f:5b:bb:f4:29:58:ad:47:d2:62:e0:
                    f0:e0:5c:7b:d8:f3:f3:49:9a:e2:e2:e9:84:f4:34:
                    07:7e:a1:c1:69:8e:2b:63:62:72:91:4f:52:7f:5f:
                    72:e5:bf:a4:6a:33:90:f9:a8:2b:7a:cf:02:21:d6:
                    3a:3c:ea:82:3e:ef:94:c6:66:d0:ea:86:e7:b3:fd:
                    d9:20:2f:29:0f:60:80:53:f5:a3:19:39:73:ae:6b:
                    7d:fc:62:af:6b:b0:87:bd:10:32:29:40:64:6b:91:
                    46:b6:2b:51:8b:cb:bc:6a:a4:79:b1:96:1f:ca:da:
                    8b:7b:fd:e8:fa:41:ed:38:fe:72:cd:af:6e:e8:51:
                    31:ea:69:8c:37:43:25:d0:23:3f:71:5e:83:3d:9b:
                    7c:c3:ce:3f:ad:f8:54:87:94:39:0f:1d:9d:9b:43:
                    82:46:29:6d:0d:a5:66:80:72:dc:4a:f1:66:8b:ba:
                    0d:4e:e1:84:99:af:24:25:0e:d1:19:dc:a9:35:62:
                    d6:e0:e3:c1:b0:e1:81:f0:02:02:09:4c:10:32:f6:
                    69:db:43
                Exponent: 65537 (0x10001)
        X509v3 extensions:
            X509v3 Key Usage: critical
                Digital Signature, Key Encipherment
            X509v3 Basic Constraints: 
                CA:FALSE
            X509v3 Extended Key Usage: 
                TLS Web Server Authentication, TLS Web Client Authentication
            X509v3 Subject Key Identifier: 
                29:97:F9:46:2A:1A:6D:4B:C9:F5:CF:C9:3A:F7:68:87:98:83:94:D7
            X509v3 Authority Key Identifier: 
                keyid:24:68:40:4E:50:44:54:B5:B5:5E:0D:17:4E:96:BB:DA:DB:15:E4:B6

            Authority Information Access: 
                CA Issuers - URI:http://nitpicksy.no/ca/tls-ca.cer

            X509v3 CRL Distribution Points: 

                Full Name:
                  URI:http://nitpicksy.no/ca/tls-ca.crl

            X509v3 Subject Alternative Name: 
                DNS:nitpicksy.no, DNS:www.nitpicksy.no, DNS:localhost, IP Address:127.0.0.1, IP Address:192.168.64.169
    Signature Algorithm: sha256WithRSAEncryption
         84:e5:ed:10:72:ff:39:f3:68:5f:2f:04:61:14:34:0e:f6:4f:
         a9:74:4f:5a:51:f6:d1:26:4d:be:26:f4:0d:2b:c5:d4:57:69:
         28:47:b5:ed:6a:f4:8a:38:c7:50:7e:82:da:b4:0b:25:70:21:
         89:5c:92:9c:37:32:10:80:28:ed:9f:29:c9:dd:3b:83:db:1f:
         54:13:68:62:e4:7f:7b:74:a3:07:ff:68:ba:12:d3:31:a6:9a:
         f1:15:ec:b8:4c:ed:30:8e:d5:42:bc:e3:c3:0f:d5:ed:8a:bc:
         3e:2c:be:04:18:32:1d:2f:c6:d0:70:92:0c:dc:d4:47:fd:1c:
         7a:48:5e:45:04:c3:2f:64:77:a3:16:26:45:bb:e8:38:3a:c2:
         15:5a:07:f7:b0:2e:30:d0:6e:52:7e:f4:46:38:9f:23:fa:0f:
         f3:d3:df:5c:83:a8:5b:de:59:34:ea:ab:2c:6d:55:3d:58:cf:
         d1:f9:22:a0:34:5a:a2:39:00:30:2b:86:5d:37:7d:13:be:a2:
         28:fb:7e:fe:10:00:68:2a:4b:56:0a:2e:22:be:b1:1f:84:de:
         4e:2c:d3:2a:64:32:a9:c4:7f:17:7f:ef:1d:22:df:07:ac:8e:
         40:ea:4a:47:95:e6:3d:d9:2b:82:3b:eb:67:64:aa:92:56:b4:
         81:a8:7e:5d:81:3b:09:e2:2f:4d:3d:a7:f5:41:61:98:86:8f:
         6d:f1:d4:08:0a:d8:c1:1f:1f:22:3a:62:04:65:81:02:78:6e:
         52:5c:6a:5e:fd:ef:43:ae:1a:75:ec:96:73:89:aa:4c:28:23:
         41:b8:26:04:89:1a:fc:66:c4:8c:07:0d:86:19:30:e7:7d:7a:
         10:13:84:7d:6f:1a:4b:04:96:7e:b4:66:b8:7d:88:86:82:9b:
         90:fe:43:c4:f9:55:75:16:70:b0:69:1e:41:f3:76:95:db:9f:
         32:ee:70:b0:dc:99:82:fb:2d:bc:6d:61:ce:e4:ac:30:e2:26:
         c7:64:ef:b3:23:9b:52:21:7d:d5:a7:58:90:9d:23:6a:b3:b1:
         2b:c7:63:4a:e2:1a:5d:d8:bd:de:7b:bf:91:51:26:a8:95:e2:
         47:17:52:47:37:5b:77:f9:ac:0e:23:40:8f:af:0e:8b:bd:66:
         e3:ec:cf:a8:02:c3:20:9a:0b:c7:90:5f:fc:76:d4:cf:00:8b:
         75:0b:c7:64:fe:0d:c1:a9:5c:a6:54:24:d6:a1:d7:7d:d9:2d:
         56:c3:09:4b:1e:82:c8:54:e4:34:23:03:92:c4:c1:59:25:03:
         bd:57:83:34:4d:dd:08:75:6e:8e:b6:f1:03:da:d7:5b:69:22:
         eb:c7:a4:0d:d4:fc:47:2b
-----BEGIN CERTIFICATE-----
MIIGgzCCBGugAwIBAgIUXjZjCzTL2ttjSKypYvifaP8WiuowDQYJKoZIhvcNAQEL
BQAwZjELMAkGA1UEBhMCTk8xEjAQBgNVBAoMCU5pdHBpY2tzeTEoMCYGA1UECwwf
Tml0cGlja3N5IENlcnRpZmljYXRlIEF1dGhvcml0eTEZMBcGA1UEAwwQTml0cGlj
a3N5IFRMUyBDQTAeFw0yMDEyMTExMjQ2MzJaFw0yMjEyMTExMjQ2MzJaMFoxCzAJ
BgNVBAYTAk5PMRIwEAYDVQQKDAlOaXRwaWNrc3kxKDAmBgNVBAsMH05pdHBpY2tz
eSBDZXJ0aWZpY2F0ZSBBdXRob3JpdHkxDTALBgNVBAMMBEJhbmswggIiMA0GCSqG
SIb3DQEBAQUAA4ICDwAwggIKAoICAQCyWGBPdDdc5M7vKOIeXGPMIBZk/sn4d6HS
w+aL1pxV0E+psJyJIb/imD9ErPgh4jJxgqkrjXzpJfgmv/myzgJbbg+N+q8lDzII
uSzQYpB2NbbmlMgswXBg4Exq5WC9DAmo9D7qYPlf48rzMyFkGKUITC4YIJM1dxU8
GrxVRyNxUTfK+b6y36Xe6ZsSAjueAQ1diCIJr4Ro0MuBi4n3wN3eyH7CN7jSGUe4
Fn35LKyt4oToEhKoZRsD1tu0Fe6jkYNITJy57ERtDRSXbSF0fWQLgfeuUJXWTgOh
/H0HaNP5r7ETqFRNRY9xl9eYLt7Gcipea/sDIdqjrRGsukz5PXOEl86ijBLoGT/+
HURvIWqs8IfiQhOKrcEIo8py8QOLxBNXszcvVYr/rxdkFBF4l50/W7v0KVitR9Ji
4PDgXHvY8/NJmuLi6YT0NAd+ocFpjitjYnKRT1J/X3Llv6RqM5D5qCt6zwIh1jo8
6oI+75TGZtDqhuez/dkgLykPYIBT9aMZOXOua338Yq9rsIe9EDIpQGRrkUa2K1GL
y7xqpHmxlh/K2ot7/ej6Qe04/nLNr27oUTHqaYw3QyXQIz9xXoM9m3zDzj+t+FSH
lDkPHZ2bQ4JGKW0NpWaActxK8WaLug1O4YSZryQlDtEZ3Kk1Ytbg48Gw4YHwAgIJ
TBAy9mnbQwIDAQABo4IBMzCCAS8wDgYDVR0PAQH/BAQDAgWgMAkGA1UdEwQCMAAw
HQYDVR0lBBYwFAYIKwYBBQUHAwEGCCsGAQUFBwMCMB0GA1UdDgQWBBQpl/lGKhpt
S8n1z8k692iHmIOU1zAfBgNVHSMEGDAWgBQkaEBOUERUtbVeDRdOlrva2xXktjA9
BggrBgEFBQcBAQQxMC8wLQYIKwYBBQUHMAKGIWh0dHA6Ly9uaXRwaWNrc3kubm8v
Y2EvdGxzLWNhLmNlcjAyBgNVHR8EKzApMCegJaAjhiFodHRwOi8vbml0cGlja3N5
Lm5vL2NhL3Rscy1jYS5jcmwwQAYDVR0RBDkwN4IMbml0cGlja3N5Lm5vghB3d3cu
bml0cGlja3N5Lm5vgglsb2NhbGhvc3SHBH8AAAGHBMCoQKkwDQYJKoZIhvcNAQEL
BQADggIBAITl7RBy/znzaF8vBGEUNA72T6l0T1pR9tEmTb4m9A0rxdRXaShHte1q
9Io4x1B+gtq0CyVwIYlckpw3MhCAKO2fKcndO4PbH1QTaGLkf3t0owf/aLoS0zGm
mvEV7LhM7TCO1UK848MP1e2KvD4svgQYMh0vxtBwkgzc1Ef9HHpIXkUEwy9kd6MW
JkW76Dg6whVaB/ewLjDQblJ+9EY4nyP6D/PT31yDqFveWTTqqyxtVT1Yz9H5IqA0
WqI5ADArhl03fRO+oij7fv4QAGgqS1YKLiK+sR+E3k4s0ypkMqnEfxd/7x0i3wes
jkDqSkeV5j3ZK4I762dkqpJWtIGofl2BOwniL009p/VBYZiGj23x1AgK2MEfHyI6
YgRlgQJ4blJcal7970OuGnXslnOJqkwoI0G4JgSJGvxmxIwHDYYZMOd9ehAThH1v
GksEln60Zrh9iIaCm5D+Q8T5VXUWcLBpHkHzdpXbnzLucLDcmYL7LbxtYc7krDDi
Jsdk77Mjm1IhfdWnWJCdI2qzsSvHY0riGl3Yvd57v5FRJqiV4kcXUkc3W3f5rA4j
QI+vDou9ZuPsz6gCwyCaC8eQX/x21M8Ai3ULx2T+DcGpXKZUJNah133ZLVbDCUse
gshU5DQjA5LEwVklA71XgzRN3Qh1bo628QPa11tpIuvHpA3U/Ecr
-----END CERTIFICATE-----
