Certificate:
    Data:
        Version: 3 (0x2)
        Serial Number:
            1e:0b:6b:93:76:56:f0:2f:4a:55:31:08:f1:1e:e0:81:6f:e9:28:c3
        Signature Algorithm: sha256WithRSAEncryption
        Issuer: C=NO, O=Nitpicksy, OU=Nitpicksy Certificate Authority, CN=Nitpicksy TLS CA
        Validity
            Not Before: Dec 11 12:46:33 2020 GMT
            Not After : Dec 11 12:46:33 2022 GMT
        Subject: C=NO, O=Nitpicksy, OU=Nitpicksy Certificate Authority, CN=PCC
        Subject Public Key Info:
            Public Key Algorithm: rsaEncryption
                RSA Public-Key: (4096 bit)
                Modulus:
                    00:a7:06:65:3e:de:e1:ab:f4:62:ef:cb:a5:33:af:
                    d9:2c:c7:85:2b:e8:9e:65:8d:24:bb:18:6c:28:fa:
                    06:ae:96:af:df:6f:2b:ca:a1:ea:e5:58:2f:17:7a:
                    28:12:57:79:0b:56:dc:00:69:83:11:21:bf:66:3f:
                    9d:f8:50:4b:2f:fe:2c:56:19:b0:db:0b:fe:77:98:
                    e5:0c:95:9a:0a:9a:09:a4:ea:dd:f2:c7:08:9b:7c:
                    a5:20:69:0e:e6:4c:df:c1:04:05:b7:fa:7e:7c:e1:
                    11:01:04:a9:8b:4f:53:82:b2:88:74:a8:fe:15:fe:
                    05:c9:bc:05:87:66:9b:30:16:7b:8d:a7:05:d3:c5:
                    88:ed:a1:3b:33:e4:3a:f0:e9:cf:75:46:db:69:79:
                    81:eb:d1:ba:58:bd:b9:a2:2d:eb:b0:72:1c:d6:f0:
                    f7:83:28:b8:d6:66:d3:19:13:e7:eb:fc:cb:ef:ff:
                    87:e9:53:dc:41:4b:22:85:c9:fe:e4:45:9f:76:65:
                    d8:1f:d7:74:70:93:e8:c0:05:52:52:38:85:4b:38:
                    ae:9f:ee:c9:3b:e9:09:92:9e:12:47:c8:43:8d:f8:
                    b6:7f:d9:8a:78:8e:fe:e9:89:2f:46:d4:fc:24:99:
                    59:77:69:c7:b6:1a:64:a4:03:e8:71:49:cb:99:b4:
                    9a:72:a7:25:96:d7:30:95:3f:71:c7:9b:db:67:a0:
                    ba:84:ca:36:ce:ea:2e:68:30:44:85:80:13:f4:37:
                    4a:81:92:c4:c6:53:04:10:73:9f:d3:ef:bd:03:b9:
                    fc:da:91:20:ca:ae:00:4c:fd:c1:1b:1a:cd:66:44:
                    f6:c9:e5:dc:bb:09:e2:09:fd:21:c3:43:17:cb:98:
                    27:aa:9d:97:1e:65:9d:03:72:e5:71:cc:2c:3a:35:
                    3a:23:3c:5c:e8:bd:1e:60:25:c2:52:8d:e9:c3:67:
                    d8:c3:2a:d5:8e:fb:8a:a5:88:83:bd:c5:e7:05:30:
                    9f:1d:d4:b7:8a:d7:bd:ca:53:8c:0c:40:68:ab:56:
                    76:98:71:22:d3:35:e1:fb:50:df:08:78:73:96:82:
                    be:64:6a:26:00:4a:74:e6:58:d0:a2:be:e7:10:7a:
                    ff:dc:14:60:c7:98:0c:fc:e6:7d:d5:40:35:d0:19:
                    29:b9:af:97:e4:3e:15:ad:9d:1d:21:02:f0:8a:d7:
                    6a:c8:0c:21:8a:ea:7c:dc:3b:60:b7:72:86:7b:3c:
                    5e:39:1c:24:c7:03:45:08:cc:86:1a:5f:a1:51:df:
                    4c:e2:ff:ef:08:eb:bf:fa:42:b4:03:c1:ee:aa:b8:
                    a7:78:97:9b:ed:cc:3c:03:6e:d6:8c:56:3c:b3:d9:
                    e6:ca:9b
                Exponent: 65537 (0x10001)
        X509v3 extensions:
            X509v3 Key Usage: critical
                Digital Signature, Key Encipherment
            X509v3 Basic Constraints: 
                CA:FALSE
            X509v3 Extended Key Usage: 
                TLS Web Server Authentication, TLS Web Client Authentication
            X509v3 Subject Key Identifier: 
                F8:7D:66:9D:75:16:40:9D:E2:B8:DC:0E:00:8F:A0:79:DA:A6:AF:37
            X509v3 Authority Key Identifier: 
                keyid:24:68:40:4E:50:44:54:B5:B5:5E:0D:17:4E:96:BB:DA:DB:15:E4:B6

            Authority Information Access: 
                CA Issuers - URI:http://nitpicksy.no/ca/tls-ca.cer

            X509v3 CRL Distribution Points: 

                Full Name:
                  URI:http://nitpicksy.no/ca/tls-ca.crl

            X509v3 Subject Alternative Name: 
                DNS:nitpicksy.no, DNS:www.nitpicksy.no, DNS:localhost, IP Address:127.0.0.1, IP Address:192.168.64.169
    Signature Algorithm: sha256WithRSAEncryption
         38:eb:28:c2:34:51:2a:9e:bc:92:ad:7c:7a:ef:b6:0a:d7:fb:
         72:dd:31:fd:f1:9c:94:e6:8e:92:50:5f:96:71:33:06:04:8b:
         9e:2a:e8:7a:f0:6f:f2:b8:4d:3c:c3:4e:fc:fe:98:ff:7d:98:
         48:c1:57:c0:7e:24:1f:85:a6:49:49:4e:f3:b8:aa:d2:65:c8:
         f6:8e:be:a2:b0:d2:84:e7:e5:ff:8e:7a:94:ce:69:77:93:b2:
         91:02:4d:05:ce:04:aa:67:5a:ca:32:ff:e6:f8:a3:25:00:38:
         61:46:21:4f:bd:f6:57:b2:20:e0:d6:51:07:55:ce:68:96:f9:
         84:08:f6:1a:f9:fc:cc:cc:06:d3:7f:fc:29:22:cb:84:d8:bf:
         92:7c:c7:63:62:a8:c7:e2:91:54:84:c2:fb:b4:36:55:7f:16:
         ea:95:eb:5d:f1:c5:a4:4d:ce:ec:28:9d:bc:97:07:9a:0d:08:
         43:ac:07:09:9e:3f:55:7f:b0:e1:36:a6:70:f1:b0:03:41:de:
         a0:70:30:a2:6e:eb:56:d5:d3:89:23:38:23:19:1c:fb:7c:5d:
         ef:c2:3f:58:68:78:93:e3:1a:18:bd:e4:87:b3:8e:a7:84:fe:
         1b:18:db:36:53:fa:91:9d:1f:e9:9e:bc:2b:cd:28:65:6f:0b:
         46:9d:85:de:d8:cb:c9:a0:d3:93:df:e1:4c:9a:99:b4:33:61:
         f1:6c:36:67:ea:4a:e0:70:8d:0d:e0:44:09:7d:4f:68:a9:3e:
         a5:70:8c:ad:f6:3c:81:37:1d:82:dd:03:5e:51:51:34:a0:c2:
         e6:47:24:60:a4:f7:03:7c:4d:05:72:71:9e:58:61:61:12:02:
         f7:71:9d:49:3f:13:2d:74:26:a1:51:94:1f:68:6a:a4:be:8b:
         a2:dd:72:d9:bf:c0:ff:ec:7d:fb:60:b8:b6:fa:ee:29:36:87:
         ee:1d:4a:63:d4:2b:0f:e8:04:c3:36:27:a7:b7:2e:cf:a7:85:
         84:dd:97:68:0c:a5:41:e0:41:d2:58:4a:b1:4e:b0:da:f0:79:
         18:47:53:d6:b3:75:3e:7e:40:d4:91:49:09:34:26:8d:50:c8:
         20:0c:a2:03:01:96:b9:38:ea:b6:da:ab:e5:e3:19:87:8b:bd:
         62:1a:a4:78:df:16:34:dc:55:64:48:ef:f2:45:26:b1:4a:35:
         9c:b2:e6:b4:09:11:5c:50:43:88:f8:52:24:3f:d0:70:f7:42:
         ac:3e:88:15:dd:27:b9:2a:db:97:6f:91:b6:b2:91:62:58:c7:
         12:f1:5e:31:47:27:ab:f5:ef:c8:53:d0:ab:aa:ae:ea:59:99:
         ba:80:8b:c0:0e:d2:ee:64
-----BEGIN CERTIFICATE-----
MIIGgjCCBGqgAwIBAgIUHgtrk3ZW8C9KVTEI8R7ggW/pKMMwDQYJKoZIhvcNAQEL
BQAwZjELMAkGA1UEBhMCTk8xEjAQBgNVBAoMCU5pdHBpY2tzeTEoMCYGA1UECwwf
Tml0cGlja3N5IENlcnRpZmljYXRlIEF1dGhvcml0eTEZMBcGA1UEAwwQTml0cGlj
a3N5IFRMUyBDQTAeFw0yMDEyMTExMjQ2MzNaFw0yMjEyMTExMjQ2MzNaMFkxCzAJ
BgNVBAYTAk5PMRIwEAYDVQQKDAlOaXRwaWNrc3kxKDAmBgNVBAsMH05pdHBpY2tz
eSBDZXJ0aWZpY2F0ZSBBdXRob3JpdHkxDDAKBgNVBAMMA1BDQzCCAiIwDQYJKoZI
hvcNAQEBBQADggIPADCCAgoCggIBAKcGZT7e4av0Yu/LpTOv2SzHhSvonmWNJLsY
bCj6Bq6Wr99vK8qh6uVYLxd6KBJXeQtW3ABpgxEhv2Y/nfhQSy/+LFYZsNsL/neY
5QyVmgqaCaTq3fLHCJt8pSBpDuZM38EEBbf6fnzhEQEEqYtPU4KyiHSo/hX+Bcm8
BYdmmzAWe42nBdPFiO2hOzPkOvDpz3VG22l5gevRuli9uaIt67ByHNbw94MouNZm
0xkT5+v8y+//h+lT3EFLIoXJ/uRFn3Zl2B/XdHCT6MAFUlI4hUs4rp/uyTvpCZKe
EkfIQ434tn/ZiniO/umJL0bU/CSZWXdpx7YaZKQD6HFJy5m0mnKnJZbXMJU/cceb
22eguoTKNs7qLmgwRIWAE/Q3SoGSxMZTBBBzn9PvvQO5/NqRIMquAEz9wRsazWZE
9snl3LsJ4gn9IcNDF8uYJ6qdlx5lnQNy5XHMLDo1OiM8XOi9HmAlwlKN6cNn2MMq
1Y77iqWIg73F5wUwnx3Ut4rXvcpTjAxAaKtWdphxItM14ftQ3wh4c5aCvmRqJgBK
dOZY0KK+5xB6/9wUYMeYDPzmfdVANdAZKbmvl+Q+Fa2dHSEC8IrXasgMIYrqfNw7
YLdyhns8XjkcJMcDRQjMhhpfoVHfTOL/7wjrv/pCtAPB7qq4p3iXm+3MPANu1oxW
PLPZ5sqbAgMBAAGjggEzMIIBLzAOBgNVHQ8BAf8EBAMCBaAwCQYDVR0TBAIwADAd
BgNVHSUEFjAUBggrBgEFBQcDAQYIKwYBBQUHAwIwHQYDVR0OBBYEFPh9Zp11FkCd
4rjcDgCPoHnapq83MB8GA1UdIwQYMBaAFCRoQE5QRFS1tV4NF06Wu9rbFeS2MD0G
CCsGAQUFBwEBBDEwLzAtBggrBgEFBQcwAoYhaHR0cDovL25pdHBpY2tzeS5uby9j
YS90bHMtY2EuY2VyMDIGA1UdHwQrMCkwJ6AloCOGIWh0dHA6Ly9uaXRwaWNrc3ku
bm8vY2EvdGxzLWNhLmNybDBABgNVHREEOTA3ggxuaXRwaWNrc3kubm+CEHd3dy5u
aXRwaWNrc3kubm+CCWxvY2FsaG9zdIcEfwAAAYcEwKhAqTANBgkqhkiG9w0BAQsF
AAOCAgEAOOsowjRRKp68kq18eu+2Ctf7ct0x/fGclOaOklBflnEzBgSLniroevBv
8rhNPMNO/P6Y/32YSMFXwH4kH4WmSUlO87iq0mXI9o6+orDShOfl/456lM5pd5Oy
kQJNBc4EqmdayjL/5vijJQA4YUYhT732V7Ig4NZRB1XOaJb5hAj2Gvn8zMwG03/8
KSLLhNi/knzHY2Kox+KRVITC+7Q2VX8W6pXrXfHFpE3O7CidvJcHmg0IQ6wHCZ4/
VX+w4TamcPGwA0HeoHAwom7rVtXTiSM4Ixkc+3xd78I/WGh4k+MaGL3kh7OOp4T+
GxjbNlP6kZ0f6Z68K80oZW8LRp2F3tjLyaDTk9/hTJqZtDNh8Ww2Z+pK4HCNDeBE
CX1PaKk+pXCMrfY8gTcdgt0DXlFRNKDC5kckYKT3A3xNBXJxnlhhYRIC93GdST8T
LXQmoVGUH2hqpL6Lot1y2b/A/+x9+2C4tvruKTaH7h1KY9QrD+gEwzYnp7cuz6eF
hN2XaAylQeBB0lhKsU6w2vB5GEdT1rN1Pn5A1JFJCTQmjVDIIAyiAwGWuTjqttqr
5eMZh4u9YhqkeN8WNNxVZEjv8kUmsUo1nLLmtAkRXFBDiPhSJD/QcPdCrD6IFd0n
uSrbl2+RtrKRYljHEvFeMUcnq/XvyFPQq6qu6lmZuoCLwA7S7mQ=
-----END CERTIFICATE-----
