Certificate:
    Data:
        Version: 3 (0x2)
        Serial Number:
            0b:a9:51:d2:38:e4:b5:b0:95:a0:bf:3e:bd:7e:82:fc:12:4c:a8:1e
        Signature Algorithm: sha256WithRSAEncryption
        Issuer: C=NO, O=Nitpicksy, OU=Nitpicksy Certificate Authority, CN=Nitpicksy TLS CA
        Validity
            Not Before: Dec  6 22:39:39 2020 GMT
            Not After : Dec  6 22:39:39 2022 GMT
        Subject: C=NO, O=Nitpicksy, OU=Nitpicksy Certificate Authority, CN=PCC
        Subject Public Key Info:
            Public Key Algorithm: rsaEncryption
                RSA Public-Key: (4096 bit)
                Modulus:
                    00:c8:a6:2a:eb:60:dc:80:9e:f4:96:55:7f:8f:54:
                    90:cf:e0:2d:08:00:46:63:a6:b3:74:3c:d6:fd:82:
                    ac:10:e6:52:e9:56:ed:48:66:af:ae:a8:f6:77:4a:
                    72:c7:c0:e6:c4:57:46:3f:b2:f7:cb:cf:1b:40:da:
                    1e:47:bc:41:e8:2f:08:14:c0:fe:9f:92:f5:d2:0f:
                    45:89:d2:7a:d8:60:91:37:f7:95:72:ba:85:09:03:
                    8c:b8:cd:fb:d0:ad:b7:74:6b:92:1c:b4:23:02:af:
                    de:80:8d:1e:ca:e8:8e:a1:23:85:48:0f:85:df:36:
                    89:8f:7a:8b:d8:93:6c:78:20:3f:7a:aa:97:3f:13:
                    ed:13:a4:0a:20:6c:72:17:fb:9f:81:88:5e:4b:3e:
                    45:3d:b4:16:7c:79:14:89:36:6a:f5:8f:4c:c4:6f:
                    f4:06:d7:49:8e:5a:20:53:1b:c3:ef:22:e0:2c:7a:
                    e6:c3:02:ad:17:f4:8d:9d:13:72:a7:63:e1:e6:6b:
                    5b:00:5f:21:86:98:fe:b7:e1:9f:95:36:b7:37:e0:
                    a7:8a:cf:ff:f2:92:30:6d:13:14:30:40:24:a6:5d:
                    c1:92:57:4e:ce:3d:72:89:31:e6:d4:32:fe:4e:28:
                    17:6d:ef:6d:d7:3c:b0:ac:7f:d1:78:2a:86:49:38:
                    a5:54:08:f0:cb:ff:d1:1a:9f:83:2d:27:5b:68:33:
                    a5:63:92:ab:5f:55:a5:09:93:6e:db:25:4a:72:af:
                    50:9e:02:ab:42:7d:87:33:b0:eb:ed:3c:b6:fa:74:
                    51:f6:e8:6c:2d:5b:17:4b:9a:66:46:3d:fc:d1:c0:
                    71:39:4a:87:bf:df:4a:60:6b:dc:99:30:95:1b:0d:
                    87:79:06:4e:1e:6e:39:fd:e5:5b:26:2a:a0:af:e7:
                    90:63:3f:db:04:2c:99:0b:2e:58:01:f7:57:61:fe:
                    6c:9c:e7:99:f9:55:c0:20:f8:92:dc:5f:e7:5e:47:
                    4b:72:07:ef:cb:e9:e3:6a:18:3f:ac:8c:3e:2b:d6:
                    46:3b:92:4c:ab:29:2a:e9:0b:6e:9c:53:57:eb:ef:
                    23:66:7b:f2:fd:a0:81:ac:1e:4b:52:33:61:3b:1e:
                    c9:14:1c:1b:02:73:61:4a:e8:a1:22:ff:74:98:16:
                    7b:9f:82:fe:45:98:2e:6a:34:1c:83:9f:6a:f7:cd:
                    de:95:a9:5a:2c:1c:b4:84:70:b2:fa:ce:f8:19:36:
                    8b:35:d5:f1:bc:01:ab:aa:ec:f2:b7:eb:3b:ea:df:
                    35:d7:7d:5d:08:95:0b:2c:ff:9b:04:fd:07:f7:5e:
                    6e:83:15:dd:56:67:ba:25:e2:d6:dc:ed:31:a4:2d:
                    74:51:91
                Exponent: 65537 (0x10001)
        X509v3 extensions:
            X509v3 Key Usage: critical
                Digital Signature, Key Encipherment
            X509v3 Basic Constraints: 
                CA:FALSE
            X509v3 Extended Key Usage: 
                TLS Web Server Authentication, TLS Web Client Authentication
            X509v3 Subject Key Identifier: 
                D1:08:6D:AC:2C:CE:E9:C2:78:70:B8:0F:A2:CD:F4:E2:9C:1F:86:83
            X509v3 Authority Key Identifier: 
                keyid:83:CC:02:D6:E0:31:A6:2D:8E:F8:85:43:99:55:48:F6:21:22:90:49

            Authority Information Access: 
                CA Issuers - URI:http://nitpicksy.no/ca/tls-ca.cer

            X509v3 CRL Distribution Points: 

                Full Name:
                  URI:http://nitpicksy.no/ca/tls-ca.crl

            X509v3 Subject Alternative Name: 
                DNS:nitpicksy.no, DNS:www.nitpicksy.no, DNS:localhost
    Signature Algorithm: sha256WithRSAEncryption
         9f:a8:35:a1:b5:95:a9:61:e6:7b:18:af:44:f9:f3:ca:be:8f:
         5d:4d:f8:7e:93:9b:3b:3b:5f:0f:3f:12:f4:7f:cd:33:3a:63:
         ef:dd:ac:d5:71:f2:1f:05:41:15:29:20:83:f2:08:19:11:41:
         80:ab:24:59:88:f8:c8:2a:b2:22:4c:8b:68:c7:78:fc:c0:21:
         8a:8d:f0:29:4c:d6:76:bd:6c:73:a3:04:1d:96:14:02:b3:39:
         49:c7:84:81:d6:95:11:93:40:5c:7e:1f:3f:75:92:6f:50:54:
         9b:47:2a:42:7b:1b:f4:48:f5:34:bb:e3:4d:17:44:80:b8:ba:
         72:ce:24:aa:f8:81:fa:6d:17:89:9a:d9:f3:1d:31:03:04:59:
         b2:06:05:e1:43:35:3e:7c:7f:88:3e:6f:d0:06:b8:77:7f:a0:
         69:54:a6:e3:2a:0a:49:47:27:5a:fe:2c:53:08:67:52:e6:48:
         63:ed:25:e6:75:d8:98:68:4f:db:1a:ef:ca:c2:3f:dc:69:2e:
         30:f7:a0:e1:dd:59:ab:93:fe:d0:b6:64:c9:d2:b6:44:d3:ae:
         bc:02:73:61:25:41:75:56:ee:72:e8:f3:a0:65:67:ca:7a:39:
         d1:b1:e7:49:db:e5:26:55:fb:aa:12:96:d5:43:81:ed:6f:eb:
         c5:bb:7c:6b:4c:be:52:df:1e:60:7f:17:cb:41:9d:93:4c:12:
         88:6e:83:2b:30:b9:d8:64:86:79:9c:40:2d:bb:32:28:99:dc:
         ac:5e:5a:36:4f:d7:90:b7:fb:ca:2b:e4:a6:38:81:64:6e:38:
         03:7a:6f:db:38:d6:c7:0a:99:f2:18:72:f1:fe:7b:7b:42:8a:
         43:83:34:f7:0b:c7:b0:02:ca:8e:ce:91:b2:dc:6a:a7:79:d4:
         fa:94:9e:01:1a:17:bd:00:78:74:b1:70:5a:e2:75:fd:09:34:
         de:7c:01:07:31:03:6a:69:45:d1:d3:05:e8:07:0e:ee:2c:26:
         bb:32:a7:b6:c1:ca:50:8a:f0:0b:db:d5:9e:6f:59:67:d5:01:
         3c:b2:a2:32:7e:b4:c4:60:f9:a1:11:79:63:75:8d:94:00:3e:
         f0:20:0b:72:c9:fe:30:e6:01:92:03:a3:b2:a2:f0:70:c3:e4:
         40:24:f5:4d:af:6c:00:4b:d7:89:21:c7:5d:55:8a:46:9a:2a:
         bf:7c:be:3a:64:72:f7:c5:a2:5e:78:26:8f:4d:56:05:ab:d1:
         8f:7a:6e:49:cb:8e:ac:31:01:da:af:3e:1e:f3:ba:1a:3d:f4:
         3f:e2:17:bd:32:4b:75:31:71:cc:a4:64:38:69:0d:c1:c5:6e:
         97:73:c4:f3:83:7c:29:84
-----BEGIN CERTIFICATE-----
MIIGdjCCBF6gAwIBAgIUC6lR0jjktbCVoL8+vX6C/BJMqB4wDQYJKoZIhvcNAQEL
BQAwZjELMAkGA1UEBhMCTk8xEjAQBgNVBAoMCU5pdHBpY2tzeTEoMCYGA1UECwwf
Tml0cGlja3N5IENlcnRpZmljYXRlIEF1dGhvcml0eTEZMBcGA1UEAwwQTml0cGlj
a3N5IFRMUyBDQTAeFw0yMDEyMDYyMjM5MzlaFw0yMjEyMDYyMjM5MzlaMFkxCzAJ
BgNVBAYTAk5PMRIwEAYDVQQKDAlOaXRwaWNrc3kxKDAmBgNVBAsMH05pdHBpY2tz
eSBDZXJ0aWZpY2F0ZSBBdXRob3JpdHkxDDAKBgNVBAMMA1BDQzCCAiIwDQYJKoZI
hvcNAQEBBQADggIPADCCAgoCggIBAMimKutg3ICe9JZVf49UkM/gLQgARmOms3Q8
1v2CrBDmUulW7Uhmr66o9ndKcsfA5sRXRj+y98vPG0DaHke8QegvCBTA/p+S9dIP
RYnSethgkTf3lXK6hQkDjLjN+9Ctt3Rrkhy0IwKv3oCNHsrojqEjhUgPhd82iY96
i9iTbHggP3qqlz8T7ROkCiBschf7n4GIXks+RT20Fnx5FIk2avWPTMRv9AbXSY5a
IFMbw+8i4Cx65sMCrRf0jZ0Tcqdj4eZrWwBfIYaY/rfhn5U2tzfgp4rP//KSMG0T
FDBAJKZdwZJXTs49cokx5tQy/k4oF23vbdc8sKx/0Xgqhkk4pVQI8Mv/0Rqfgy0n
W2gzpWOSq19VpQmTbtslSnKvUJ4Cq0J9hzOw6+08tvp0UfbobC1bF0uaZkY9/NHA
cTlKh7/fSmBr3JkwlRsNh3kGTh5uOf3lWyYqoK/nkGM/2wQsmQsuWAH3V2H+bJzn
mflVwCD4ktxf515HS3IH78vp42oYP6yMPivWRjuSTKspKukLbpxTV+vvI2Z78v2g
gaweS1IzYTseyRQcGwJzYUrooSL/dJgWe5+C/kWYLmo0HIOfavfN3pWpWiwctIRw
svrO+Bk2izXV8bwBq6rs8rfrO+rfNdd9XQiVCyz/mwT9B/deboMV3VZnuiXi1tzt
MaQtdFGRAgMBAAGjggEnMIIBIzAOBgNVHQ8BAf8EBAMCBaAwCQYDVR0TBAIwADAd
BgNVHSUEFjAUBggrBgEFBQcDAQYIKwYBBQUHAwIwHQYDVR0OBBYEFNEIbawszunC
eHC4D6LN9OKcH4aDMB8GA1UdIwQYMBaAFIPMAtbgMaYtjviFQ5lVSPYhIpBJMD0G
CCsGAQUFBwEBBDEwLzAtBggrBgEFBQcwAoYhaHR0cDovL25pdHBpY2tzeS5uby9j
YS90bHMtY2EuY2VyMDIGA1UdHwQrMCkwJ6AloCOGIWh0dHA6Ly9uaXRwaWNrc3ku
bm8vY2EvdGxzLWNhLmNybDA0BgNVHREELTArggxuaXRwaWNrc3kubm+CEHd3dy5u
aXRwaWNrc3kubm+CCWxvY2FsaG9zdDANBgkqhkiG9w0BAQsFAAOCAgEAn6g1obWV
qWHmexivRPnzyr6PXU34fpObOztfDz8S9H/NMzpj792s1XHyHwVBFSkgg/IIGRFB
gKskWYj4yCqyIkyLaMd4/MAhio3wKUzWdr1sc6MEHZYUArM5SceEgdaVEZNAXH4f
P3WSb1BUm0cqQnsb9Ej1NLvjTRdEgLi6cs4kqviB+m0XiZrZ8x0xAwRZsgYF4UM1
Pnx/iD5v0Aa4d3+gaVSm4yoKSUcnWv4sUwhnUuZIY+0l5nXYmGhP2xrvysI/3Gku
MPeg4d1Zq5P+0LZkydK2RNOuvAJzYSVBdVbucujzoGVnyno50bHnSdvlJlX7qhKW
1UOB7W/rxbt8a0y+Ut8eYH8Xy0Gdk0wSiG6DKzC52GSGeZxALbsyKJncrF5aNk/X
kLf7yivkpjiBZG44A3pv2zjWxwqZ8hhy8f57e0KKQ4M09wvHsALKjs6Rstxqp3nU
+pSeARoXvQB4dLFwWuJ1/Qk03nwBBzEDamlF0dMF6AcO7iwmuzKntsHKUIrwC9vV
nm9ZZ9UBPLKiMn60xGD5oRF5Y3WNlAA+8CALcsn+MOYBkgOjsqLwcMPkQCT1Ta9s
AEvXiSHHXVWKRpoqv3y+OmRy98WiXngmj01WBavRj3puScuOrDEB2q8+HvO6Gj30
P+IXvTJLdTFxzKRkOGkNwcVul3PE84N8KYQ=
-----END CERTIFICATE-----
