Certificate:
    Data:
        Version: 3 (0x2)
        Serial Number:
            56:35:ca:1f:a3:50:de:d4:ff:b8:69:ba:ee:66:6d:07:77:fe:01:d4
        Signature Algorithm: sha256WithRSAEncryption
        Issuer: C=NO, O=Nitpicksy, OU=Nitpicksy Certificate Authority, CN=Nitpicksy TLS CA
        Validity
            Not Before: Dec  6 22:39:34 2020 GMT
            Not After : Dec  6 22:39:34 2022 GMT
        Subject: C=NO, O=Nitpicksy, OU=Nitpicksy Certificate Authority, CN=zuul
        Subject Public Key Info:
            Public Key Algorithm: rsaEncryption
                RSA Public-Key: (4096 bit)
                Modulus:
                    00:d6:62:3d:e3:dd:55:b2:c3:ab:db:78:ca:90:ab:
                    de:6a:0c:cc:9a:80:59:7f:74:65:b5:04:9b:19:e4:
                    07:3c:46:67:77:17:6e:30:f3:ed:09:01:5a:5c:97:
                    b4:cc:af:4b:c9:67:b2:b3:be:be:db:4d:35:6d:ba:
                    d9:ed:03:fb:af:23:1b:c7:8d:91:56:e7:4a:d0:53:
                    26:8e:4e:f4:e4:3e:e5:6d:9e:cd:5e:83:f5:45:af:
                    8a:02:36:25:ec:47:d8:11:9a:b5:5a:5b:a0:4f:bd:
                    cd:e4:93:7c:48:06:ed:94:d1:8a:a5:b8:59:c2:70:
                    24:06:a2:b2:40:8b:9b:c8:64:52:1c:e8:5f:27:76:
                    e8:d1:38:a0:34:4a:be:36:b1:5a:d2:f5:ec:b2:70:
                    8f:e8:dc:e2:8f:33:8c:54:5e:ec:81:93:52:32:e0:
                    b2:de:68:d6:fe:a5:e5:42:d3:67:d3:b9:89:85:5e:
                    54:72:a0:bb:c1:e0:8a:d3:f1:22:ad:41:cf:73:90:
                    56:dc:8e:30:b9:1a:5c:90:89:d2:ba:63:57:f9:d8:
                    d0:83:cd:2f:38:8e:31:d8:34:d9:4f:9c:80:b0:60:
                    2d:93:4c:32:80:2b:c5:ce:ec:79:70:d0:36:c5:c1:
                    62:e4:6f:34:9b:93:a0:3c:02:2f:66:62:ea:04:54:
                    4f:35:30:62:37:c5:d7:73:4a:9a:45:ff:38:98:30:
                    75:62:cb:2d:51:4c:dc:fd:95:83:5d:fa:a2:3d:85:
                    35:eb:68:c6:16:72:77:39:23:c9:d6:4d:3f:ee:2d:
                    0d:3c:98:d2:00:39:c0:4a:42:ec:de:15:e0:9b:1b:
                    15:7c:81:c8:ae:cd:4f:18:e2:e0:f3:f8:07:31:4d:
                    b7:92:4a:ff:de:73:ad:9d:4f:54:69:05:2d:e4:6e:
                    ac:8f:d5:07:c0:73:f5:5f:1a:23:d9:1a:e0:07:27:
                    db:4f:6b:f2:5d:29:5d:c2:c6:53:47:e4:88:0f:88:
                    6c:cf:32:6d:bf:c5:a2:4e:a5:39:38:1e:24:8f:f7:
                    9c:02:89:80:9c:d9:8f:d4:1b:1b:e5:91:ab:ed:15:
                    21:c8:ac:fb:82:68:70:f6:25:7f:41:13:c0:b7:2a:
                    f2:c0:f6:e4:50:f2:6d:84:84:5b:dc:a6:ac:88:15:
                    74:75:b6:57:33:b2:5c:3b:e7:70:59:3b:39:5c:f2:
                    8a:ee:ff:e7:e4:36:90:e2:08:99:27:a3:1c:94:3f:
                    f6:88:e9:e3:a5:b1:89:93:ad:97:03:e0:ad:1f:25:
                    80:d9:39:07:e3:fb:98:01:51:ef:00:0b:f7:d8:07:
                    81:d1:32:4d:df:55:db:79:b7:e7:a1:c8:3a:1b:a1:
                    a2:f5:0f
                Exponent: 65537 (0x10001)
        X509v3 extensions:
            X509v3 Key Usage: critical
                Digital Signature, Key Encipherment
            X509v3 Basic Constraints: 
                CA:FALSE
            X509v3 Extended Key Usage: 
                TLS Web Server Authentication, TLS Web Client Authentication
            X509v3 Subject Key Identifier: 
                62:FB:EF:61:C5:38:48:F8:94:4B:33:DA:69:52:40:6B:81:71:FF:B3
            X509v3 Authority Key Identifier: 
                keyid:83:CC:02:D6:E0:31:A6:2D:8E:F8:85:43:99:55:48:F6:21:22:90:49

            Authority Information Access: 
                CA Issuers - URI:http://nitpicksy.no/ca/tls-ca.cer

            X509v3 CRL Distribution Points: 

                Full Name:
                  URI:http://nitpicksy.no/ca/tls-ca.crl

            X509v3 Subject Alternative Name: 
                DNS:nitpicksy.no, DNS:www.nitpicksy.no, DNS:localhost
    Signature Algorithm: sha256WithRSAEncryption
         0d:6a:0f:48:af:4e:a0:60:28:93:fb:c4:50:a5:10:2b:80:6f:
         09:93:86:5e:d6:d1:b2:3f:84:dc:40:bd:cc:c9:6c:48:8a:40:
         cd:82:77:d9:f1:56:b6:b4:72:e1:30:19:39:28:a3:d5:9b:48:
         37:e7:df:4c:3c:d3:54:3d:15:e1:34:44:e4:f2:60:8e:2b:1a:
         27:54:4e:58:41:a6:9f:89:39:9b:09:ed:7a:93:a8:58:e8:f9:
         db:62:19:5d:2d:2b:fd:50:d2:d0:6c:71:8d:10:c6:52:72:16:
         37:04:36:07:3e:50:12:fe:d1:a0:dc:32:66:7b:df:11:20:73:
         b4:1d:e4:f7:a0:1a:22:4f:56:22:60:ab:38:54:67:3d:75:43:
         d4:9f:e3:8a:28:5d:31:fe:af:af:1c:37:1d:c8:70:58:16:b6:
         87:b3:cf:5f:87:bd:f2:05:50:4e:5c:24:ce:17:90:08:38:44:
         60:c1:08:03:bd:39:b6:8b:db:d0:69:f4:cd:2b:8e:21:5b:7b:
         d8:26:89:d5:e8:b0:a5:09:3a:b4:68:12:3e:8c:ee:18:b2:8d:
         5e:8f:39:6d:c6:87:51:53:e4:5c:64:3c:2a:cb:7a:b9:df:97:
         bd:dc:27:c0:2e:41:a7:d4:5f:68:32:17:b5:21:b0:6a:2e:0e:
         2a:19:b0:18:66:97:56:c5:03:a3:8f:5f:a4:1b:25:b1:a4:46:
         be:4a:d2:71:1f:b5:74:c4:ad:c0:08:d7:91:67:d0:b4:e0:a3:
         72:cb:ca:04:24:d5:2f:b5:2b:9e:d1:4d:d7:58:e8:7c:96:2a:
         3e:7f:75:9f:03:4a:2a:8f:6e:ea:d8:17:94:e0:ac:13:5e:52:
         34:3f:36:0e:3a:f7:d6:21:5a:1a:75:3e:6b:87:3a:1d:8f:d4:
         ca:64:05:56:db:b6:75:e6:50:38:50:45:d2:98:ee:17:59:08:
         29:1d:ff:46:46:9f:da:4c:12:92:d4:63:b8:2c:8c:01:87:ee:
         d6:d1:81:25:37:61:40:41:11:40:96:e5:a8:9f:4e:f2:10:da:
         4b:58:f2:83:71:92:97:c0:c5:05:79:95:41:30:92:c0:58:29:
         f2:46:25:19:f8:fd:6c:fc:63:78:00:10:e3:16:16:04:f2:31:
         f7:ac:af:dd:88:d7:63:b8:cd:f7:68:30:e7:34:74:95:a2:24:
         ae:3c:a0:05:60:37:5a:99:c3:50:6c:ec:a4:5a:b6:cc:8c:ca:
         b9:47:3d:17:da:86:f3:b1:1e:9e:53:5f:eb:b8:85:bd:25:35:
         71:5a:72:14:ad:c2:0e:7e:bc:b8:6e:4a:d1:48:e9:13:38:47:
         3b:03:13:b4:86:dc:b8:5c
-----BEGIN CERTIFICATE-----
MIIGdzCCBF+gAwIBAgIUVjXKH6NQ3tT/uGm67mZtB3f+AdQwDQYJKoZIhvcNAQEL
BQAwZjELMAkGA1UEBhMCTk8xEjAQBgNVBAoMCU5pdHBpY2tzeTEoMCYGA1UECwwf
Tml0cGlja3N5IENlcnRpZmljYXRlIEF1dGhvcml0eTEZMBcGA1UEAwwQTml0cGlj
a3N5IFRMUyBDQTAeFw0yMDEyMDYyMjM5MzRaFw0yMjEyMDYyMjM5MzRaMFoxCzAJ
BgNVBAYTAk5PMRIwEAYDVQQKDAlOaXRwaWNrc3kxKDAmBgNVBAsMH05pdHBpY2tz
eSBDZXJ0aWZpY2F0ZSBBdXRob3JpdHkxDTALBgNVBAMMBHp1dWwwggIiMA0GCSqG
SIb3DQEBAQUAA4ICDwAwggIKAoICAQDWYj3j3VWyw6vbeMqQq95qDMyagFl/dGW1
BJsZ5Ac8Rmd3F24w8+0JAVpcl7TMr0vJZ7Kzvr7bTTVtutntA/uvIxvHjZFW50rQ
UyaOTvTkPuVtns1eg/VFr4oCNiXsR9gRmrVaW6BPvc3kk3xIBu2U0YqluFnCcCQG
orJAi5vIZFIc6F8ndujROKA0Sr42sVrS9eyycI/o3OKPM4xUXuyBk1Iy4LLeaNb+
peVC02fTuYmFXlRyoLvB4IrT8SKtQc9zkFbcjjC5GlyQidK6Y1f52NCDzS84jjHY
NNlPnICwYC2TTDKAK8XO7Hlw0DbFwWLkbzSbk6A8Ai9mYuoEVE81MGI3xddzSppF
/ziYMHViyy1RTNz9lYNd+qI9hTXraMYWcnc5I8nWTT/uLQ08mNIAOcBKQuzeFeCb
GxV8gciuzU8Y4uDz+AcxTbeSSv/ec62dT1RpBS3kbqyP1QfAc/VfGiPZGuAHJ9tP
a/JdKV3CxlNH5IgPiGzPMm2/xaJOpTk4HiSP95wCiYCc2Y/UGxvlkavtFSHIrPuC
aHD2JX9BE8C3KvLA9uRQ8m2EhFvcpqyIFXR1tlczslw753BZOzlc8oru/+fkNpDi
CJknoxyUP/aI6eOlsYmTrZcD4K0fJYDZOQfj+5gBUe8AC/fYB4HRMk3fVdt5t+eh
yDoboaL1DwIDAQABo4IBJzCCASMwDgYDVR0PAQH/BAQDAgWgMAkGA1UdEwQCMAAw
HQYDVR0lBBYwFAYIKwYBBQUHAwEGCCsGAQUFBwMCMB0GA1UdDgQWBBRi++9hxThI
+JRLM9ppUkBrgXH/szAfBgNVHSMEGDAWgBSDzALW4DGmLY74hUOZVUj2ISKQSTA9
BggrBgEFBQcBAQQxMC8wLQYIKwYBBQUHMAKGIWh0dHA6Ly9uaXRwaWNrc3kubm8v
Y2EvdGxzLWNhLmNlcjAyBgNVHR8EKzApMCegJaAjhiFodHRwOi8vbml0cGlja3N5
Lm5vL2NhL3Rscy1jYS5jcmwwNAYDVR0RBC0wK4IMbml0cGlja3N5Lm5vghB3d3cu
bml0cGlja3N5Lm5vgglsb2NhbGhvc3QwDQYJKoZIhvcNAQELBQADggIBAA1qD0iv
TqBgKJP7xFClECuAbwmThl7W0bI/hNxAvczJbEiKQM2Cd9nxVra0cuEwGTkoo9Wb
SDfn30w801Q9FeE0ROTyYI4rGidUTlhBpp+JOZsJ7XqTqFjo+dtiGV0tK/1Q0tBs
cY0QxlJyFjcENgc+UBL+0aDcMmZ73xEgc7Qd5PegGiJPViJgqzhUZz11Q9Sf44oo
XTH+r68cNx3IcFgWtoezz1+HvfIFUE5cJM4XkAg4RGDBCAO9ObaL29Bp9M0rjiFb
e9gmidXosKUJOrRoEj6M7hiyjV6POW3Gh1FT5FxkPCrLernfl73cJ8AuQafUX2gy
F7UhsGouDioZsBhml1bFA6OPX6QbJbGkRr5K0nEftXTErcAI15Fn0LTgo3LLygQk
1S+1K57RTddY6HyWKj5/dZ8DSiqPburYF5TgrBNeUjQ/Ng4699YhWhp1PmuHOh2P
1MpkBVbbtnXmUDhQRdKY7hdZCCkd/0ZGn9pMEpLUY7gsjAGH7tbRgSU3YUBBEUCW
5aifTvIQ2ktY8oNxkpfAxQV5lUEwksBYKfJGJRn4/Wz8Y3gAEOMWFgTyMfesr92I
12O4zfdoMOc0dJWiJK48oAVgN1qZw1Bs7KRatsyMyrlHPRfahvOxHp5TX+u4hb0l
NXFachStwg5+vLhuStFI6RM4RzsDE7SG3Lhc
-----END CERTIFICATE-----
