Certificate:
    Data:
        Version: 3 (0x2)
        Serial Number:
            2a:21:45:65:d4:aa:0c:e6:1b:15:2b:3e:4a:3e:81:9e:a3:fe:f9:d7
        Signature Algorithm: sha256WithRSAEncryption
        Issuer: C=NO, O=Nitpicksy, OU=Nitpicksy Certificate Authority, CN=Nitpicksy TLS CA
        Validity
            Not Before: Dec 11 12:46:27 2020 GMT
            Not After : Dec 11 12:46:27 2022 GMT
        Subject: C=NO, O=Nitpicksy, OU=Nitpicksy Certificate Authority, CN=zuul
        Subject Public Key Info:
            Public Key Algorithm: rsaEncryption
                RSA Public-Key: (4096 bit)
                Modulus:
                    00:b3:e7:b4:15:26:7f:16:6f:a3:ea:ca:c2:6d:4e:
                    13:1b:b2:f2:a2:85:d1:0b:4f:bb:25:ae:ee:8e:8c:
                    bd:46:8b:18:78:5d:0c:75:54:67:37:03:10:af:77:
                    a7:6a:67:04:b1:02:7d:0a:cb:a2:7b:d8:3e:32:39:
                    fb:10:a2:3e:b2:59:f5:e7:3f:70:e7:dc:a0:cf:94:
                    03:79:07:c6:14:2a:15:09:19:bc:bc:46:ee:86:2a:
                    56:e7:e9:67:37:2b:6b:ed:87:fc:8b:d4:67:ba:63:
                    24:c3:dc:d9:17:66:85:84:56:35:4a:64:0d:0c:9c:
                    00:18:86:28:8d:75:36:92:9f:30:98:54:fd:1b:67:
                    bb:26:6a:42:17:f8:83:a3:25:e2:6d:e5:58:a0:53:
                    f2:6d:71:29:9c:30:73:45:fd:47:b0:9b:ae:91:dc:
                    37:e9:a1:3c:88:1b:43:7e:67:70:89:ee:61:75:e5:
                    72:a9:e3:f5:1f:94:27:d7:64:3e:44:8a:6a:7e:74:
                    94:e4:00:40:79:e3:61:ea:66:cd:4d:19:50:45:e0:
                    0a:3e:5c:94:91:7d:64:3d:16:91:cb:60:e2:87:2b:
                    5a:3c:18:20:43:b0:ba:9d:db:4a:a4:b0:c8:28:35:
                    65:d2:03:b4:73:83:73:8b:16:ba:c6:a6:fe:68:30:
                    74:6f:57:9f:1d:e0:af:fa:9e:16:c3:19:3a:a7:f2:
                    9e:e2:87:3c:75:7f:c1:71:fa:a1:ab:46:9f:86:3d:
                    9f:01:f8:52:63:6f:6d:e6:9f:23:b6:3f:15:fe:b4:
                    d2:e7:eb:b8:a9:56:d0:54:73:1e:57:5f:9d:8b:5b:
                    9e:d1:b3:ad:3e:27:a5:c6:1d:91:ab:20:26:93:66:
                    be:ac:58:9d:0c:66:43:a9:19:d9:3b:ce:c8:7c:92:
                    7f:9d:a4:97:2b:cc:4a:85:0f:bb:30:65:08:02:c5:
                    c2:45:50:5d:7c:dc:f5:19:c1:57:5e:1f:09:94:b9:
                    6c:94:57:f6:d4:49:71:af:a5:27:74:aa:20:7f:83:
                    c6:ed:34:bc:25:41:ee:7c:fe:26:40:d4:6f:4f:06:
                    d2:f2:5e:11:1e:fe:7e:c3:9f:cb:1a:f5:93:c0:e9:
                    4f:f5:3c:a7:be:1c:e9:1e:f4:af:9d:d9:b9:e6:0e:
                    82:63:bb:5f:cb:a6:4c:ca:40:98:ee:8e:99:a1:84:
                    eb:89:6f:a3:11:d4:ca:bb:b0:73:e8:9c:13:34:d0:
                    72:b0:f3:9f:62:07:e6:10:b3:54:92:a0:e5:82:be:
                    11:b8:80:bc:0a:1e:ba:02:21:eb:64:aa:b0:af:d4:
                    4b:a9:f7:19:7b:fa:6a:db:a5:1e:a4:0f:44:dd:46:
                    dd:b4:6b
                Exponent: 65537 (0x10001)
        X509v3 extensions:
            X509v3 Key Usage: critical
                Digital Signature, Key Encipherment
            X509v3 Basic Constraints: 
                CA:FALSE
            X509v3 Extended Key Usage: 
                TLS Web Server Authentication, TLS Web Client Authentication
            X509v3 Subject Key Identifier: 
                18:D9:DD:BD:4C:4F:94:A5:5B:01:67:D1:C3:61:2C:A6:BA:A1:D2:BB
            X509v3 Authority Key Identifier: 
                keyid:24:68:40:4E:50:44:54:B5:B5:5E:0D:17:4E:96:BB:DA:DB:15:E4:B6

            Authority Information Access: 
                CA Issuers - URI:http://nitpicksy.no/ca/tls-ca.cer

            X509v3 CRL Distribution Points: 

                Full Name:
                  URI:http://nitpicksy.no/ca/tls-ca.crl

            X509v3 Subject Alternative Name: 
                DNS:nitpicksy.no, DNS:www.nitpicksy.no, DNS:localhost, IP Address:127.0.0.1, IP Address:192.168.64.169
    Signature Algorithm: sha256WithRSAEncryption
         95:7c:1b:f4:a6:1a:35:a5:6e:16:35:d0:7e:f0:fd:77:87:ec:
         83:79:b0:17:c0:c3:50:0c:bc:e9:89:75:37:74:bf:bc:a4:f6:
         24:0a:96:1b:af:16:63:90:ca:25:ec:69:63:a0:c8:01:65:52:
         5f:5e:dd:74:fd:54:d1:18:ad:ec:f0:69:ad:7c:2b:a2:60:ec:
         02:65:9f:98:8e:6d:74:d4:08:a4:4e:0e:07:68:b2:3a:d6:be:
         82:b4:05:d5:86:41:c7:eb:e2:30:54:58:04:c3:17:4e:fa:c9:
         53:3b:12:e1:f2:cf:9b:22:1c:98:af:59:c1:d6:6c:d1:86:bb:
         2c:94:ff:c8:93:4f:59:a6:d0:24:ef:27:6b:81:a0:a9:a3:13:
         84:a4:2b:ec:6d:51:3d:9a:8c:10:ac:89:ca:81:d1:20:e0:9a:
         16:06:84:1e:0b:f3:18:17:51:24:d3:ea:81:d7:7f:c3:c6:c7:
         27:90:71:36:30:9f:16:48:8d:51:60:04:93:6c:36:d1:1c:50:
         e1:6c:a0:82:2c:e4:2c:2d:0d:e9:16:94:ff:44:3e:7c:43:e7:
         f7:59:a4:4e:93:c5:db:30:20:71:f7:3c:71:c6:64:6a:86:e0:
         a7:c6:5b:a0:dc:a8:e8:ba:9f:44:63:7b:b5:be:28:ad:6e:8b:
         93:5b:9f:7b:c8:48:10:28:98:7b:ae:41:1b:7e:62:de:55:14:
         5c:38:a9:3e:7a:5e:a7:2a:41:de:88:82:dd:e9:c7:b7:d5:61:
         91:cc:93:24:62:00:b4:f3:89:ed:b0:d4:bd:86:b4:ae:76:14:
         78:31:e8:1c:80:d8:34:e0:03:e9:58:83:82:49:6f:cb:84:55:
         b2:18:de:e3:14:4e:28:c1:02:76:d2:c4:0e:b3:51:91:d0:2b:
         16:24:22:33:bb:ff:18:97:a2:d7:cc:df:ad:26:75:44:d0:62:
         13:15:43:05:c9:bb:c4:c7:57:7b:e2:59:3c:cd:4a:48:a1:a8:
         80:00:f3:d0:70:a3:bd:9c:a0:82:42:c9:f7:1f:2e:6f:0e:0e:
         bc:d2:da:9c:62:43:af:28:dc:64:79:b4:9c:51:59:83:b0:bc:
         d8:9e:c2:6b:99:4a:98:c9:72:f1:d7:61:31:0c:a5:22:a3:20:
         90:2a:90:65:94:c4:d7:05:a6:fe:12:d7:37:f4:b0:60:19:f8:
         a1:7a:75:61:73:03:4a:6b:1f:b9:74:58:32:ac:35:87:67:f2:
         9c:4d:e3:d6:b2:65:11:49:5e:60:c9:d0:c6:40:01:6d:bd:9c:
         05:b2:a4:5c:dd:84:f9:19:fe:68:88:aa:8f:e3:f3:93:c3:d3:
         66:11:6a:97:a8:18:ee:13
-----BEGIN CERTIFICATE-----
MIIGgzCCBGugAwIBAgIUKiFFZdSqDOYbFSs+Sj6BnqP++dcwDQYJKoZIhvcNAQEL
BQAwZjELMAkGA1UEBhMCTk8xEjAQBgNVBAoMCU5pdHBpY2tzeTEoMCYGA1UECwwf
Tml0cGlja3N5IENlcnRpZmljYXRlIEF1dGhvcml0eTEZMBcGA1UEAwwQTml0cGlj
a3N5IFRMUyBDQTAeFw0yMDEyMTExMjQ2MjdaFw0yMjEyMTExMjQ2MjdaMFoxCzAJ
BgNVBAYTAk5PMRIwEAYDVQQKDAlOaXRwaWNrc3kxKDAmBgNVBAsMH05pdHBpY2tz
eSBDZXJ0aWZpY2F0ZSBBdXRob3JpdHkxDTALBgNVBAMMBHp1dWwwggIiMA0GCSqG
SIb3DQEBAQUAA4ICDwAwggIKAoICAQCz57QVJn8Wb6PqysJtThMbsvKihdELT7sl
ru6OjL1Gixh4XQx1VGc3AxCvd6dqZwSxAn0Ky6J72D4yOfsQoj6yWfXnP3Dn3KDP
lAN5B8YUKhUJGby8Ru6GKlbn6Wc3K2vth/yL1Ge6YyTD3NkXZoWEVjVKZA0MnAAY
hiiNdTaSnzCYVP0bZ7smakIX+IOjJeJt5VigU/JtcSmcMHNF/Uewm66R3DfpoTyI
G0N+Z3CJ7mF15XKp4/UflCfXZD5Eimp+dJTkAEB542HqZs1NGVBF4Ao+XJSRfWQ9
FpHLYOKHK1o8GCBDsLqd20qksMgoNWXSA7Rzg3OLFrrGpv5oMHRvV58d4K/6nhbD
GTqn8p7ihzx1f8Fx+qGrRp+GPZ8B+FJjb23mnyO2PxX+tNLn67ipVtBUcx5XX52L
W57Rs60+J6XGHZGrICaTZr6sWJ0MZkOpGdk7zsh8kn+dpJcrzEqFD7swZQgCxcJF
UF183PUZwVdeHwmUuWyUV/bUSXGvpSd0qiB/g8btNLwlQe58/iZA1G9PBtLyXhEe
/n7Dn8sa9ZPA6U/1PKe+HOke9K+d2bnmDoJju1/LpkzKQJjujpmhhOuJb6MR1Mq7
sHPonBM00HKw859iB+YQs1SSoOWCvhG4gLwKHroCIetkqrCv1Eup9xl7+mrbpR6k
D0TdRt20awIDAQABo4IBMzCCAS8wDgYDVR0PAQH/BAQDAgWgMAkGA1UdEwQCMAAw
HQYDVR0lBBYwFAYIKwYBBQUHAwEGCCsGAQUFBwMCMB0GA1UdDgQWBBQY2d29TE+U
pVsBZ9HDYSymuqHSuzAfBgNVHSMEGDAWgBQkaEBOUERUtbVeDRdOlrva2xXktjA9
BggrBgEFBQcBAQQxMC8wLQYIKwYBBQUHMAKGIWh0dHA6Ly9uaXRwaWNrc3kubm8v
Y2EvdGxzLWNhLmNlcjAyBgNVHR8EKzApMCegJaAjhiFodHRwOi8vbml0cGlja3N5
Lm5vL2NhL3Rscy1jYS5jcmwwQAYDVR0RBDkwN4IMbml0cGlja3N5Lm5vghB3d3cu
bml0cGlja3N5Lm5vgglsb2NhbGhvc3SHBH8AAAGHBMCoQKkwDQYJKoZIhvcNAQEL
BQADggIBAJV8G/SmGjWlbhY10H7w/XeH7IN5sBfAw1AMvOmJdTd0v7yk9iQKlhuv
FmOQyiXsaWOgyAFlUl9e3XT9VNEYrezwaa18K6Jg7AJln5iObXTUCKRODgdosjrW
voK0BdWGQcfr4jBUWATDF076yVM7EuHyz5siHJivWcHWbNGGuyyU/8iTT1mm0CTv
J2uBoKmjE4SkK+xtUT2ajBCsicqB0SDgmhYGhB4L8xgXUSTT6oHXf8PGxyeQcTYw
nxZIjVFgBJNsNtEcUOFsoIIs5CwtDekWlP9EPnxD5/dZpE6TxdswIHH3PHHGZGqG
4KfGW6DcqOi6n0Rje7W+KK1ui5Nbn3vISBAomHuuQRt+Yt5VFFw4qT56XqcqQd6I
gt3px7fVYZHMkyRiALTzie2w1L2GtK52FHgx6ByA2DTgA+lYg4JJb8uEVbIY3uMU
TijBAnbSxA6zUZHQKxYkIjO7/xiXotfM360mdUTQYhMVQwXJu8THV3viWTzNSkih
qIAA89Bwo72coIJCyfcfLm8ODrzS2pxiQ68o3GR5tJxRWYOwvNiewmuZSpjJcvHX
YTEMpSKjIJAqkGWUxNcFpv4S1zf0sGAZ+KF6dWFzA0prH7l0WDKsNYdn8pxN49ay
ZRFJXmDJ0MZAAW29nAWypFzdhPkZ/miIqo/j85PD02YRapeoGO4T
-----END CERTIFICATE-----
