Certificate:
    Data:
        Version: 3 (0x2)
        Serial Number:
            4b:49:75:4a:74:83:a7:74:89:fe:09:6b:74:95:03:e4:ba:da:f5:bc
        Signature Algorithm: sha256WithRSAEncryption
        Issuer: C=NO, O=Nitpicksy, OU=Nitpicksy Certificate Authority, CN=Nitpicksy TLS CA
        Validity
            Not Before: Dec 11 23:35:51 2020 GMT
            Not After : Dec 11 23:35:51 2022 GMT
        Subject: C=NO, O=Nitpicksy, OU=Nitpicksy Certificate Authority, CN=zuul
        Subject Public Key Info:
            Public Key Algorithm: rsaEncryption
                RSA Public-Key: (4096 bit)
                Modulus:
                    00:c7:9e:b3:b2:3e:33:7f:ea:bd:76:10:2b:14:35:
                    f8:67:85:ed:62:78:a8:87:11:40:0c:2d:0d:3f:d5:
                    88:8f:43:cf:5f:5c:9d:2e:0c:8a:8e:01:1a:57:07:
                    65:95:94:14:af:2d:49:3b:88:f7:92:74:91:9b:31:
                    54:3c:88:37:f3:84:ae:67:c8:cd:51:1f:f5:31:01:
                    62:67:66:35:c6:96:2c:e8:25:ca:e4:18:90:0b:c0:
                    b2:fd:aa:5c:73:df:de:3d:99:b2:ac:89:6a:5a:09:
                    0e:ef:6c:5c:35:90:d4:62:28:ea:9a:e3:87:39:31:
                    be:1f:a7:5e:62:ab:cd:ff:17:c1:44:92:38:c7:07:
                    06:83:4c:60:02:f2:ab:cf:5d:56:74:77:f5:c9:24:
                    8b:ec:76:2e:e7:4f:9b:55:18:be:86:18:e1:de:d6:
                    f8:a8:21:2a:4d:07:e2:31:cd:ca:36:06:e8:16:f6:
                    ac:22:49:d5:d0:10:c0:89:b6:19:6a:04:72:31:16:
                    8f:b8:73:e9:d7:2e:be:62:f2:11:d9:3a:9f:72:ce:
                    48:22:49:48:be:d5:02:a9:1e:84:48:f1:3d:9f:e6:
                    3b:f8:e0:a3:a1:c2:5f:2f:cf:c9:72:e2:20:be:20:
                    89:8c:58:c0:c5:fa:8f:16:44:38:ab:b7:c2:67:d4:
                    96:66:44:21:cd:6b:dc:b0:aa:6a:f9:93:05:95:ca:
                    7a:94:18:3f:b4:2b:4d:2f:a6:2d:cd:c8:05:9b:f0:
                    26:b1:81:09:92:68:67:de:3a:ce:3f:02:55:09:20:
                    37:db:28:6a:a1:3e:16:6b:2a:7b:85:a8:e2:a6:23:
                    a6:3f:7f:00:f9:45:f8:2f:67:17:58:af:47:43:58:
                    e7:52:c7:d6:2f:fd:a9:eb:cd:f6:49:7c:f3:b1:6d:
                    9e:47:71:b4:7e:22:76:94:5a:de:8b:09:a6:95:2c:
                    b5:9f:c8:2d:56:82:46:fe:97:10:23:85:60:70:77:
                    48:08:63:4b:97:cf:fb:07:58:c2:f2:9c:37:e3:bd:
                    38:64:5b:c2:39:db:61:68:c8:92:b5:4f:a1:aa:3a:
                    51:8a:35:6f:c8:af:01:7a:e7:da:cb:6d:c2:17:b7:
                    e8:47:03:2b:c0:8c:79:21:ec:fd:18:1a:a1:fa:23:
                    09:dd:11:9b:69:a8:c0:11:f7:37:25:31:6b:f9:74:
                    5a:2e:9f:bf:af:5e:00:e9:f1:4c:ef:be:84:39:5c:
                    a9:24:70:85:2d:d3:d3:bb:af:d6:ee:b2:ec:0c:81:
                    1d:c7:cc:11:3c:32:2d:8c:b9:32:32:c1:e7:d9:9c:
                    f5:4d:05:67:6e:40:dd:e5:2f:de:01:cb:34:77:93:
                    89:06:05
                Exponent: 65537 (0x10001)
        X509v3 extensions:
            X509v3 Key Usage: critical
                Digital Signature, Key Encipherment
            X509v3 Basic Constraints: 
                CA:FALSE
            X509v3 Extended Key Usage: 
                TLS Web Server Authentication, TLS Web Client Authentication
            X509v3 Subject Key Identifier: 
                21:EF:9A:B1:62:8F:44:A6:0B:F0:2A:34:9F:33:76:6D:C1:13:74:C0
            X509v3 Authority Key Identifier: 
                keyid:99:B8:0A:C6:F9:8F:63:32:21:3F:40:58:30:B1:09:38:21:F0:EA:62

            Authority Information Access: 
                CA Issuers - URI:http://nitpicksy.no/ca/tls-ca.cer

            X509v3 CRL Distribution Points: 

                Full Name:
                  URI:http://nitpicksy.no/ca/tls-ca.crl

            X509v3 Subject Alternative Name: 
                DNS:nitpicksy.no, DNS:www.nitpicksy.no, DNS:localhost, IP Address:127.0.0.1
    Signature Algorithm: sha256WithRSAEncryption
         bb:67:f8:67:e4:f4:53:e5:48:5c:5c:7d:3a:ab:b0:62:fa:3a:
         cd:7a:9e:70:91:61:83:1c:3a:30:5f:b7:93:ef:46:a2:8a:65:
         e9:a0:0c:56:39:3a:58:86:b8:13:7f:5d:dd:ac:61:aa:ab:27:
         8d:e2:d2:d0:77:31:78:d3:ea:b3:41:31:c5:16:8b:ef:27:fa:
         4e:97:06:35:8a:49:4d:d3:89:59:24:ec:07:4f:33:28:3e:e5:
         ee:a5:25:68:0d:21:33:61:93:ce:65:13:ac:3e:3d:09:f6:61:
         07:57:db:bd:10:64:00:e1:85:0b:1d:36:65:39:8f:2e:3f:95:
         40:8c:49:ef:4c:3b:a8:52:9d:18:b4:b6:94:85:06:3e:18:e7:
         c2:89:9b:4d:e3:bc:e1:de:65:18:d3:e2:58:c9:5e:0b:28:88:
         26:f1:d1:e6:47:7d:f4:c8:10:91:a3:42:e3:86:79:8e:c0:83:
         9f:07:59:e7:f9:31:a2:b4:b3:b7:44:a1:ad:14:ac:85:0a:15:
         d7:f3:4b:34:1d:87:17:dc:27:51:46:29:b3:97:62:76:2b:2d:
         35:79:af:61:31:93:2d:4e:1f:79:82:fb:cb:7a:d9:5b:36:1c:
         3f:8b:b8:f7:48:d1:6d:66:78:bc:34:84:74:78:31:aa:20:4f:
         23:5d:94:bc:ca:31:c9:f2:45:50:68:63:98:25:26:57:8a:5e:
         aa:c7:71:84:d7:5a:7e:f5:7b:4b:46:63:80:83:0e:53:56:bf:
         bf:22:a0:f4:4f:80:2b:48:5d:c0:c8:9e:37:bd:bb:1f:68:da:
         43:6f:83:d7:31:d1:b1:19:e8:ee:57:31:1d:71:4f:35:9f:52:
         72:9c:64:d2:8c:ef:62:a9:6f:75:03:07:d3:98:5f:7b:b8:75:
         64:35:dd:f7:c7:e0:ad:a9:6e:58:b3:01:97:6e:4a:6a:8d:e8:
         79:07:cc:87:2e:75:e2:6f:88:00:8f:0b:ad:b7:53:3c:59:de:
         62:a0:b5:a2:26:d7:f4:82:ac:29:5e:1e:76:3a:32:84:12:00:
         86:ef:5e:c0:86:be:17:5d:53:2b:b8:96:9b:18:9c:41:ac:9f:
         6e:76:d8:c7:6c:3c:36:48:00:7b:de:e2:4f:28:b9:8a:be:66:
         7a:a9:d7:05:89:b1:2c:2b:b9:ed:d3:28:8c:d4:b8:79:2d:eb:
         01:c2:9f:4b:6c:9e:4f:58:0d:54:22:62:4d:39:0d:20:5a:64:
         f1:b3:b8:af:6a:21:13:f1:18:e3:92:83:26:06:b0:ed:b1:6c:
         a6:46:04:80:8b:4b:71:c1:9e:38:23:4a:31:d7:9a:22:3e:09:
         24:50:e7:44:83:57:0b:7f
-----BEGIN CERTIFICATE-----
MIIGfTCCBGWgAwIBAgIUS0l1SnSDp3SJ/glrdJUD5Lra9bwwDQYJKoZIhvcNAQEL
BQAwZjELMAkGA1UEBhMCTk8xEjAQBgNVBAoMCU5pdHBpY2tzeTEoMCYGA1UECwwf
Tml0cGlja3N5IENlcnRpZmljYXRlIEF1dGhvcml0eTEZMBcGA1UEAwwQTml0cGlj
a3N5IFRMUyBDQTAeFw0yMDEyMTEyMzM1NTFaFw0yMjEyMTEyMzM1NTFaMFoxCzAJ
BgNVBAYTAk5PMRIwEAYDVQQKDAlOaXRwaWNrc3kxKDAmBgNVBAsMH05pdHBpY2tz
eSBDZXJ0aWZpY2F0ZSBBdXRob3JpdHkxDTALBgNVBAMMBHp1dWwwggIiMA0GCSqG
SIb3DQEBAQUAA4ICDwAwggIKAoICAQDHnrOyPjN/6r12ECsUNfhnhe1ieKiHEUAM
LQ0/1YiPQ89fXJ0uDIqOARpXB2WVlBSvLUk7iPeSdJGbMVQ8iDfzhK5nyM1RH/Ux
AWJnZjXGlizoJcrkGJALwLL9qlxz3949mbKsiWpaCQ7vbFw1kNRiKOqa44c5Mb4f
p15iq83/F8FEkjjHBwaDTGAC8qvPXVZ0d/XJJIvsdi7nT5tVGL6GGOHe1vioISpN
B+Ixzco2BugW9qwiSdXQEMCJthlqBHIxFo+4c+nXLr5i8hHZOp9yzkgiSUi+1QKp
HoRI8T2f5jv44KOhwl8vz8ly4iC+IImMWMDF+o8WRDirt8Jn1JZmRCHNa9ywqmr5
kwWVynqUGD+0K00vpi3NyAWb8CaxgQmSaGfeOs4/AlUJIDfbKGqhPhZrKnuFqOKm
I6Y/fwD5RfgvZxdYr0dDWOdSx9Yv/anrzfZJfPOxbZ5HcbR+InaUWt6LCaaVLLWf
yC1Wgkb+lxAjhWBwd0gIY0uXz/sHWMLynDfjvThkW8I522FoyJK1T6GqOlGKNW/I
rwF659rLbcIXt+hHAyvAjHkh7P0YGqH6IwndEZtpqMAR9zclMWv5dFoun7+vXgDp
8UzvvoQ5XKkkcIUt09O7r9busuwMgR3HzBE8Mi2MuTIywefZnPVNBWduQN3lL94B
yzR3k4kGBQIDAQABo4IBLTCCASkwDgYDVR0PAQH/BAQDAgWgMAkGA1UdEwQCMAAw
HQYDVR0lBBYwFAYIKwYBBQUHAwEGCCsGAQUFBwMCMB0GA1UdDgQWBBQh75qxYo9E
pgvwKjSfM3ZtwRN0wDAfBgNVHSMEGDAWgBSZuArG+Y9jMiE/QFgwsQk4IfDqYjA9
BggrBgEFBQcBAQQxMC8wLQYIKwYBBQUHMAKGIWh0dHA6Ly9uaXRwaWNrc3kubm8v
Y2EvdGxzLWNhLmNlcjAyBgNVHR8EKzApMCegJaAjhiFodHRwOi8vbml0cGlja3N5
Lm5vL2NhL3Rscy1jYS5jcmwwOgYDVR0RBDMwMYIMbml0cGlja3N5Lm5vghB3d3cu
bml0cGlja3N5Lm5vgglsb2NhbGhvc3SHBH8AAAEwDQYJKoZIhvcNAQELBQADggIB
ALtn+Gfk9FPlSFxcfTqrsGL6Os16nnCRYYMcOjBft5PvRqKKZemgDFY5OliGuBN/
Xd2sYaqrJ43i0tB3MXjT6rNBMcUWi+8n+k6XBjWKSU3TiVkk7AdPMyg+5e6lJWgN
ITNhk85lE6w+PQn2YQdX270QZADhhQsdNmU5jy4/lUCMSe9MO6hSnRi0tpSFBj4Y
58KJm03jvOHeZRjT4ljJXgsoiCbx0eZHffTIEJGjQuOGeY7Ag58HWef5MaK0s7dE
oa0UrIUKFdfzSzQdhxfcJ1FGKbOXYnYrLTV5r2Exky1OH3mC+8t62Vs2HD+LuPdI
0W1meLw0hHR4MaogTyNdlLzKMcnyRVBoY5glJleKXqrHcYTXWn71e0tGY4CDDlNW
v78ioPRPgCtIXcDInje9ux9o2kNvg9cx0bEZ6O5XMR1xTzWfUnKcZNKM72Kpb3UD
B9OYX3u4dWQ13ffH4K2pblizAZduSmqN6HkHzIcudeJviACPC623UzxZ3mKgtaIm
1/SCrCleHnY6MoQSAIbvXsCGvhddUyu4lpsYnEGsn2522MdsPDZIAHve4k8ouYq+
Znqp1wWJsSwrue3TKIzUuHkt6wHCn0tsnk9YDVQiYk05DSBaZPGzuK9qIRPxGOOS
gyYGsO2xbKZGBICLS3HBnjgjSjHXmiI+CSRQ50SDVwt/
-----END CERTIFICATE-----
