Certificate:
    Data:
        Version: 3 (0x2)
        Serial Number:
            6f:6c:20:12:24:c3:bd:01:d7:6a:4f:a2:d0:d9:53:c6:29:a6:d1:12
        Signature Algorithm: sha256WithRSAEncryption
        Issuer: C=NO, O=Nitpicksy, OU=Nitpicksy Certificate Authority, CN=Nitpicksy TLS CA
        Validity
            Not Before: Dec 11 12:46:31 2020 GMT
            Not After : Dec 11 12:46:31 2022 GMT
        Subject: C=NO, O=Nitpicksy, OU=Nitpicksy Certificate Authority, CN=Bitcoin
        Subject Public Key Info:
            Public Key Algorithm: rsaEncryption
                RSA Public-Key: (4096 bit)
                Modulus:
                    00:af:2b:80:9e:a7:70:bf:0c:a7:84:98:d5:c1:65:
                    40:d5:5a:03:f9:c3:e9:db:23:4c:10:4e:7d:19:42:
                    ff:3c:aa:34:a0:c8:af:a3:cd:e8:c9:bc:36:ce:a0:
                    1b:19:fc:5a:c1:1a:5c:0e:08:d8:08:c0:9d:3e:72:
                    77:a5:8b:46:43:af:28:7b:98:87:70:73:57:a4:96:
                    25:d6:e0:40:53:04:7f:06:37:ba:31:f5:1f:58:07:
                    8d:4f:39:d7:e5:1a:96:73:08:05:98:a8:50:82:04:
                    97:c6:e6:0f:89:39:d5:56:81:2d:44:ec:8a:82:5b:
                    b7:6c:c9:26:cb:4b:8c:ee:89:51:7c:0d:88:6d:60:
                    03:23:89:75:35:e4:f0:37:c1:ae:22:49:ae:40:20:
                    df:ae:52:9d:08:67:74:08:36:31:55:a6:a9:46:1e:
                    8d:36:5f:1e:75:41:6d:64:cf:62:cb:e8:f9:61:d0:
                    b7:96:91:06:b8:60:80:6f:7f:42:52:ed:bb:ad:aa:
                    94:c5:23:cc:08:b6:8d:5b:d4:04:29:3a:2c:3b:63:
                    62:a1:6f:d6:01:14:55:f7:71:f5:0a:b0:8f:a3:2d:
                    35:99:3e:37:55:31:c8:7a:66:e0:60:96:38:30:a4:
                    41:d8:86:b1:f0:c4:b5:ba:29:f9:aa:ef:d6:ac:b5:
                    c7:72:d3:14:82:67:ca:bc:0e:a4:6f:8b:14:64:d7:
                    02:cd:32:3f:b5:fd:7f:2f:59:6b:31:2b:d1:75:92:
                    66:51:2e:06:6f:5a:02:4d:55:a5:c9:c8:e5:5a:79:
                    f2:d8:bc:9c:fb:a8:7a:2a:47:00:7a:12:85:26:85:
                    a4:58:53:6f:60:ea:72:f2:20:8e:50:59:00:7c:d5:
                    46:c8:fd:8f:87:a4:98:84:d3:81:6c:88:5d:2a:70:
                    5b:6d:df:22:3b:49:c2:d2:dc:2b:a4:28:95:76:12:
                    12:7a:18:33:a2:82:a8:38:ff:eb:f3:26:99:67:97:
                    8b:ee:6f:10:92:c7:b0:cd:d3:a8:2d:43:64:c1:16:
                    dc:98:33:a4:ac:71:0b:df:8f:1c:30:22:05:f7:6e:
                    39:e0:17:80:cb:db:57:69:3c:62:45:17:ae:a4:71:
                    12:b0:14:9b:cd:17:b1:89:42:a6:43:c5:ac:b4:5e:
                    6c:bb:d8:f6:54:ab:b0:cf:49:b9:f0:5b:33:7f:de:
                    d4:ed:81:a8:99:c4:50:bd:e8:fc:7b:c0:f2:c1:6a:
                    b2:fe:78:92:c8:ec:96:b1:a3:b2:b8:eb:03:16:f4:
                    09:54:71:85:4e:36:98:ca:64:a0:bd:29:92:af:c9:
                    b2:1f:0e:c9:d4:08:65:ae:72:40:4d:ec:94:27:56:
                    de:56:95
                Exponent: 65537 (0x10001)
        X509v3 extensions:
            X509v3 Key Usage: critical
                Digital Signature, Key Encipherment
            X509v3 Basic Constraints: 
                CA:FALSE
            X509v3 Extended Key Usage: 
                TLS Web Server Authentication, TLS Web Client Authentication
            X509v3 Subject Key Identifier: 
                FF:20:66:79:8A:B3:7A:21:8A:DE:C2:EC:FE:28:AE:AF:E9:FE:FB:D5
            X509v3 Authority Key Identifier: 
                keyid:24:68:40:4E:50:44:54:B5:B5:5E:0D:17:4E:96:BB:DA:DB:15:E4:B6

            Authority Information Access: 
                CA Issuers - URI:http://nitpicksy.no/ca/tls-ca.cer

            X509v3 CRL Distribution Points: 

                Full Name:
                  URI:http://nitpicksy.no/ca/tls-ca.crl

            X509v3 Subject Alternative Name: 
                DNS:nitpicksy.no, DNS:www.nitpicksy.no, DNS:localhost, IP Address:127.0.0.1, IP Address:192.168.64.169
    Signature Algorithm: sha256WithRSAEncryption
         49:f2:98:c3:01:02:4a:42:16:52:90:34:57:3a:2b:e0:d0:51:
         46:60:3e:96:bf:d8:45:04:fb:84:3c:ef:f0:a6:80:33:a5:8d:
         9c:80:4d:f1:6e:bd:77:b7:67:97:b3:81:13:1d:67:97:06:5d:
         bc:d2:35:d9:1a:64:f2:1c:4b:27:77:59:13:94:37:c7:ef:53:
         1d:2d:14:da:6e:89:34:bd:cf:96:0d:6e:a0:44:05:46:ec:d5:
         73:59:29:a9:a9:22:65:9f:e1:ea:74:f5:71:0c:e5:e0:e1:b5:
         ad:f9:d3:2b:68:f2:35:4b:91:ba:29:24:62:e5:03:96:5c:63:
         4c:97:0d:0e:20:3e:ac:c1:51:bb:31:92:5a:06:d3:8e:0e:eb:
         df:a7:55:ed:42:a4:85:02:9e:e8:d4:c0:f5:ed:61:c8:3b:44:
         55:df:0f:7b:3d:cf:8e:25:6b:a1:8d:41:be:d0:96:ef:7f:46:
         93:8c:8d:81:d3:74:b9:b4:22:1b:84:51:b5:73:e6:98:04:1b:
         a0:57:41:32:ab:1a:9b:ef:5b:f9:15:e4:a3:0d:70:70:95:95:
         16:c8:1f:ab:a3:99:09:30:8e:05:b9:ee:53:da:5f:5f:83:54:
         6c:9a:b4:82:88:cf:cb:be:c2:31:32:36:81:f8:39:53:af:dd:
         0b:61:78:08:a2:28:e0:7a:24:14:0b:98:1e:93:99:8d:0f:41:
         22:28:ba:5f:2c:8e:d7:c8:7f:61:d9:21:42:50:7c:d9:66:20:
         31:37:e9:7b:e7:1c:eb:da:d5:68:25:92:6a:13:ab:89:6f:96:
         f3:32:73:e8:fd:3c:8e:e6:dc:c7:13:94:71:7e:92:6f:9c:f9:
         90:d5:d2:e5:d5:af:fa:0a:0d:77:33:92:5d:1e:3e:e8:15:eb:
         4a:97:8c:8e:fa:35:2f:d6:58:f1:d4:bd:09:21:c3:49:82:e5:
         1c:34:e4:d2:5b:1a:b1:78:5a:4c:0d:c1:f2:fb:f3:5d:33:d0:
         89:a9:e2:11:a1:48:97:c9:90:b2:88:7f:b5:df:ad:df:63:db:
         0a:5f:b3:b6:4c:2a:cc:6e:6a:e6:15:7d:df:b8:63:32:f7:56:
         3b:97:21:be:5b:1c:0c:94:d9:26:e8:72:7b:c8:4a:94:cc:6a:
         91:22:16:c3:c6:dd:d4:02:80:be:87:3f:49:62:be:74:31:5c:
         3c:1d:11:a1:ef:cc:06:1a:60:f6:1a:a1:03:f7:ad:4c:7b:b6:
         a0:db:93:5d:a5:9c:32:6e:e3:f5:76:ef:1f:8e:91:de:1f:e3:
         12:1c:43:f4:8a:1f:f1:87:db:16:ec:2b:86:5f:e2:79:6b:0b:
         02:61:a1:7f:3d:97:27:f2
-----BEGIN CERTIFICATE-----
MIIGhjCCBG6gAwIBAgIUb2wgEiTDvQHXak+i0NlTximm0RIwDQYJKoZIhvcNAQEL
BQAwZjELMAkGA1UEBhMCTk8xEjAQBgNVBAoMCU5pdHBpY2tzeTEoMCYGA1UECwwf
Tml0cGlja3N5IENlcnRpZmljYXRlIEF1dGhvcml0eTEZMBcGA1UEAwwQTml0cGlj
a3N5IFRMUyBDQTAeFw0yMDEyMTExMjQ2MzFaFw0yMjEyMTExMjQ2MzFaMF0xCzAJ
BgNVBAYTAk5PMRIwEAYDVQQKDAlOaXRwaWNrc3kxKDAmBgNVBAsMH05pdHBpY2tz
eSBDZXJ0aWZpY2F0ZSBBdXRob3JpdHkxEDAOBgNVBAMMB0JpdGNvaW4wggIiMA0G
CSqGSIb3DQEBAQUAA4ICDwAwggIKAoICAQCvK4Cep3C/DKeEmNXBZUDVWgP5w+nb
I0wQTn0ZQv88qjSgyK+jzejJvDbOoBsZ/FrBGlwOCNgIwJ0+cneli0ZDryh7mIdw
c1ekliXW4EBTBH8GN7ox9R9YB41POdflGpZzCAWYqFCCBJfG5g+JOdVWgS1E7IqC
W7dsySbLS4zuiVF8DYhtYAMjiXU15PA3wa4iSa5AIN+uUp0IZ3QINjFVpqlGHo02
Xx51QW1kz2LL6Plh0LeWkQa4YIBvf0JS7butqpTFI8wIto1b1AQpOiw7Y2Khb9YB
FFX3cfUKsI+jLTWZPjdVMch6ZuBgljgwpEHYhrHwxLW6Kfmq79astcdy0xSCZ8q8
DqRvixRk1wLNMj+1/X8vWWsxK9F1kmZRLgZvWgJNVaXJyOVaefLYvJz7qHoqRwB6
EoUmhaRYU29g6nLyII5QWQB81UbI/Y+HpJiE04FsiF0qcFtt3yI7ScLS3CukKJV2
EhJ6GDOigqg4/+vzJplnl4vubxCSx7DN06gtQ2TBFtyYM6SscQvfjxwwIgX3bjng
F4DL21dpPGJFF66kcRKwFJvNF7GJQqZDxay0Xmy72PZUq7DPSbnwWzN/3tTtgaiZ
xFC96Px7wPLBarL+eJLI7Jaxo7K46wMW9AlUcYVONpjKZKC9KZKvybIfDsnUCGWu
ckBN7JQnVt5WlQIDAQABo4IBMzCCAS8wDgYDVR0PAQH/BAQDAgWgMAkGA1UdEwQC
MAAwHQYDVR0lBBYwFAYIKwYBBQUHAwEGCCsGAQUFBwMCMB0GA1UdDgQWBBT/IGZ5
irN6IYrewuz+KK6v6f771TAfBgNVHSMEGDAWgBQkaEBOUERUtbVeDRdOlrva2xXk
tjA9BggrBgEFBQcBAQQxMC8wLQYIKwYBBQUHMAKGIWh0dHA6Ly9uaXRwaWNrc3ku
bm8vY2EvdGxzLWNhLmNlcjAyBgNVHR8EKzApMCegJaAjhiFodHRwOi8vbml0cGlj
a3N5Lm5vL2NhL3Rscy1jYS5jcmwwQAYDVR0RBDkwN4IMbml0cGlja3N5Lm5vghB3
d3cubml0cGlja3N5Lm5vgglsb2NhbGhvc3SHBH8AAAGHBMCoQKkwDQYJKoZIhvcN
AQELBQADggIBAEnymMMBAkpCFlKQNFc6K+DQUUZgPpa/2EUE+4Q87/CmgDOljZyA
TfFuvXe3Z5ezgRMdZ5cGXbzSNdkaZPIcSyd3WROUN8fvUx0tFNpuiTS9z5YNbqBE
BUbs1XNZKampImWf4ep09XEM5eDhta350yto8jVLkbopJGLlA5ZcY0yXDQ4gPqzB
UbsxkloG044O69+nVe1CpIUCnujUwPXtYcg7RFXfD3s9z44la6GNQb7Qlu9/RpOM
jYHTdLm0IhuEUbVz5pgEG6BXQTKrGpvvW/kV5KMNcHCVlRbIH6ujmQkwjgW57lPa
X1+DVGyatIKIz8u+wjEyNoH4OVOv3QtheAiiKOB6JBQLmB6TmY0PQSIoul8sjtfI
f2HZIUJQfNlmIDE36XvnHOva1WglkmoTq4lvlvMyc+j9PI7m3McTlHF+km+c+ZDV
0uXVr/oKDXczkl0ePugV60qXjI76NS/WWPHUvQkhw0mC5Rw05NJbGrF4WkwNwfL7
810z0Imp4hGhSJfJkLKIf7Xfrd9j2wpfs7ZMKsxuauYVfd+4YzL3VjuXIb5bHAyU
2SbocnvISpTMapEiFsPG3dQCgL6HP0livnQxXDwdEaHvzAYaYPYaoQP3rUx7tqDb
k12lnDJu4/V27x+Okd4f4xIcQ/SKH/GH2xbsK4Zf4nlrCwJhoX89lyfy
-----END CERTIFICATE-----
