Certificate:
    Data:
        Version: 3 (0x2)
        Serial Number:
            60:88:97:a5:79:95:f5:64:02:79:5c:36:f0:ca:c0:0e:b8:ad:27:c1
        Signature Algorithm: sha256WithRSAEncryption
        Issuer: C=NO, O=Nitpicksy, OU=Nitpicksy Certificate Authority, CN=Nitpicksy TLS CA
        Validity
            Not Before: Dec 11 12:46:28 2020 GMT
            Not After : Dec 11 12:46:28 2022 GMT
        Subject: C=NO, O=Nitpicksy, OU=Nitpicksy Certificate Authority, CN=Cloud
        Subject Public Key Info:
            Public Key Algorithm: rsaEncryption
                RSA Public-Key: (4096 bit)
                Modulus:
                    00:d6:e2:2b:ac:a6:d7:b5:38:14:c5:6e:14:4f:2b:
                    a7:48:e5:43:28:41:6e:f8:f3:d7:a7:ec:49:d3:88:
                    db:61:04:24:98:bb:09:4f:02:11:68:d0:dc:bb:2e:
                    0f:83:4b:c1:b7:07:e2:3b:0d:34:49:87:d1:67:76:
                    4a:c7:1b:80:37:84:42:4a:b3:fa:85:94:6d:13:10:
                    d6:5c:f8:f4:a8:f1:10:12:04:f5:95:00:83:ca:44:
                    cb:14:e2:8f:52:09:fb:a7:40:2d:5b:23:37:2d:ea:
                    94:85:9c:ae:ea:0e:92:49:8a:33:35:46:0f:b6:4b:
                    06:f3:9a:1c:79:12:36:a6:d0:e0:9f:d0:6c:11:2b:
                    6e:7b:80:20:6f:17:fb:ff:17:ff:17:4b:3e:10:43:
                    f1:3c:03:e0:7e:f6:b1:47:a6:cb:70:53:0f:2e:2a:
                    70:cd:90:f9:bf:5f:b8:cc:04:44:bf:6a:56:97:3e:
                    e5:b2:d2:b0:bb:29:a1:25:96:24:c8:9e:ef:66:c2:
                    b2:d3:08:92:51:33:6a:ab:aa:25:cc:e5:97:e7:e0:
                    e3:f3:1c:e3:bc:49:ae:fb:4e:94:a6:bd:ac:c1:bf:
                    6e:11:71:82:90:b4:e4:7c:f8:a0:3e:4b:41:79:30:
                    ae:38:2e:aa:39:70:44:41:a3:16:3d:3c:05:0e:32:
                    9a:2c:cb:ec:ce:2d:cd:a8:ac:ea:26:67:47:64:b7:
                    f4:a3:13:82:2c:35:c0:d3:0c:20:74:10:57:86:06:
                    2d:67:8a:e7:9d:27:41:b3:9a:8e:2e:92:6d:2a:e3:
                    09:eb:1b:30:3b:03:14:28:b0:2c:36:d3:c0:21:51:
                    b1:71:ea:20:6a:9a:40:55:c5:ed:24:32:a5:dd:07:
                    93:c7:19:58:7c:69:7c:7d:62:bc:21:3d:f2:b8:1d:
                    b3:ea:c8:8b:6b:1c:d5:ce:62:60:36:08:cd:b1:8d:
                    75:34:ad:a1:23:51:e9:79:7d:cf:7a:ee:86:1b:a5:
                    2d:ad:9e:c9:da:a2:b1:30:41:4f:bc:86:c4:e7:54:
                    0e:19:6c:7f:d8:34:fb:d7:e4:6e:00:68:ac:06:e4:
                    e2:ce:00:e0:22:2b:0c:9c:49:8b:96:97:3a:51:10:
                    bd:f2:06:26:bb:d4:1e:33:00:35:6a:64:dc:87:db:
                    a5:98:fb:39:b0:fc:e3:16:a9:2a:a3:60:55:01:31:
                    4c:a7:f6:57:ee:95:41:92:0d:39:72:11:2b:aa:22:
                    71:17:91:57:44:67:25:6b:18:61:17:f8:85:02:82:
                    cb:be:97:eb:70:61:ab:d6:82:ce:c9:65:d4:fd:4a:
                    af:26:80:6f:83:b6:e9:14:6f:b4:ff:3c:30:45:53:
                    a6:5d:2f
                Exponent: 65537 (0x10001)
        X509v3 extensions:
            X509v3 Key Usage: critical
                Digital Signature, Key Encipherment
            X509v3 Basic Constraints: 
                CA:FALSE
            X509v3 Extended Key Usage: 
                TLS Web Server Authentication, TLS Web Client Authentication
            X509v3 Subject Key Identifier: 
                22:D9:B7:5A:70:69:0A:63:A6:7D:B2:CE:AD:61:CF:3A:60:31:E2:AF
            X509v3 Authority Key Identifier: 
                keyid:24:68:40:4E:50:44:54:B5:B5:5E:0D:17:4E:96:BB:DA:DB:15:E4:B6

            Authority Information Access: 
                CA Issuers - URI:http://nitpicksy.no/ca/tls-ca.cer

            X509v3 CRL Distribution Points: 

                Full Name:
                  URI:http://nitpicksy.no/ca/tls-ca.crl

            X509v3 Subject Alternative Name: 
                DNS:nitpicksy.no, DNS:www.nitpicksy.no, DNS:localhost, IP Address:127.0.0.1, IP Address:192.168.64.169
    Signature Algorithm: sha256WithRSAEncryption
         c1:ee:e8:95:e7:f9:be:6e:d9:e6:7c:d4:d8:04:ed:aa:aa:67:
         b8:d2:e8:81:7b:a8:2a:1a:c6:29:c3:49:5b:3b:94:08:44:d8:
         53:b5:9e:80:24:9a:58:6a:fd:2b:a8:23:ea:c4:4d:6c:ef:cd:
         0a:3f:62:b8:ce:39:46:9c:fb:15:3b:65:46:ef:10:d9:ca:61:
         bd:39:8d:79:41:fe:4c:28:88:77:5d:af:0e:23:9f:86:b3:cf:
         9e:7f:ef:09:19:8c:74:fa:d6:50:71:eb:4c:99:45:ec:c5:9c:
         20:cc:9c:c8:68:e4:a6:46:3e:14:d4:bb:8c:3b:0e:b3:fb:3a:
         04:9f:ab:5f:5e:50:b1:37:0a:66:21:be:77:17:4d:6c:6c:34:
         2e:3e:fb:9e:41:60:63:60:99:a5:96:74:a6:ee:20:df:2c:89:
         2f:b4:5f:12:52:35:26:82:58:5a:e2:ff:6c:fa:99:e7:65:a0:
         8a:39:13:76:85:ad:e3:fe:64:7e:d2:ad:f0:16:08:20:b5:11:
         36:86:3e:2f:5b:63:f6:f0:c6:c7:63:c3:b1:f8:0c:da:ab:d5:
         63:81:77:fd:27:e1:44:10:84:b9:8a:ee:99:c7:e0:fa:b0:3b:
         a4:34:3e:ae:e3:67:4f:20:b6:1f:8e:11:91:ba:be:bd:00:ff:
         18:18:f4:b4:5d:b0:3e:b5:09:3d:20:4a:08:d5:c2:4b:b4:f1:
         c2:d8:fd:a1:32:20:09:6a:c6:9a:f7:e5:39:bf:31:5a:19:5b:
         cf:7e:4c:7b:e5:4e:76:3f:b6:36:4d:f6:c8:3f:dd:64:1b:7d:
         08:d0:1d:f3:26:98:e1:6a:a4:ca:4c:bf:bd:ef:dd:e1:ab:ef:
         54:9a:6e:70:c0:ed:60:77:91:94:19:10:d0:d1:1a:e4:96:35:
         b1:68:84:d4:ac:14:d7:b7:c4:b3:3a:5a:2c:df:3d:e4:31:22:
         89:38:03:c2:33:32:7f:b2:80:e3:2b:6a:5d:75:65:a4:32:d7:
         3a:25:10:83:c7:89:5f:2a:90:73:66:fa:2e:18:c3:72:f9:c9:
         85:75:db:e1:7b:96:7a:ad:04:d5:92:dd:f6:e2:f6:c7:a7:fc:
         70:ab:db:08:8c:18:f0:18:33:ca:9f:33:39:f6:a9:e3:2f:f6:
         b7:b8:2b:18:1a:f7:6d:4e:90:73:73:5a:47:ff:72:5a:e5:0a:
         8d:2a:08:0d:70:b3:6f:cd:c7:92:a5:55:d2:a6:e2:68:36:4f:
         c5:89:9c:4a:70:54:f1:4a:cd:5f:10:20:be:6c:44:d0:19:4c:
         2b:20:f6:a5:bc:da:0f:c9:88:15:00:46:9c:7c:f8:bf:6c:e2:
         36:03:a6:f8:46:10:8c:ef
-----BEGIN CERTIFICATE-----
MIIGhDCCBGygAwIBAgIUYIiXpXmV9WQCeVw28MrADritJ8EwDQYJKoZIhvcNAQEL
BQAwZjELMAkGA1UEBhMCTk8xEjAQBgNVBAoMCU5pdHBpY2tzeTEoMCYGA1UECwwf
Tml0cGlja3N5IENlcnRpZmljYXRlIEF1dGhvcml0eTEZMBcGA1UEAwwQTml0cGlj
a3N5IFRMUyBDQTAeFw0yMDEyMTExMjQ2MjhaFw0yMjEyMTExMjQ2MjhaMFsxCzAJ
BgNVBAYTAk5PMRIwEAYDVQQKDAlOaXRwaWNrc3kxKDAmBgNVBAsMH05pdHBpY2tz
eSBDZXJ0aWZpY2F0ZSBBdXRob3JpdHkxDjAMBgNVBAMMBUNsb3VkMIICIjANBgkq
hkiG9w0BAQEFAAOCAg8AMIICCgKCAgEA1uIrrKbXtTgUxW4UTyunSOVDKEFu+PPX
p+xJ04jbYQQkmLsJTwIRaNDcuy4Pg0vBtwfiOw00SYfRZ3ZKxxuAN4RCSrP6hZRt
ExDWXPj0qPEQEgT1lQCDykTLFOKPUgn7p0AtWyM3LeqUhZyu6g6SSYozNUYPtksG
85oceRI2ptDgn9BsEStue4Agbxf7/xf/F0s+EEPxPAPgfvaxR6bLcFMPLipwzZD5
v1+4zAREv2pWlz7lstKwuymhJZYkyJ7vZsKy0wiSUTNqq6olzOWX5+Dj8xzjvEmu
+06Upr2swb9uEXGCkLTkfPigPktBeTCuOC6qOXBEQaMWPTwFDjKaLMvszi3NqKzq
JmdHZLf0oxOCLDXA0wwgdBBXhgYtZ4rnnSdBs5qOLpJtKuMJ6xswOwMUKLAsNtPA
IVGxceogappAVcXtJDKl3QeTxxlYfGl8fWK8IT3yuB2z6siLaxzVzmJgNgjNsY11
NK2hI1HpeX3Peu6GG6UtrZ7J2qKxMEFPvIbE51QOGWx/2DT71+RuAGisBuTizgDg
IisMnEmLlpc6URC98gYmu9QeMwA1amTch9ulmPs5sPzjFqkqo2BVATFMp/ZX7pVB
kg05chErqiJxF5FXRGclaxhhF/iFAoLLvpfrcGGr1oLOyWXU/UqvJoBvg7bpFG+0
/zwwRVOmXS8CAwEAAaOCATMwggEvMA4GA1UdDwEB/wQEAwIFoDAJBgNVHRMEAjAA
MB0GA1UdJQQWMBQGCCsGAQUFBwMBBggrBgEFBQcDAjAdBgNVHQ4EFgQUItm3WnBp
CmOmfbLOrWHPOmAx4q8wHwYDVR0jBBgwFoAUJGhATlBEVLW1Xg0XTpa72tsV5LYw
PQYIKwYBBQUHAQEEMTAvMC0GCCsGAQUFBzAChiFodHRwOi8vbml0cGlja3N5Lm5v
L2NhL3Rscy1jYS5jZXIwMgYDVR0fBCswKTAnoCWgI4YhaHR0cDovL25pdHBpY2tz
eS5uby9jYS90bHMtY2EuY3JsMEAGA1UdEQQ5MDeCDG5pdHBpY2tzeS5ub4IQd3d3
Lm5pdHBpY2tzeS5ub4IJbG9jYWxob3N0hwR/AAABhwTAqECpMA0GCSqGSIb3DQEB
CwUAA4ICAQDB7uiV5/m+btnmfNTYBO2qqme40uiBe6gqGsYpw0lbO5QIRNhTtZ6A
JJpYav0rqCPqxE1s780KP2K4zjlGnPsVO2VG7xDZymG9OY15Qf5MKIh3Xa8OI5+G
s8+ef+8JGYx0+tZQcetMmUXsxZwgzJzIaOSmRj4U1LuMOw6z+zoEn6tfXlCxNwpm
Ib53F01sbDQuPvueQWBjYJmllnSm7iDfLIkvtF8SUjUmglha4v9s+pnnZaCKORN2
ha3j/mR+0q3wFgggtRE2hj4vW2P28MbHY8Ox+Azaq9VjgXf9J+FEEIS5iu6Zx+D6
sDukND6u42dPILYfjhGRur69AP8YGPS0XbA+tQk9IEoI1cJLtPHC2P2hMiAJasaa
9+U5vzFaGVvPfkx75U52P7Y2TfbIP91kG30I0B3zJpjhaqTKTL+9793hq+9Umm5w
wO1gd5GUGRDQ0RrkljWxaITUrBTXt8SzOlos3z3kMSKJOAPCMzJ/soDjK2pddWWk
Mtc6JRCDx4lfKpBzZvouGMNy+cmFddvhe5Z6rQTVkt324vbHp/xwq9sIjBjwGDPK
nzM59qnjL/a3uCsYGvdtTpBzc1pH/3Ja5QqNKggNcLNvzceSpVXSpuJoNk/FiZxK
cFTxSs1fECC+bETQGUwrIPalvNoPyYgVAEacfPi/bOI2A6b4RhCM7w==
-----END CERTIFICATE-----
