Certificate:
    Data:
        Version: 3 (0x2)
        Serial Number:
            5b:76:9f:7f:48:cb:02:f7:a2:ed:86:31:20:e6:37:b3:50:c6:3b:09
        Signature Algorithm: sha256WithRSAEncryption
        Issuer: C=NO, O=Nitpicksy, OU=Nitpicksy Certificate Authority, CN=Nitpicksy TLS CA
        Validity
            Not Before: Dec  6 22:39:35 2020 GMT
            Not After : Dec  6 22:39:35 2022 GMT
        Subject: C=NO, O=Nitpicksy, OU=Nitpicksy Certificate Authority, CN=Cloud
        Subject Public Key Info:
            Public Key Algorithm: rsaEncryption
                RSA Public-Key: (4096 bit)
                Modulus:
                    00:cc:b9:e4:3f:49:0d:ec:93:4f:8e:86:93:07:54:
                    80:ee:29:f9:26:cd:1e:fb:b6:ba:51:ce:9b:4d:3a:
                    c4:d9:3b:9d:82:51:9b:18:c1:bb:09:a5:f1:6c:09:
                    5c:d4:43:eb:e9:07:79:73:c3:24:f8:06:36:a3:f1:
                    64:55:f5:8c:6c:c2:07:5d:3d:8f:9a:fb:df:36:ba:
                    78:9a:b8:d1:d8:e5:bd:31:5b:bb:48:0c:ee:45:6a:
                    e0:4a:c5:94:2a:04:84:10:ac:56:11:4e:0f:9c:21:
                    c2:62:3a:3d:02:b7:a6:c5:75:fd:1e:ee:0d:f5:cf:
                    52:5e:06:e0:17:46:58:91:80:e3:f6:92:2b:e4:24:
                    89:73:05:21:0e:0b:d7:32:a1:46:39:c1:25:b7:0d:
                    2d:b0:ae:86:9c:86:38:8b:16:8a:b5:cc:b3:52:12:
                    6d:c4:24:46:9b:58:20:47:01:49:35:1a:ef:8a:68:
                    aa:65:8a:f1:ce:c6:b9:5b:0f:7e:41:94:97:81:15:
                    ea:ec:1f:4f:69:2e:64:f2:b8:a1:9a:d4:f4:80:42:
                    69:f8:ad:be:d3:b2:39:b2:4d:c0:5c:21:07:0b:b5:
                    1b:75:4f:d7:24:13:dc:68:d0:6f:9a:91:e0:b0:87:
                    92:fc:c6:89:d8:a8:23:27:40:7c:e5:92:2d:64:7c:
                    b5:42:04:ef:6e:1e:de:45:df:0e:db:5a:7d:35:0b:
                    56:c9:87:7b:ba:26:16:93:25:89:ba:ef:57:9f:dc:
                    e1:e5:66:d4:cf:47:9d:bc:ce:d0:0d:62:be:99:fa:
                    a4:ae:da:8a:d1:7a:88:6b:c2:3b:23:75:03:59:9e:
                    ac:fe:55:4a:dd:6a:38:e5:97:d2:77:27:1d:9b:73:
                    2f:a2:0b:01:94:a9:5f:a7:d9:2f:7f:fc:49:0a:56:
                    67:31:0f:1b:7d:37:6f:36:75:c6:d0:02:1c:c8:3e:
                    83:2f:23:1c:f1:bb:c9:d7:f1:d1:68:26:cc:31:47:
                    8e:52:ea:72:3f:e5:aa:1a:c0:19:7f:3b:5b:a6:9b:
                    f6:84:e1:6a:86:36:54:7e:8c:f6:4a:8e:be:8f:8c:
                    2b:82:f8:3e:2f:74:e2:12:dc:e4:bc:c5:f6:a8:67:
                    ab:3b:81:ab:fc:a3:f1:60:08:c4:ef:db:90:49:34:
                    1e:78:36:35:bc:b2:2b:96:4f:03:3b:10:a8:bc:de:
                    5e:f0:8e:8d:9f:4d:0e:3a:36:84:b8:d5:8a:69:3f:
                    77:ce:ba:7e:6a:20:df:ab:3b:52:82:cf:9a:d0:be:
                    5d:83:66:58:9d:af:a4:78:5a:03:e8:7a:4a:63:17:
                    e6:3d:64:f7:66:b7:cb:d7:c4:09:a7:db:d0:1f:ce:
                    62:6b:29
                Exponent: 65537 (0x10001)
        X509v3 extensions:
            X509v3 Key Usage: critical
                Digital Signature, Key Encipherment
            X509v3 Basic Constraints: 
                CA:FALSE
            X509v3 Extended Key Usage: 
                TLS Web Server Authentication, TLS Web Client Authentication
            X509v3 Subject Key Identifier: 
                C7:ED:DE:34:A7:69:37:20:36:ED:F3:A2:B5:73:7F:65:33:D4:C2:AE
            X509v3 Authority Key Identifier: 
                keyid:83:CC:02:D6:E0:31:A6:2D:8E:F8:85:43:99:55:48:F6:21:22:90:49

            Authority Information Access: 
                CA Issuers - URI:http://nitpicksy.no/ca/tls-ca.cer

            X509v3 CRL Distribution Points: 

                Full Name:
                  URI:http://nitpicksy.no/ca/tls-ca.crl

            X509v3 Subject Alternative Name: 
                DNS:nitpicksy.no, DNS:www.nitpicksy.no, DNS:localhost
    Signature Algorithm: sha256WithRSAEncryption
         2d:fa:ef:33:17:7b:77:a6:2e:b3:c9:92:a4:70:7b:d6:a4:c3:
         b5:dd:82:2a:74:55:ae:5e:45:92:14:61:70:be:bf:54:11:dd:
         f6:cb:ac:76:e5:f1:7e:69:b0:ea:34:f1:53:dd:d9:4a:dc:84:
         0d:2d:38:85:c7:d6:08:ea:5d:96:3c:58:7d:5e:c7:19:80:08:
         3e:7b:64:f2:7d:38:59:fc:2d:d5:1a:94:b4:98:20:45:3e:b1:
         9d:78:98:4e:56:51:e8:18:b5:e1:24:46:c5:04:ac:cf:3a:09:
         0d:7d:7a:6c:44:56:6d:be:a6:2b:50:69:36:69:bd:2d:f2:48:
         3f:af:6c:59:5d:ed:73:d7:1b:1f:44:e2:d7:a4:dc:9f:b3:68:
         9b:72:80:bd:b0:d0:52:68:a4:73:be:c1:db:bc:69:6b:f4:ef:
         14:f4:de:2a:59:a5:b5:87:a1:33:01:18:83:43:b4:a3:50:32:
         36:e9:42:84:09:32:c4:ad:eb:82:23:52:41:18:04:9b:40:35:
         60:b3:2d:71:e0:cd:46:5a:30:70:b0:cd:ba:bb:c5:f1:1c:86:
         ec:c9:b9:75:63:db:95:55:51:94:55:b6:e8:dc:ac:cb:91:e3:
         9c:bc:f6:77:d1:9f:25:fe:de:eb:44:ba:9f:cc:3b:fe:62:27:
         b1:ad:6f:07:6e:f3:be:59:3f:19:8c:41:68:6a:20:36:2d:f3:
         de:09:cb:b7:9a:c4:7f:77:09:72:77:1e:98:3d:46:1a:f1:c8:
         b5:b3:c6:42:58:0d:38:82:df:c3:e6:74:0f:c7:1a:a0:1e:a9:
         ce:87:f7:95:d9:58:26:1a:00:7d:dc:68:ed:9a:76:3f:7c:23:
         b0:0a:0e:37:8b:6f:7e:36:85:a6:34:c7:f4:9f:2e:75:eb:7c:
         05:5e:e5:71:13:8f:a0:61:8c:cc:16:a4:91:0a:85:5e:f8:57:
         c0:af:fd:46:cd:c1:88:ce:26:7b:0e:9c:07:4f:94:ac:70:f8:
         8c:25:57:de:89:22:34:0f:f0:c7:1e:76:ff:80:d5:1d:73:d4:
         fd:f1:38:12:ad:9f:73:8b:36:cc:61:10:b6:ea:ed:a7:54:38:
         a0:16:1f:6b:6a:a8:cd:be:92:d5:9f:54:f0:9f:9f:f7:a4:39:
         75:07:b2:c7:01:d8:54:2c:8d:1c:cb:8c:64:21:38:58:f9:29:
         4f:8d:7d:f8:ba:8a:e2:13:d3:d0:5b:bf:a7:5d:1f:d6:dc:53:
         eb:f5:00:d7:a0:18:d5:7c:61:ee:f3:cc:52:d9:2a:12:67:8a:
         78:ed:fb:89:78:a2:5c:21:8d:46:ac:cc:bf:04:75:89:da:25:
         f9:22:d5:66:aa:fe:cb:8a
-----BEGIN CERTIFICATE-----
MIIGeDCCBGCgAwIBAgIUW3aff0jLAvei7YYxIOY3s1DGOwkwDQYJKoZIhvcNAQEL
BQAwZjELMAkGA1UEBhMCTk8xEjAQBgNVBAoMCU5pdHBpY2tzeTEoMCYGA1UECwwf
Tml0cGlja3N5IENlcnRpZmljYXRlIEF1dGhvcml0eTEZMBcGA1UEAwwQTml0cGlj
a3N5IFRMUyBDQTAeFw0yMDEyMDYyMjM5MzVaFw0yMjEyMDYyMjM5MzVaMFsxCzAJ
BgNVBAYTAk5PMRIwEAYDVQQKDAlOaXRwaWNrc3kxKDAmBgNVBAsMH05pdHBpY2tz
eSBDZXJ0aWZpY2F0ZSBBdXRob3JpdHkxDjAMBgNVBAMMBUNsb3VkMIICIjANBgkq
hkiG9w0BAQEFAAOCAg8AMIICCgKCAgEAzLnkP0kN7JNPjoaTB1SA7in5Js0e+7a6
Uc6bTTrE2TudglGbGMG7CaXxbAlc1EPr6Qd5c8Mk+AY2o/FkVfWMbMIHXT2Pmvvf
Nrp4mrjR2OW9MVu7SAzuRWrgSsWUKgSEEKxWEU4PnCHCYjo9AremxXX9Hu4N9c9S
XgbgF0ZYkYDj9pIr5CSJcwUhDgvXMqFGOcEltw0tsK6GnIY4ixaKtcyzUhJtxCRG
m1ggRwFJNRrvimiqZYrxzsa5Ww9+QZSXgRXq7B9PaS5k8rihmtT0gEJp+K2+07I5
sk3AXCEHC7UbdU/XJBPcaNBvmpHgsIeS/MaJ2KgjJ0B85ZItZHy1QgTvbh7eRd8O
21p9NQtWyYd7uiYWkyWJuu9Xn9zh5WbUz0edvM7QDWK+mfqkrtqK0XqIa8I7I3UD
WZ6s/lVK3Wo45ZfSdycdm3MvogsBlKlfp9kvf/xJClZnMQ8bfTdvNnXG0AIcyD6D
LyMc8bvJ1/HRaCbMMUeOUupyP+WqGsAZfztbppv2hOFqhjZUfoz2So6+j4wrgvg+
L3TiEtzkvMX2qGerO4Gr/KPxYAjE79uQSTQeeDY1vLIrlk8DOxCovN5e8I6Nn00O
OjaEuNWKaT93zrp+aiDfqztSgs+a0L5dg2ZYna+keFoD6HpKYxfmPWT3ZrfL18QJ
p9vQH85iaykCAwEAAaOCAScwggEjMA4GA1UdDwEB/wQEAwIFoDAJBgNVHRMEAjAA
MB0GA1UdJQQWMBQGCCsGAQUFBwMBBggrBgEFBQcDAjAdBgNVHQ4EFgQUx+3eNKdp
NyA27fOitXN/ZTPUwq4wHwYDVR0jBBgwFoAUg8wC1uAxpi2O+IVDmVVI9iEikEkw
PQYIKwYBBQUHAQEEMTAvMC0GCCsGAQUFBzAChiFodHRwOi8vbml0cGlja3N5Lm5v
L2NhL3Rscy1jYS5jZXIwMgYDVR0fBCswKTAnoCWgI4YhaHR0cDovL25pdHBpY2tz
eS5uby9jYS90bHMtY2EuY3JsMDQGA1UdEQQtMCuCDG5pdHBpY2tzeS5ub4IQd3d3
Lm5pdHBpY2tzeS5ub4IJbG9jYWxob3N0MA0GCSqGSIb3DQEBCwUAA4ICAQAt+u8z
F3t3pi6zyZKkcHvWpMO13YIqdFWuXkWSFGFwvr9UEd32y6x25fF+abDqNPFT3dlK
3IQNLTiFx9YI6l2WPFh9XscZgAg+e2TyfThZ/C3VGpS0mCBFPrGdeJhOVlHoGLXh
JEbFBKzPOgkNfXpsRFZtvqYrUGk2ab0t8kg/r2xZXe1z1xsfROLXpNyfs2ibcoC9
sNBSaKRzvsHbvGlr9O8U9N4qWaW1h6EzARiDQ7SjUDI26UKECTLEreuCI1JBGASb
QDVgsy1x4M1GWjBwsM26u8XxHIbsybl1Y9uVVVGUVbbo3KzLkeOcvPZ30Z8l/t7r
RLqfzDv+YiexrW8HbvO+WT8ZjEFoaiA2LfPeCcu3msR/dwlydx6YPUYa8ci1s8ZC
WA04gt/D5nQPxxqgHqnOh/eV2VgmGgB93GjtmnY/fCOwCg43i29+NoWmNMf0ny51
63wFXuVxE4+gYYzMFqSRCoVe+FfAr/1GzcGIziZ7DpwHT5SscPiMJVfeiSI0D/DH
Hnb/gNUdc9T98TgSrZ9zizbMYRC26u2nVDigFh9raqjNvpLVn1Twn5/3pDl1B7LH
AdhULI0cy4xkIThY+SlPjX34uoriE9PQW7+nXR/W3FPr9QDXoBjVfGHu88xS2SoS
Z4p47fuJeKJcIY1GrMy/BHWJ2iX5ItVmqv7Lig==
-----END CERTIFICATE-----
