Certificate:
    Data:
        Version: 3 (0x2)
        Serial Number:
            5f:5c:20:4e:aa:fe:26:4c:ab:04:6a:66:db:1d:32:1b:e0:0c:29:52
        Signature Algorithm: sha256WithRSAEncryption
        Issuer: C=NO, O=Nitpicksy, OU=Nitpicksy Certificate Authority, CN=Nitpicksy TLS CA
        Validity
            Not Before: Dec 11 12:46:28 2020 GMT
            Not After : Dec 11 12:46:28 2022 GMT
        Subject: C=NO, O=Nitpicksy Client AS, OU=Nitpicksy Certificate Authority, CN=Nitpicksy Client
        Subject Public Key Info:
            Public Key Algorithm: rsaEncryption
                RSA Public-Key: (4096 bit)
                Modulus:
                    00:aa:a3:17:fc:e2:46:19:05:20:2a:be:89:5f:a6:
                    53:48:51:13:71:9d:6d:65:d1:3f:9f:17:69:38:fd:
                    ad:7b:f2:d9:4d:5a:7d:05:a6:61:95:1b:94:81:19:
                    11:d8:0b:0d:36:a0:30:09:2a:3e:03:ad:a4:97:86:
                    81:a9:73:87:73:a3:f9:7d:3a:3b:32:5a:f4:5a:a9:
                    61:bf:f7:be:b0:83:fd:09:6e:75:49:02:2f:7c:65:
                    48:2c:33:94:62:ab:3b:66:8c:fd:aa:e3:68:d7:05:
                    05:44:ff:22:d4:f3:7a:80:2b:85:ab:a0:e7:31:d0:
                    16:28:7d:c7:37:dc:95:fd:e9:a7:de:fc:0b:87:f8:
                    a2:6c:58:88:c9:1e:1d:37:02:f6:e2:40:d4:06:02:
                    75:0e:0d:84:e1:3f:62:1e:d3:70:40:77:ed:ea:11:
                    1c:73:c9:03:5e:b0:4f:f1:40:86:c2:1f:af:cb:94:
                    b9:9b:05:e7:f3:db:8c:67:1a:30:ff:c8:dd:0b:32:
                    3a:b5:ac:37:15:d8:4c:24:27:21:35:86:3a:58:03:
                    33:1c:32:00:bd:03:22:bf:7b:f3:f1:81:37:be:38:
                    ac:2f:87:94:c6:d1:1c:cb:e9:74:81:b3:54:e3:22:
                    4f:91:76:89:d8:24:be:76:02:5f:2f:b5:c9:7c:cd:
                    0e:3c:95:cb:bd:41:e5:7e:fb:f4:e0:ca:f5:ff:01:
                    1e:cc:36:76:c2:d6:e8:11:28:80:35:dd:46:c5:c6:
                    6e:50:15:cd:db:a1:82:47:f7:fb:d7:13:6e:e9:16:
                    e8:9b:51:3f:28:b0:46:59:21:8a:aa:30:d7:b4:d2:
                    f4:3e:87:f1:58:81:12:11:66:b3:d4:70:13:6e:cf:
                    6a:a6:40:9c:6c:ca:20:36:a5:36:6e:62:4e:d1:fe:
                    e2:76:44:01:ab:6c:0e:25:e2:f5:6c:62:6a:9f:23:
                    6a:95:44:ad:cf:4b:3e:29:1e:a6:40:ff:56:94:9c:
                    8d:81:52:fb:96:da:34:09:37:02:38:6a:ca:6e:e5:
                    65:cb:31:81:c7:7c:78:f3:3c:d7:42:8d:9f:6f:fa:
                    d5:84:ec:bc:e8:67:50:fe:28:9b:77:60:0d:45:48:
                    32:01:4b:91:19:c7:27:3e:cd:ec:93:25:80:93:73:
                    ae:c7:c6:3d:bf:31:64:f6:e7:79:6f:58:fa:32:20:
                    29:34:af:c8:43:ba:4c:f2:a7:1b:5c:e1:b1:f6:f6:
                    6e:55:7a:fa:e3:2e:18:38:db:95:90:e4:28:0f:6a:
                    6f:86:1a:ba:54:f1:2e:82:51:5c:79:f0:08:ce:b8:
                    05:46:1b:ee:a7:fc:9c:0d:69:42:31:71:0f:97:55:
                    5f:a6:bb
                Exponent: 65537 (0x10001)
        X509v3 extensions:
            X509v3 Key Usage: critical
                Digital Signature
            X509v3 Basic Constraints: 
                CA:FALSE
            X509v3 Extended Key Usage: 
                TLS Web Client Authentication
            X509v3 Subject Key Identifier: 
                06:37:C8:A7:BC:68:47:6E:B9:62:3D:4B:C9:AB:44:47:56:40:C1:C9
            X509v3 Authority Key Identifier: 
                keyid:24:68:40:4E:50:44:54:B5:B5:5E:0D:17:4E:96:BB:DA:DB:15:E4:B6

            Authority Information Access: 
                CA Issuers - URI:http://nitpicksy.no/ca/tls-ca.cer

            X509v3 CRL Distribution Points: 

                Full Name:
                  URI:http://nitpicksy.no/ca/tls-ca.crl

    Signature Algorithm: sha256WithRSAEncryption
         2f:e4:31:9f:7d:58:0f:2d:b8:60:b6:77:c3:9f:d1:7f:9e:aa:
         2b:65:ab:89:a5:89:44:d7:1b:cf:14:34:74:c2:88:d3:14:6c:
         22:4e:cf:a9:25:ec:51:7b:0e:e2:29:41:e9:03:6f:7d:14:6f:
         53:0b:96:5a:15:55:f7:01:eb:00:ec:75:11:9f:06:44:f1:77:
         4c:19:b1:89:a9:ec:25:e8:22:7f:d5:62:66:46:b1:4d:ca:0e:
         50:6b:b0:af:aa:74:41:08:aa:1d:ec:9b:6f:4b:44:75:0f:54:
         c7:63:60:20:e4:11:aa:be:96:59:59:7a:43:2d:16:4c:0f:0d:
         30:06:df:ca:5c:77:f0:1d:24:4a:42:98:c6:c7:cd:2c:a6:dc:
         75:50:3a:6c:25:59:e1:67:dd:bc:2b:4c:e2:b0:14:23:1e:04:
         20:9b:79:5c:94:65:40:cc:f9:34:47:00:71:c3:a3:61:02:29:
         cb:43:e5:16:97:4a:8d:d1:92:ed:88:a0:5c:e4:dd:5a:fd:d8:
         bd:cd:64:4e:7f:de:79:60:dd:cb:71:e8:cd:89:62:e9:b8:4e:
         9e:6a:34:f8:fc:8d:04:7d:57:3c:a7:d6:90:7f:ae:e4:66:e2:
         0b:95:7d:8f:07:c1:5f:65:b5:e8:e8:69:72:c6:b7:62:4d:dd:
         26:81:6a:82:45:cd:1f:2f:57:d7:40:6a:9e:67:fe:34:e8:fd:
         7a:c5:2c:cd:da:d4:ca:13:26:85:31:bc:2a:43:cf:91:dd:77:
         a5:4b:72:c1:54:e7:9b:a0:89:4a:7f:b6:44:5b:c1:b8:50:84:
         ab:dc:55:04:b0:80:9d:ec:36:f5:0f:f7:8f:90:cc:9c:41:40:
         24:19:46:36:d6:51:05:53:48:0b:8a:72:05:05:b5:18:c5:a3:
         91:c9:df:69:a7:a0:ae:03:e3:a3:6f:01:e3:33:10:bc:9a:a1:
         33:b9:d0:8f:c9:0d:18:02:cb:c3:3a:0d:12:b2:20:95:2a:ee:
         eb:84:62:80:e0:b6:41:e0:1d:6d:9b:9a:95:47:37:3e:03:69:
         4b:f9:c7:21:73:ce:22:25:4c:42:46:f5:d7:fc:b9:17:3f:2c:
         fc:e1:8e:6a:c1:06:9e:d4:09:9e:a9:39:37:11:0f:15:18:0a:
         88:5a:52:c3:30:02:bf:eb:23:3b:64:27:fd:8f:87:41:d1:f3:
         c8:72:d5:cc:a3:66:8c:64:b2:70:d2:5a:b4:37:6d:9a:b3:b5:
         59:2c:3b:cc:77:e9:ba:35:74:d1:80:b6:18:37:f1:78:3f:25:
         b4:2f:89:08:35:fe:88:60:e0:3e:f3:41:41:fe:d7:cd:79:05:
         76:94:fd:78:01:29:18:2b
-----BEGIN CERTIFICATE-----
MIIGSzCCBDOgAwIBAgIUX1wgTqr+JkyrBGpm2x0yG+AMKVIwDQYJKoZIhvcNAQEL
BQAwZjELMAkGA1UEBhMCTk8xEjAQBgNVBAoMCU5pdHBpY2tzeTEoMCYGA1UECwwf
Tml0cGlja3N5IENlcnRpZmljYXRlIEF1dGhvcml0eTEZMBcGA1UEAwwQTml0cGlj
a3N5IFRMUyBDQTAeFw0yMDEyMTExMjQ2MjhaFw0yMjEyMTExMjQ2MjhaMHAxCzAJ
BgNVBAYTAk5PMRwwGgYDVQQKDBNOaXRwaWNrc3kgQ2xpZW50IEFTMSgwJgYDVQQL
DB9OaXRwaWNrc3kgQ2VydGlmaWNhdGUgQXV0aG9yaXR5MRkwFwYDVQQDDBBOaXRw
aWNrc3kgQ2xpZW50MIICIjANBgkqhkiG9w0BAQEFAAOCAg8AMIICCgKCAgEAqqMX
/OJGGQUgKr6JX6ZTSFETcZ1tZdE/nxdpOP2te/LZTVp9BaZhlRuUgRkR2AsNNqAw
CSo+A62kl4aBqXOHc6P5fTo7Mlr0Wqlhv/e+sIP9CW51SQIvfGVILDOUYqs7Zoz9
quNo1wUFRP8i1PN6gCuFq6DnMdAWKH3HN9yV/emn3vwLh/iibFiIyR4dNwL24kDU
BgJ1Dg2E4T9iHtNwQHft6hEcc8kDXrBP8UCGwh+vy5S5mwXn89uMZxow/8jdCzI6
taw3FdhMJCchNYY6WAMzHDIAvQMiv3vz8YE3vjisL4eUxtEcy+l0gbNU4yJPkXaJ
2CS+dgJfL7XJfM0OPJXLvUHlfvv04Mr1/wEezDZ2wtboESiANd1GxcZuUBXN26GC
R/f71xNu6Rbom1E/KLBGWSGKqjDXtNL0PofxWIESEWaz1HATbs9qpkCcbMogNqU2
bmJO0f7idkQBq2wOJeL1bGJqnyNqlUStz0s+KR6mQP9WlJyNgVL7lto0CTcCOGrK
buVlyzGBx3x48zzXQo2fb/rVhOy86GdQ/iibd2ANRUgyAUuRGccnPs3skyWAk3Ou
x8Y9vzFk9ud5b1j6MiApNK/IQ7pM8qcbXOGx9vZuVXr64y4YONuVkOQoD2pvhhq6
VPEuglFcefAIzrgFRhvup/ycDWlCMXEPl1VfprsCAwEAAaOB5jCB4zAOBgNVHQ8B
Af8EBAMCB4AwCQYDVR0TBAIwADATBgNVHSUEDDAKBggrBgEFBQcDAjAdBgNVHQ4E
FgQUBjfIp7xoR265Yj1LyatER1ZAwckwHwYDVR0jBBgwFoAUJGhATlBEVLW1Xg0X
Tpa72tsV5LYwPQYIKwYBBQUHAQEEMTAvMC0GCCsGAQUFBzAChiFodHRwOi8vbml0
cGlja3N5Lm5vL2NhL3Rscy1jYS5jZXIwMgYDVR0fBCswKTAnoCWgI4YhaHR0cDov
L25pdHBpY2tzeS5uby9jYS90bHMtY2EuY3JsMA0GCSqGSIb3DQEBCwUAA4ICAQAv
5DGffVgPLbhgtnfDn9F/nqorZauJpYlE1xvPFDR0wojTFGwiTs+pJexRew7iKUHp
A299FG9TC5ZaFVX3AesA7HURnwZE8XdMGbGJqewl6CJ/1WJmRrFNyg5Qa7CvqnRB
CKod7JtvS0R1D1THY2Ag5BGqvpZZWXpDLRZMDw0wBt/KXHfwHSRKQpjGx80sptx1
UDpsJVnhZ928K0zisBQjHgQgm3lclGVAzPk0RwBxw6NhAinLQ+UWl0qN0ZLtiKBc
5N1a/di9zWROf955YN3LcejNiWLpuE6eajT4/I0EfVc8p9aQf67kZuILlX2PB8Ff
ZbXo6GlyxrdiTd0mgWqCRc0fL1fXQGqeZ/406P16xSzN2tTKEyaFMbwqQ8+R3Xel
S3LBVOeboIlKf7ZEW8G4UISr3FUEsICd7Db1D/ePkMycQUAkGUY21lEFU0gLinIF
BbUYxaORyd9pp6CuA+OjbwHjMxC8mqEzudCPyQ0YAsvDOg0SsiCVKu7rhGKA4LZB
4B1tm5qVRzc+A2lL+cchc84iJUxCRvXX/LkXPyz84Y5qwQae1AmeqTk3EQ8VGAqI
WlLDMAK/6yM7ZCf9j4dB0fPIctXMo2aMZLJw0lq0N22as7VZLDvMd+m6NXTRgLYY
N/F4PyW0L4kINf6IYOA+80FB/tfNeQV2lP14ASkYKw==
-----END CERTIFICATE-----
